
tamago:	file format elf32-i386


Disassembly of section .init:

00100000 <.init>:
  100000: 02 b0 ad 1b 03 00            	addb	203693(%eax), %dh
  100006: 00 00                        	addb	%al, (%eax)
  100008: fb                           	sti
  100009: 4f                           	decl	%edi
  10000a: 52                           	pushl	%edx
  10000b: e4 00                        	inb	$0, %al

0010000c <mboot_ptr>:
  10000c: 00 00                        	addb	%al, (%eax)
  10000e: 00 00                        	addb	%al, (%eax)

00100010 <start>:
  100010: fa                           	cli
  100011: 89 1d 0c 00 10 00            	movl	%ebx, 1048588

00100017 <page_init>:
  100017: b8 00 10 00 00               	movl	$4096, %eax
  10001c: 83 c8 03                     	orl	$3, %eax
  10001f: a3 00 00 00 00               	movl	%eax, 0
  100024: b8 00 20 00 00               	movl	$8192, %eax
  100029: 83 c8 03                     	orl	$3, %eax
  10002c: a3 00 0c 00 00               	movl	%eax, 3072
  100031: b9 00 00 00 00               	movl	$0, %ecx

00100036 <pg_tab_loop>:
  100036: 89 c8                        	movl	%ecx, %eax
  100038: 89 ca                        	movl	%ecx, %edx
  10003a: c1 e2 02                     	shll	$2, %edx
  10003d: c1 e0 0c                     	shll	$12, %eax
  100040: 83 c8 03                     	orl	$3, %eax
  100043: 89 82 00 10 00 00            	movl	%eax, 4096(%edx)
  100049: 89 82 00 20 00 00            	movl	%eax, 8192(%edx)
  10004f: 41                           	incl	%ecx
  100050: 81 f9 00 04 00 00            	cmpl	$1024, %ecx
  100056: 75 de                        	jne	0x100036 <pg_tab_loop>

00100058 <pg_enable>:
  100058: b8 00 00 00 00               	movl	$0, %eax
  10005d: 0f 22 d8                     	movl	%eax, %cr3
  100060: 0f 20 c0                     	movl	%cr0, %eax
  100063: 0d 00 00 00 80               	orl	$2147483648, %eax
  100068: 0f 22 c0                     	movl	%eax, %cr0

0010006b <c_entry>:
  10006b: bc 03 80 00 00               	movl	$32771, %esp
  100070: bd 00 00 00 00               	movl	$0, %ebp
  100075: 83 e4 f0                     	andl	$-16, %esp
  100078: 8b 1d 0c 00 10 00            	movl	1048588, %ebx
  10007e: 89 1d 00 d0 10 c0            	movl	%ebx, -1072640000
  100084: e8 b1 17 00 c0               	calll	0xc010183a <kern_end+0xfffffffefff6a83a>

00100089 <stop>:
  100089: f4                           	hlt
  10008a: eb fd                        	jmp	0x100089 <stop>
		...

Disassembly of section .text:

c0101000 <idt_flush>:
c0101000: 8b 44 24 04                  	movl	4(%esp), %eax
c0101004: 0f 01 18                     	lidtl	(%eax)
c0101007: c3                           	retl
c0101008: 66 90                        	nop
c010100a: 66 90                        	nop
c010100c: 66 90                        	nop
c010100e: 66 90                        	nop

c0101010 <gdt_flush>:
c0101010: 8b 44 24 04                  	movl	4(%esp), %eax
c0101014: 0f 01 10                     	lgdtl	(%eax)
c0101017: 66 b8 10 00                  	movw	$16, %ax
c010101b: 8e d8                        	movl	%eax, %ds
c010101d: 8e c0                        	movl	%eax, %es
c010101f: 8e e0                        	movl	%eax, %fs
c0101021: 8e e8                        	movl	%eax, %gs
c0101023: 8e d0                        	movl	%eax, %ss
c0101025: ea 2c 10 10 c0 08 00         	ljmpl	$8, $3222278188

c010102c <gdt_flush.flush>:
c010102c: c3                           	retl
c010102d: 66 90                        	nop
c010102f: 90                           	nop

c0101030 <isr0>:
c0101030: fa                           	cli
c0101031: 6a 00                        	pushl	$0
c0101033: 6a 00                        	pushl	$0
c0101035: e9 ec 00 00 00               	jmp	0xc0101126 <isr_common_stub>

c010103a <isr1>:
c010103a: fa                           	cli
c010103b: 6a 00                        	pushl	$0
c010103d: 6a 01                        	pushl	$1
c010103f: e9 e2 00 00 00               	jmp	0xc0101126 <isr_common_stub>

c0101044 <isr2>:
c0101044: fa                           	cli
c0101045: 6a 00                        	pushl	$0
c0101047: 6a 02                        	pushl	$2
c0101049: e9 d8 00 00 00               	jmp	0xc0101126 <isr_common_stub>

c010104e <isr3>:
c010104e: fa                           	cli
c010104f: 6a 00                        	pushl	$0
c0101051: 6a 03                        	pushl	$3
c0101053: e9 ce 00 00 00               	jmp	0xc0101126 <isr_common_stub>

c0101058 <isr4>:
c0101058: fa                           	cli
c0101059: 6a 00                        	pushl	$0
c010105b: 6a 04                        	pushl	$4
c010105d: e9 c4 00 00 00               	jmp	0xc0101126 <isr_common_stub>

c0101062 <isr5>:
c0101062: fa                           	cli
c0101063: 6a 00                        	pushl	$0
c0101065: 6a 05                        	pushl	$5
c0101067: e9 ba 00 00 00               	jmp	0xc0101126 <isr_common_stub>

c010106c <isr6>:
c010106c: fa                           	cli
c010106d: 6a 00                        	pushl	$0
c010106f: 6a 06                        	pushl	$6
c0101071: e9 b0 00 00 00               	jmp	0xc0101126 <isr_common_stub>

c0101076 <isr7>:
c0101076: fa                           	cli
c0101077: 6a 00                        	pushl	$0
c0101079: 6a 07                        	pushl	$7
c010107b: e9 a6 00 00 00               	jmp	0xc0101126 <isr_common_stub>

c0101080 <isr8>:
c0101080: fa                           	cli
c0101081: 6a 08                        	pushl	$8
c0101083: e9 9e 00 00 00               	jmp	0xc0101126 <isr_common_stub>

c0101088 <isr9>:
c0101088: fa                           	cli
c0101089: 6a 00                        	pushl	$0
c010108b: 6a 09                        	pushl	$9
c010108d: e9 94 00 00 00               	jmp	0xc0101126 <isr_common_stub>

c0101092 <isr10>:
c0101092: fa                           	cli
c0101093: 6a 0a                        	pushl	$10
c0101095: e9 8c 00 00 00               	jmp	0xc0101126 <isr_common_stub>

c010109a <isr11>:
c010109a: fa                           	cli
c010109b: 6a 0b                        	pushl	$11
c010109d: e9 84 00 00 00               	jmp	0xc0101126 <isr_common_stub>

c01010a2 <isr12>:
c01010a2: fa                           	cli
c01010a3: 6a 0c                        	pushl	$12
c01010a5: eb 7f                        	jmp	0xc0101126 <isr_common_stub>

c01010a7 <isr13>:
c01010a7: fa                           	cli
c01010a8: 6a 0d                        	pushl	$13
c01010aa: eb 7a                        	jmp	0xc0101126 <isr_common_stub>

c01010ac <isr14>:
c01010ac: fa                           	cli
c01010ad: 6a 0e                        	pushl	$14
c01010af: eb 75                        	jmp	0xc0101126 <isr_common_stub>

c01010b1 <isr15>:
c01010b1: fa                           	cli
c01010b2: 6a 00                        	pushl	$0
c01010b4: 6a 0f                        	pushl	$15
c01010b6: eb 6e                        	jmp	0xc0101126 <isr_common_stub>

c01010b8 <isr16>:
c01010b8: fa                           	cli
c01010b9: 6a 00                        	pushl	$0
c01010bb: 6a 10                        	pushl	$16
c01010bd: eb 67                        	jmp	0xc0101126 <isr_common_stub>

c01010bf <isr17>:
c01010bf: fa                           	cli
c01010c0: 6a 11                        	pushl	$17
c01010c2: eb 62                        	jmp	0xc0101126 <isr_common_stub>

c01010c4 <isr18>:
c01010c4: fa                           	cli
c01010c5: 6a 00                        	pushl	$0
c01010c7: 6a 12                        	pushl	$18
c01010c9: eb 5b                        	jmp	0xc0101126 <isr_common_stub>

c01010cb <isr19>:
c01010cb: fa                           	cli
c01010cc: 6a 00                        	pushl	$0
c01010ce: 6a 13                        	pushl	$19
c01010d0: eb 54                        	jmp	0xc0101126 <isr_common_stub>

c01010d2 <isr20>:
c01010d2: fa                           	cli
c01010d3: 6a 00                        	pushl	$0
c01010d5: 6a 14                        	pushl	$20
c01010d7: eb 4d                        	jmp	0xc0101126 <isr_common_stub>

c01010d9 <isr21>:
c01010d9: fa                           	cli
c01010da: 6a 00                        	pushl	$0
c01010dc: 6a 15                        	pushl	$21
c01010de: eb 46                        	jmp	0xc0101126 <isr_common_stub>

c01010e0 <isr22>:
c01010e0: fa                           	cli
c01010e1: 6a 00                        	pushl	$0
c01010e3: 6a 16                        	pushl	$22
c01010e5: eb 3f                        	jmp	0xc0101126 <isr_common_stub>

c01010e7 <isr23>:
c01010e7: fa                           	cli
c01010e8: 6a 00                        	pushl	$0
c01010ea: 6a 17                        	pushl	$23
c01010ec: eb 38                        	jmp	0xc0101126 <isr_common_stub>

c01010ee <isr24>:
c01010ee: fa                           	cli
c01010ef: 6a 00                        	pushl	$0
c01010f1: 6a 18                        	pushl	$24
c01010f3: eb 31                        	jmp	0xc0101126 <isr_common_stub>

c01010f5 <isr25>:
c01010f5: fa                           	cli
c01010f6: 6a 00                        	pushl	$0
c01010f8: 6a 19                        	pushl	$25
c01010fa: eb 2a                        	jmp	0xc0101126 <isr_common_stub>

c01010fc <isr26>:
c01010fc: fa                           	cli
c01010fd: 6a 00                        	pushl	$0
c01010ff: 6a 1a                        	pushl	$26
c0101101: eb 23                        	jmp	0xc0101126 <isr_common_stub>

c0101103 <isr27>:
c0101103: fa                           	cli
c0101104: 6a 00                        	pushl	$0
c0101106: 6a 1b                        	pushl	$27
c0101108: eb 1c                        	jmp	0xc0101126 <isr_common_stub>

c010110a <isr28>:
c010110a: fa                           	cli
c010110b: 6a 00                        	pushl	$0
c010110d: 6a 1c                        	pushl	$28
c010110f: eb 15                        	jmp	0xc0101126 <isr_common_stub>

c0101111 <isr29>:
c0101111: fa                           	cli
c0101112: 6a 00                        	pushl	$0
c0101114: 6a 1d                        	pushl	$29
c0101116: eb 0e                        	jmp	0xc0101126 <isr_common_stub>

c0101118 <isr30>:
c0101118: fa                           	cli
c0101119: 6a 00                        	pushl	$0
c010111b: 6a 1e                        	pushl	$30
c010111d: eb 07                        	jmp	0xc0101126 <isr_common_stub>

c010111f <isr31>:
c010111f: fa                           	cli
c0101120: 6a 00                        	pushl	$0
c0101122: 6a 1f                        	pushl	$31
c0101124: eb 00                        	jmp	0xc0101126 <isr_common_stub>

c0101126 <isr_common_stub>:
c0101126: 60                           	pushal
c0101127: 66 8c d8                     	movw	%ds, %ax
c010112a: 50                           	pushl	%eax
c010112b: 66 b8 10 00                  	movw	$16, %ax
c010112f: 8e d8                        	movl	%eax, %ds
c0101131: 8e c0                        	movl	%eax, %es
c0101133: 8e e0                        	movl	%eax, %fs
c0101135: 8e e8                        	movl	%eax, %gs
c0101137: 8e d0                        	movl	%eax, %ss
c0101139: 54                           	pushl	%esp
c010113a: e8 4c 0f 00 00               	calll	0xc010208b <isr_handler>
c010113f: 83 c4 04                     	addl	$4, %esp
c0101142: 5b                           	popl	%ebx
c0101143: 8e db                        	movl	%ebx, %ds
c0101145: 8e c3                        	movl	%ebx, %es
c0101147: 8e e3                        	movl	%ebx, %fs
c0101149: 8e eb                        	movl	%ebx, %gs
c010114b: 8e d3                        	movl	%ebx, %ss
c010114d: 61                           	popal
c010114e: 83 c4 08                     	addl	$8, %esp
c0101151: cf                           	iretl

c0101152 <irq0>:
c0101152: fa                           	cli
c0101153: 6a 00                        	pushl	$0
c0101155: 6a 20                        	pushl	$32
c0101157: eb 69                        	jmp	0xc01011c2 <irq_common_stub>

c0101159 <irq1>:
c0101159: fa                           	cli
c010115a: 6a 00                        	pushl	$0
c010115c: 6a 21                        	pushl	$33
c010115e: eb 62                        	jmp	0xc01011c2 <irq_common_stub>

c0101160 <irq2>:
c0101160: fa                           	cli
c0101161: 6a 00                        	pushl	$0
c0101163: 6a 22                        	pushl	$34
c0101165: eb 5b                        	jmp	0xc01011c2 <irq_common_stub>

c0101167 <irq3>:
c0101167: fa                           	cli
c0101168: 6a 00                        	pushl	$0
c010116a: 6a 23                        	pushl	$35
c010116c: eb 54                        	jmp	0xc01011c2 <irq_common_stub>

c010116e <irq4>:
c010116e: fa                           	cli
c010116f: 6a 00                        	pushl	$0
c0101171: 6a 24                        	pushl	$36
c0101173: eb 4d                        	jmp	0xc01011c2 <irq_common_stub>

c0101175 <irq5>:
c0101175: fa                           	cli
c0101176: 6a 00                        	pushl	$0
c0101178: 6a 25                        	pushl	$37
c010117a: eb 46                        	jmp	0xc01011c2 <irq_common_stub>

c010117c <irq6>:
c010117c: fa                           	cli
c010117d: 6a 00                        	pushl	$0
c010117f: 6a 26                        	pushl	$38
c0101181: eb 3f                        	jmp	0xc01011c2 <irq_common_stub>

c0101183 <irq7>:
c0101183: fa                           	cli
c0101184: 6a 00                        	pushl	$0
c0101186: 6a 27                        	pushl	$39
c0101188: eb 38                        	jmp	0xc01011c2 <irq_common_stub>

c010118a <irq8>:
c010118a: fa                           	cli
c010118b: 6a 00                        	pushl	$0
c010118d: 6a 28                        	pushl	$40
c010118f: eb 31                        	jmp	0xc01011c2 <irq_common_stub>

c0101191 <irq9>:
c0101191: fa                           	cli
c0101192: 6a 00                        	pushl	$0
c0101194: 6a 29                        	pushl	$41
c0101196: eb 2a                        	jmp	0xc01011c2 <irq_common_stub>

c0101198 <irq10>:
c0101198: fa                           	cli
c0101199: 6a 00                        	pushl	$0
c010119b: 6a 2a                        	pushl	$42
c010119d: eb 23                        	jmp	0xc01011c2 <irq_common_stub>

c010119f <irq11>:
c010119f: fa                           	cli
c01011a0: 6a 00                        	pushl	$0
c01011a2: 6a 2b                        	pushl	$43
c01011a4: eb 1c                        	jmp	0xc01011c2 <irq_common_stub>

c01011a6 <irq12>:
c01011a6: fa                           	cli
c01011a7: 6a 00                        	pushl	$0
c01011a9: 6a 2c                        	pushl	$44
c01011ab: eb 15                        	jmp	0xc01011c2 <irq_common_stub>

c01011ad <irq13>:
c01011ad: fa                           	cli
c01011ae: 6a 00                        	pushl	$0
c01011b0: 6a 2d                        	pushl	$45
c01011b2: eb 0e                        	jmp	0xc01011c2 <irq_common_stub>

c01011b4 <irq14>:
c01011b4: fa                           	cli
c01011b5: 6a 00                        	pushl	$0
c01011b7: 6a 2e                        	pushl	$46
c01011b9: eb 07                        	jmp	0xc01011c2 <irq_common_stub>

c01011bb <irq15>:
c01011bb: fa                           	cli
c01011bc: 6a 00                        	pushl	$0
c01011be: 6a 2f                        	pushl	$47
c01011c0: eb 00                        	jmp	0xc01011c2 <irq_common_stub>

c01011c2 <irq_common_stub>:
c01011c2: 60                           	pushal
c01011c3: 66 8c d8                     	movw	%ds, %ax
c01011c6: 50                           	pushl	%eax
c01011c7: 66 b8 10 00                  	movw	$16, %ax
c01011cb: 8e d8                        	movl	%eax, %ds
c01011cd: 8e c0                        	movl	%eax, %es
c01011cf: 8e e0                        	movl	%eax, %fs
c01011d1: 8e e8                        	movl	%eax, %gs
c01011d3: 8e d0                        	movl	%eax, %ss
c01011d5: 54                           	pushl	%esp
c01011d6: e8 fa 0e 00 00               	calll	0xc01020d5 <irq_handler>
c01011db: 83 c4 04                     	addl	$4, %esp
c01011de: 5b                           	popl	%ebx
c01011df: 8e db                        	movl	%ebx, %ds
c01011e1: 8e c3                        	movl	%ebx, %es
c01011e3: 8e e3                        	movl	%ebx, %fs
c01011e5: 8e eb                        	movl	%ebx, %gs
c01011e7: 8e d3                        	movl	%ebx, %ss
c01011e9: 61                           	popal
c01011ea: 83 c4 08                     	addl	$8, %esp
c01011ed: cf                           	iretl

c01011ee <gdt_set_gate>:
c01011ee: 55                           	pushl	%ebp
c01011ef: 89 e5                        	movl	%esp, %ebp
c01011f1: 83 ec 08                     	subl	$8, %esp
c01011f4: 8b 55 14                     	movl	20(%ebp), %edx
c01011f7: 8b 45 18                     	movl	24(%ebp), %eax
c01011fa: 88 55 fc                     	movb	%dl, -4(%ebp)
c01011fd: 88 45 f8                     	movb	%al, -8(%ebp)
c0101200: 8b 45 0c                     	movl	12(%ebp), %eax
c0101203: 89 c2                        	movl	%eax, %edx
c0101205: 8b 45 08                     	movl	8(%ebp), %eax
c0101208: 66 89 14 c5 22 d0 10 c0      	movw	%dx, -1072639966(,%eax,8)
c0101210: 8b 45 0c                     	movl	12(%ebp), %eax
c0101213: c1 e8 10                     	shrl	$16, %eax
c0101216: 89 c2                        	movl	%eax, %edx
c0101218: 8b 45 08                     	movl	8(%ebp), %eax
c010121b: 88 14 c5 24 d0 10 c0         	movb	%dl, -1072639964(,%eax,8)
c0101222: 8b 45 0c                     	movl	12(%ebp), %eax
c0101225: c1 e8 18                     	shrl	$24, %eax
c0101228: 89 c2                        	movl	%eax, %edx
c010122a: 8b 45 08                     	movl	8(%ebp), %eax
c010122d: 88 14 c5 27 d0 10 c0         	movb	%dl, -1072639961(,%eax,8)
c0101234: 8b 45 10                     	movl	16(%ebp), %eax
c0101237: 89 c2                        	movl	%eax, %edx
c0101239: 8b 45 08                     	movl	8(%ebp), %eax
c010123c: 66 89 14 c5 20 d0 10 c0      	movw	%dx, -1072639968(,%eax,8)
c0101244: 8b 45 10                     	movl	16(%ebp), %eax
c0101247: c1 e8 10                     	shrl	$16, %eax
c010124a: 83 e0 0f                     	andl	$15, %eax
c010124d: 89 c2                        	movl	%eax, %edx
c010124f: 8b 45 08                     	movl	8(%ebp), %eax
c0101252: 88 14 c5 26 d0 10 c0         	movb	%dl, -1072639962(,%eax,8)
c0101259: 8b 45 08                     	movl	8(%ebp), %eax
c010125c: 0f b6 55 fc                  	movzbl	-4(%ebp), %edx
c0101260: 88 14 c5 25 d0 10 c0         	movb	%dl, -1072639963(,%eax,8)
c0101267: 8b 45 08                     	movl	8(%ebp), %eax
c010126a: 0f b6 04 c5 26 d0 10 c0      	movzbl	-1072639962(,%eax,8), %eax
c0101272: 89 c2                        	movl	%eax, %edx
c0101274: 0f b6 45 f8                  	movzbl	-8(%ebp), %eax
c0101278: 83 e0 f0                     	andl	$-16, %eax
c010127b: 09 d0                        	orl	%edx, %eax
c010127d: 89 c2                        	movl	%eax, %edx
c010127f: 8b 45 08                     	movl	8(%ebp), %eax
c0101282: 88 14 c5 26 d0 10 c0         	movb	%dl, -1072639962(,%eax,8)
c0101289: 90                           	nop
c010128a: c9                           	leave
c010128b: c3                           	retl

c010128c <setup_gdt>:
c010128c: 55                           	pushl	%ebp
c010128d: 89 e5                        	movl	%esp, %ebp
c010128f: 83 ec 08                     	subl	$8, %esp
c0101292: 66 c7 05 48 d0 10 c0 27 00   	movw	$39, -1072639928
c010129b: b8 20 d0 10 c0               	movl	$3222327328, %eax
c01012a0: a3 4a d0 10 c0               	movl	%eax, 3222327370
c01012a5: 6a 00                        	pushl	$0
c01012a7: 6a 00                        	pushl	$0
c01012a9: 6a 00                        	pushl	$0
c01012ab: 6a 00                        	pushl	$0
c01012ad: 6a 00                        	pushl	$0
c01012af: e8 3a ff ff ff               	calll	0xc01011ee <gdt_set_gate>
c01012b4: 83 c4 14                     	addl	$20, %esp
c01012b7: 68 cf 00 00 00               	pushl	$207
c01012bc: 68 9a 00 00 00               	pushl	$154
c01012c1: 6a ff                        	pushl	$-1
c01012c3: 6a 00                        	pushl	$0
c01012c5: 6a 01                        	pushl	$1
c01012c7: e8 22 ff ff ff               	calll	0xc01011ee <gdt_set_gate>
c01012cc: 83 c4 14                     	addl	$20, %esp
c01012cf: 68 cf 00 00 00               	pushl	$207
c01012d4: 68 92 00 00 00               	pushl	$146
c01012d9: 6a ff                        	pushl	$-1
c01012db: 6a 00                        	pushl	$0
c01012dd: 6a 02                        	pushl	$2
c01012df: e8 0a ff ff ff               	calll	0xc01011ee <gdt_set_gate>
c01012e4: 83 c4 14                     	addl	$20, %esp
c01012e7: 68 cf 00 00 00               	pushl	$207
c01012ec: 68 fa 00 00 00               	pushl	$250
c01012f1: 6a ff                        	pushl	$-1
c01012f3: 6a 00                        	pushl	$0
c01012f5: 6a 03                        	pushl	$3
c01012f7: e8 f2 fe ff ff               	calll	0xc01011ee <gdt_set_gate>
c01012fc: 83 c4 14                     	addl	$20, %esp
c01012ff: 68 cf 00 00 00               	pushl	$207
c0101304: 68 f2 00 00 00               	pushl	$242
c0101309: 6a ff                        	pushl	$-1
c010130b: 6a 00                        	pushl	$0
c010130d: 6a 04                        	pushl	$4
c010130f: e8 da fe ff ff               	calll	0xc01011ee <gdt_set_gate>
c0101314: 83 c4 14                     	addl	$20, %esp
c0101317: b8 48 d0 10 c0               	movl	$3222327368, %eax
c010131c: 83 ec 0c                     	subl	$12, %esp
c010131f: 50                           	pushl	%eax
c0101320: e8 eb fc ff ff               	calll	0xc0101010 <gdt_flush>
c0101325: 83 c4 10                     	addl	$16, %esp
c0101328: 90                           	nop
c0101329: c9                           	leave
c010132a: c3                           	retl

c010132b <idt_set_gate>:
c010132b: 55                           	pushl	%ebp
c010132c: 89 e5                        	movl	%esp, %ebp
c010132e: 83 ec 08                     	subl	$8, %esp
c0101331: 8b 45 10                     	movl	16(%ebp), %eax
c0101334: 8b 55 14                     	movl	20(%ebp), %edx
c0101337: 66 89 45 fc                  	movw	%ax, -4(%ebp)
c010133b: 89 d0                        	movl	%edx, %eax
c010133d: 88 45 f8                     	movb	%al, -8(%ebp)
c0101340: 8b 45 0c                     	movl	12(%ebp), %eax
c0101343: 89 c2                        	movl	%eax, %edx
c0101345: 8b 45 08                     	movl	8(%ebp), %eax
c0101348: 66 89 14 c5 60 d0 10 c0      	movw	%dx, -1072639904(,%eax,8)
c0101350: 8b 45 0c                     	movl	12(%ebp), %eax
c0101353: c1 e8 10                     	shrl	$16, %eax
c0101356: 89 c2                        	movl	%eax, %edx
c0101358: 8b 45 08                     	movl	8(%ebp), %eax
c010135b: 66 89 14 c5 66 d0 10 c0      	movw	%dx, -1072639898(,%eax,8)
c0101363: 8b 45 08                     	movl	8(%ebp), %eax
c0101366: 0f b7 55 fc                  	movzwl	-4(%ebp), %edx
c010136a: 66 89 14 c5 62 d0 10 c0      	movw	%dx, -1072639902(,%eax,8)
c0101372: 8b 45 08                     	movl	8(%ebp), %eax
c0101375: c6 04 c5 64 d0 10 c0 00      	movb	$0, -1072639900(,%eax,8)
c010137d: 8b 45 08                     	movl	8(%ebp), %eax
c0101380: 0f b6 55 f8                  	movzbl	-8(%ebp), %edx
c0101384: 88 14 c5 65 d0 10 c0         	movb	%dl, -1072639899(,%eax,8)
c010138b: 90                           	nop
c010138c: c9                           	leave
c010138d: c3                           	retl

c010138e <setup_idt>:
c010138e: 55                           	pushl	%ebp
c010138f: 89 e5                        	movl	%esp, %ebp
c0101391: 83 ec 08                     	subl	$8, %esp
c0101394: 83 ec 08                     	subl	$8, %esp
c0101397: 68 00 04 00 00               	pushl	$1024
c010139c: 68 c0 d8 18 c0               	pushl	$3222853824
c01013a1: e8 3d 0a 00 00               	calll	0xc0101de3 <bzero>
c01013a6: 83 c4 10                     	addl	$16, %esp
c01013a9: 83 ec 08                     	subl	$8, %esp
c01013ac: 68 00 08 00 00               	pushl	$2048
c01013b1: 68 60 d0 10 c0               	pushl	$3222327392
c01013b6: e8 28 0a 00 00               	calll	0xc0101de3 <bzero>
c01013bb: 83 c4 10                     	addl	$16, %esp
c01013be: 66 c7 05 60 d8 10 c0 ff 07   	movw	$2047, -1072637856
c01013c7: b8 60 d0 10 c0               	movl	$3222327392, %eax
c01013cc: a3 62 d8 10 c0               	movl	%eax, 3222329442
c01013d1: e8 a0 04 00 00               	calll	0xc0101876 <pic_init>
c01013d6: b8 30 10 10 c0               	movl	$3222278192, %eax
c01013db: 68 8e 00 00 00               	pushl	$142
c01013e0: 6a 08                        	pushl	$8
c01013e2: 50                           	pushl	%eax
c01013e3: 6a 00                        	pushl	$0
c01013e5: e8 41 ff ff ff               	calll	0xc010132b <idt_set_gate>
c01013ea: 83 c4 10                     	addl	$16, %esp
c01013ed: b8 3a 10 10 c0               	movl	$3222278202, %eax
c01013f2: 68 8e 00 00 00               	pushl	$142
c01013f7: 6a 08                        	pushl	$8
c01013f9: 50                           	pushl	%eax
c01013fa: 6a 01                        	pushl	$1
c01013fc: e8 2a ff ff ff               	calll	0xc010132b <idt_set_gate>
c0101401: 83 c4 10                     	addl	$16, %esp
c0101404: b8 44 10 10 c0               	movl	$3222278212, %eax
c0101409: 68 8e 00 00 00               	pushl	$142
c010140e: 6a 08                        	pushl	$8
c0101410: 50                           	pushl	%eax
c0101411: 6a 02                        	pushl	$2
c0101413: e8 13 ff ff ff               	calll	0xc010132b <idt_set_gate>
c0101418: 83 c4 10                     	addl	$16, %esp
c010141b: b8 4e 10 10 c0               	movl	$3222278222, %eax
c0101420: 68 8e 00 00 00               	pushl	$142
c0101425: 6a 08                        	pushl	$8
c0101427: 50                           	pushl	%eax
c0101428: 6a 03                        	pushl	$3
c010142a: e8 fc fe ff ff               	calll	0xc010132b <idt_set_gate>
c010142f: 83 c4 10                     	addl	$16, %esp
c0101432: b8 58 10 10 c0               	movl	$3222278232, %eax
c0101437: 68 8e 00 00 00               	pushl	$142
c010143c: 6a 08                        	pushl	$8
c010143e: 50                           	pushl	%eax
c010143f: 6a 04                        	pushl	$4
c0101441: e8 e5 fe ff ff               	calll	0xc010132b <idt_set_gate>
c0101446: 83 c4 10                     	addl	$16, %esp
c0101449: b8 62 10 10 c0               	movl	$3222278242, %eax
c010144e: 68 8e 00 00 00               	pushl	$142
c0101453: 6a 08                        	pushl	$8
c0101455: 50                           	pushl	%eax
c0101456: 6a 05                        	pushl	$5
c0101458: e8 ce fe ff ff               	calll	0xc010132b <idt_set_gate>
c010145d: 83 c4 10                     	addl	$16, %esp
c0101460: b8 6c 10 10 c0               	movl	$3222278252, %eax
c0101465: 68 8e 00 00 00               	pushl	$142
c010146a: 6a 08                        	pushl	$8
c010146c: 50                           	pushl	%eax
c010146d: 6a 06                        	pushl	$6
c010146f: e8 b7 fe ff ff               	calll	0xc010132b <idt_set_gate>
c0101474: 83 c4 10                     	addl	$16, %esp
c0101477: b8 76 10 10 c0               	movl	$3222278262, %eax
c010147c: 68 8e 00 00 00               	pushl	$142
c0101481: 6a 08                        	pushl	$8
c0101483: 50                           	pushl	%eax
c0101484: 6a 07                        	pushl	$7
c0101486: e8 a0 fe ff ff               	calll	0xc010132b <idt_set_gate>
c010148b: 83 c4 10                     	addl	$16, %esp
c010148e: b8 80 10 10 c0               	movl	$3222278272, %eax
c0101493: 68 8e 00 00 00               	pushl	$142
c0101498: 6a 08                        	pushl	$8
c010149a: 50                           	pushl	%eax
c010149b: 6a 08                        	pushl	$8
c010149d: e8 89 fe ff ff               	calll	0xc010132b <idt_set_gate>
c01014a2: 83 c4 10                     	addl	$16, %esp
c01014a5: b8 88 10 10 c0               	movl	$3222278280, %eax
c01014aa: 68 8e 00 00 00               	pushl	$142
c01014af: 6a 08                        	pushl	$8
c01014b1: 50                           	pushl	%eax
c01014b2: 6a 09                        	pushl	$9
c01014b4: e8 72 fe ff ff               	calll	0xc010132b <idt_set_gate>
c01014b9: 83 c4 10                     	addl	$16, %esp
c01014bc: b8 92 10 10 c0               	movl	$3222278290, %eax
c01014c1: 68 8e 00 00 00               	pushl	$142
c01014c6: 6a 08                        	pushl	$8
c01014c8: 50                           	pushl	%eax
c01014c9: 6a 0a                        	pushl	$10
c01014cb: e8 5b fe ff ff               	calll	0xc010132b <idt_set_gate>
c01014d0: 83 c4 10                     	addl	$16, %esp
c01014d3: b8 9a 10 10 c0               	movl	$3222278298, %eax
c01014d8: 68 8e 00 00 00               	pushl	$142
c01014dd: 6a 08                        	pushl	$8
c01014df: 50                           	pushl	%eax
c01014e0: 6a 0b                        	pushl	$11
c01014e2: e8 44 fe ff ff               	calll	0xc010132b <idt_set_gate>
c01014e7: 83 c4 10                     	addl	$16, %esp
c01014ea: b8 a2 10 10 c0               	movl	$3222278306, %eax
c01014ef: 68 8e 00 00 00               	pushl	$142
c01014f4: 6a 08                        	pushl	$8
c01014f6: 50                           	pushl	%eax
c01014f7: 6a 0c                        	pushl	$12
c01014f9: e8 2d fe ff ff               	calll	0xc010132b <idt_set_gate>
c01014fe: 83 c4 10                     	addl	$16, %esp
c0101501: b8 a7 10 10 c0               	movl	$3222278311, %eax
c0101506: 68 8e 00 00 00               	pushl	$142
c010150b: 6a 08                        	pushl	$8
c010150d: 50                           	pushl	%eax
c010150e: 6a 0d                        	pushl	$13
c0101510: e8 16 fe ff ff               	calll	0xc010132b <idt_set_gate>
c0101515: 83 c4 10                     	addl	$16, %esp
c0101518: b8 ac 10 10 c0               	movl	$3222278316, %eax
c010151d: 68 8e 00 00 00               	pushl	$142
c0101522: 6a 08                        	pushl	$8
c0101524: 50                           	pushl	%eax
c0101525: 6a 0e                        	pushl	$14
c0101527: e8 ff fd ff ff               	calll	0xc010132b <idt_set_gate>
c010152c: 83 c4 10                     	addl	$16, %esp
c010152f: b8 b1 10 10 c0               	movl	$3222278321, %eax
c0101534: 68 8e 00 00 00               	pushl	$142
c0101539: 6a 08                        	pushl	$8
c010153b: 50                           	pushl	%eax
c010153c: 6a 0f                        	pushl	$15
c010153e: e8 e8 fd ff ff               	calll	0xc010132b <idt_set_gate>
c0101543: 83 c4 10                     	addl	$16, %esp
c0101546: b8 b8 10 10 c0               	movl	$3222278328, %eax
c010154b: 68 8e 00 00 00               	pushl	$142
c0101550: 6a 08                        	pushl	$8
c0101552: 50                           	pushl	%eax
c0101553: 6a 10                        	pushl	$16
c0101555: e8 d1 fd ff ff               	calll	0xc010132b <idt_set_gate>
c010155a: 83 c4 10                     	addl	$16, %esp
c010155d: b8 bf 10 10 c0               	movl	$3222278335, %eax
c0101562: 68 8e 00 00 00               	pushl	$142
c0101567: 6a 08                        	pushl	$8
c0101569: 50                           	pushl	%eax
c010156a: 6a 11                        	pushl	$17
c010156c: e8 ba fd ff ff               	calll	0xc010132b <idt_set_gate>
c0101571: 83 c4 10                     	addl	$16, %esp
c0101574: b8 c4 10 10 c0               	movl	$3222278340, %eax
c0101579: 68 8e 00 00 00               	pushl	$142
c010157e: 6a 08                        	pushl	$8
c0101580: 50                           	pushl	%eax
c0101581: 6a 12                        	pushl	$18
c0101583: e8 a3 fd ff ff               	calll	0xc010132b <idt_set_gate>
c0101588: 83 c4 10                     	addl	$16, %esp
c010158b: b8 cb 10 10 c0               	movl	$3222278347, %eax
c0101590: 68 8e 00 00 00               	pushl	$142
c0101595: 6a 08                        	pushl	$8
c0101597: 50                           	pushl	%eax
c0101598: 6a 13                        	pushl	$19
c010159a: e8 8c fd ff ff               	calll	0xc010132b <idt_set_gate>
c010159f: 83 c4 10                     	addl	$16, %esp
c01015a2: b8 d2 10 10 c0               	movl	$3222278354, %eax
c01015a7: 68 8e 00 00 00               	pushl	$142
c01015ac: 6a 08                        	pushl	$8
c01015ae: 50                           	pushl	%eax
c01015af: 6a 14                        	pushl	$20
c01015b1: e8 75 fd ff ff               	calll	0xc010132b <idt_set_gate>
c01015b6: 83 c4 10                     	addl	$16, %esp
c01015b9: b8 d9 10 10 c0               	movl	$3222278361, %eax
c01015be: 68 8e 00 00 00               	pushl	$142
c01015c3: 6a 08                        	pushl	$8
c01015c5: 50                           	pushl	%eax
c01015c6: 6a 15                        	pushl	$21
c01015c8: e8 5e fd ff ff               	calll	0xc010132b <idt_set_gate>
c01015cd: 83 c4 10                     	addl	$16, %esp
c01015d0: b8 e0 10 10 c0               	movl	$3222278368, %eax
c01015d5: 68 8e 00 00 00               	pushl	$142
c01015da: 6a 08                        	pushl	$8
c01015dc: 50                           	pushl	%eax
c01015dd: 6a 16                        	pushl	$22
c01015df: e8 47 fd ff ff               	calll	0xc010132b <idt_set_gate>
c01015e4: 83 c4 10                     	addl	$16, %esp
c01015e7: b8 e7 10 10 c0               	movl	$3222278375, %eax
c01015ec: 68 8e 00 00 00               	pushl	$142
c01015f1: 6a 08                        	pushl	$8
c01015f3: 50                           	pushl	%eax
c01015f4: 6a 17                        	pushl	$23
c01015f6: e8 30 fd ff ff               	calll	0xc010132b <idt_set_gate>
c01015fb: 83 c4 10                     	addl	$16, %esp
c01015fe: b8 ee 10 10 c0               	movl	$3222278382, %eax
c0101603: 68 8e 00 00 00               	pushl	$142
c0101608: 6a 08                        	pushl	$8
c010160a: 50                           	pushl	%eax
c010160b: 6a 18                        	pushl	$24
c010160d: e8 19 fd ff ff               	calll	0xc010132b <idt_set_gate>
c0101612: 83 c4 10                     	addl	$16, %esp
c0101615: b8 f5 10 10 c0               	movl	$3222278389, %eax
c010161a: 68 8e 00 00 00               	pushl	$142
c010161f: 6a 08                        	pushl	$8
c0101621: 50                           	pushl	%eax
c0101622: 6a 19                        	pushl	$25
c0101624: e8 02 fd ff ff               	calll	0xc010132b <idt_set_gate>
c0101629: 83 c4 10                     	addl	$16, %esp
c010162c: b8 fc 10 10 c0               	movl	$3222278396, %eax
c0101631: 68 8e 00 00 00               	pushl	$142
c0101636: 6a 08                        	pushl	$8
c0101638: 50                           	pushl	%eax
c0101639: 6a 1a                        	pushl	$26
c010163b: e8 eb fc ff ff               	calll	0xc010132b <idt_set_gate>
c0101640: 83 c4 10                     	addl	$16, %esp
c0101643: b8 03 11 10 c0               	movl	$3222278403, %eax
c0101648: 68 8e 00 00 00               	pushl	$142
c010164d: 6a 08                        	pushl	$8
c010164f: 50                           	pushl	%eax
c0101650: 6a 1b                        	pushl	$27
c0101652: e8 d4 fc ff ff               	calll	0xc010132b <idt_set_gate>
c0101657: 83 c4 10                     	addl	$16, %esp
c010165a: b8 0a 11 10 c0               	movl	$3222278410, %eax
c010165f: 68 8e 00 00 00               	pushl	$142
c0101664: 6a 08                        	pushl	$8
c0101666: 50                           	pushl	%eax
c0101667: 6a 1c                        	pushl	$28
c0101669: e8 bd fc ff ff               	calll	0xc010132b <idt_set_gate>
c010166e: 83 c4 10                     	addl	$16, %esp
c0101671: b8 11 11 10 c0               	movl	$3222278417, %eax
c0101676: 68 8e 00 00 00               	pushl	$142
c010167b: 6a 08                        	pushl	$8
c010167d: 50                           	pushl	%eax
c010167e: 6a 1d                        	pushl	$29
c0101680: e8 a6 fc ff ff               	calll	0xc010132b <idt_set_gate>
c0101685: 83 c4 10                     	addl	$16, %esp
c0101688: b8 18 11 10 c0               	movl	$3222278424, %eax
c010168d: 68 8e 00 00 00               	pushl	$142
c0101692: 6a 08                        	pushl	$8
c0101694: 50                           	pushl	%eax
c0101695: 6a 1e                        	pushl	$30
c0101697: e8 8f fc ff ff               	calll	0xc010132b <idt_set_gate>
c010169c: 83 c4 10                     	addl	$16, %esp
c010169f: b8 1f 11 10 c0               	movl	$3222278431, %eax
c01016a4: 68 8e 00 00 00               	pushl	$142
c01016a9: 6a 08                        	pushl	$8
c01016ab: 50                           	pushl	%eax
c01016ac: 6a 1f                        	pushl	$31
c01016ae: e8 78 fc ff ff               	calll	0xc010132b <idt_set_gate>
c01016b3: 83 c4 10                     	addl	$16, %esp
c01016b6: b8 52 11 10 c0               	movl	$3222278482, %eax
c01016bb: 68 8e 00 00 00               	pushl	$142
c01016c0: 6a 08                        	pushl	$8
c01016c2: 50                           	pushl	%eax
c01016c3: 6a 20                        	pushl	$32
c01016c5: e8 61 fc ff ff               	calll	0xc010132b <idt_set_gate>
c01016ca: 83 c4 10                     	addl	$16, %esp
c01016cd: b8 59 11 10 c0               	movl	$3222278489, %eax
c01016d2: 68 8e 00 00 00               	pushl	$142
c01016d7: 6a 08                        	pushl	$8
c01016d9: 50                           	pushl	%eax
c01016da: 6a 21                        	pushl	$33
c01016dc: e8 4a fc ff ff               	calll	0xc010132b <idt_set_gate>
c01016e1: 83 c4 10                     	addl	$16, %esp
c01016e4: b8 60 11 10 c0               	movl	$3222278496, %eax
c01016e9: 68 8e 00 00 00               	pushl	$142
c01016ee: 6a 08                        	pushl	$8
c01016f0: 50                           	pushl	%eax
c01016f1: 6a 22                        	pushl	$34
c01016f3: e8 33 fc ff ff               	calll	0xc010132b <idt_set_gate>
c01016f8: 83 c4 10                     	addl	$16, %esp
c01016fb: b8 67 11 10 c0               	movl	$3222278503, %eax
c0101700: 68 8e 00 00 00               	pushl	$142
c0101705: 6a 08                        	pushl	$8
c0101707: 50                           	pushl	%eax
c0101708: 6a 23                        	pushl	$35
c010170a: e8 1c fc ff ff               	calll	0xc010132b <idt_set_gate>
c010170f: 83 c4 10                     	addl	$16, %esp
c0101712: b8 6e 11 10 c0               	movl	$3222278510, %eax
c0101717: 68 8e 00 00 00               	pushl	$142
c010171c: 6a 08                        	pushl	$8
c010171e: 50                           	pushl	%eax
c010171f: 6a 24                        	pushl	$36
c0101721: e8 05 fc ff ff               	calll	0xc010132b <idt_set_gate>
c0101726: 83 c4 10                     	addl	$16, %esp
c0101729: b8 75 11 10 c0               	movl	$3222278517, %eax
c010172e: 68 8e 00 00 00               	pushl	$142
c0101733: 6a 08                        	pushl	$8
c0101735: 50                           	pushl	%eax
c0101736: 6a 25                        	pushl	$37
c0101738: e8 ee fb ff ff               	calll	0xc010132b <idt_set_gate>
c010173d: 83 c4 10                     	addl	$16, %esp
c0101740: b8 7c 11 10 c0               	movl	$3222278524, %eax
c0101745: 68 8e 00 00 00               	pushl	$142
c010174a: 6a 08                        	pushl	$8
c010174c: 50                           	pushl	%eax
c010174d: 6a 26                        	pushl	$38
c010174f: e8 d7 fb ff ff               	calll	0xc010132b <idt_set_gate>
c0101754: 83 c4 10                     	addl	$16, %esp
c0101757: b8 83 11 10 c0               	movl	$3222278531, %eax
c010175c: 68 8e 00 00 00               	pushl	$142
c0101761: 6a 08                        	pushl	$8
c0101763: 50                           	pushl	%eax
c0101764: 6a 27                        	pushl	$39
c0101766: e8 c0 fb ff ff               	calll	0xc010132b <idt_set_gate>
c010176b: 83 c4 10                     	addl	$16, %esp
c010176e: b8 8a 11 10 c0               	movl	$3222278538, %eax
c0101773: 68 8e 00 00 00               	pushl	$142
c0101778: 6a 08                        	pushl	$8
c010177a: 50                           	pushl	%eax
c010177b: 6a 28                        	pushl	$40
c010177d: e8 a9 fb ff ff               	calll	0xc010132b <idt_set_gate>
c0101782: 83 c4 10                     	addl	$16, %esp
c0101785: b8 91 11 10 c0               	movl	$3222278545, %eax
c010178a: 68 8e 00 00 00               	pushl	$142
c010178f: 6a 08                        	pushl	$8
c0101791: 50                           	pushl	%eax
c0101792: 6a 29                        	pushl	$41
c0101794: e8 92 fb ff ff               	calll	0xc010132b <idt_set_gate>
c0101799: 83 c4 10                     	addl	$16, %esp
c010179c: b8 98 11 10 c0               	movl	$3222278552, %eax
c01017a1: 68 8e 00 00 00               	pushl	$142
c01017a6: 6a 08                        	pushl	$8
c01017a8: 50                           	pushl	%eax
c01017a9: 6a 2a                        	pushl	$42
c01017ab: e8 7b fb ff ff               	calll	0xc010132b <idt_set_gate>
c01017b0: 83 c4 10                     	addl	$16, %esp
c01017b3: b8 9f 11 10 c0               	movl	$3222278559, %eax
c01017b8: 68 8e 00 00 00               	pushl	$142
c01017bd: 6a 08                        	pushl	$8
c01017bf: 50                           	pushl	%eax
c01017c0: 6a 2b                        	pushl	$43
c01017c2: e8 64 fb ff ff               	calll	0xc010132b <idt_set_gate>
c01017c7: 83 c4 10                     	addl	$16, %esp
c01017ca: b8 a6 11 10 c0               	movl	$3222278566, %eax
c01017cf: 68 8e 00 00 00               	pushl	$142
c01017d4: 6a 08                        	pushl	$8
c01017d6: 50                           	pushl	%eax
c01017d7: 6a 2c                        	pushl	$44
c01017d9: e8 4d fb ff ff               	calll	0xc010132b <idt_set_gate>
c01017de: 83 c4 10                     	addl	$16, %esp
c01017e1: b8 ad 11 10 c0               	movl	$3222278573, %eax
c01017e6: 68 8e 00 00 00               	pushl	$142
c01017eb: 6a 08                        	pushl	$8
c01017ed: 50                           	pushl	%eax
c01017ee: 6a 2d                        	pushl	$45
c01017f0: e8 36 fb ff ff               	calll	0xc010132b <idt_set_gate>
c01017f5: 83 c4 10                     	addl	$16, %esp
c01017f8: b8 b4 11 10 c0               	movl	$3222278580, %eax
c01017fd: 68 8e 00 00 00               	pushl	$142
c0101802: 6a 08                        	pushl	$8
c0101804: 50                           	pushl	%eax
c0101805: 6a 2e                        	pushl	$46
c0101807: e8 1f fb ff ff               	calll	0xc010132b <idt_set_gate>
c010180c: 83 c4 10                     	addl	$16, %esp
c010180f: b8 bb 11 10 c0               	movl	$3222278587, %eax
c0101814: 68 8e 00 00 00               	pushl	$142
c0101819: 6a 08                        	pushl	$8
c010181b: 50                           	pushl	%eax
c010181c: 6a 2f                        	pushl	$47
c010181e: e8 08 fb ff ff               	calll	0xc010132b <idt_set_gate>
c0101823: 83 c4 10                     	addl	$16, %esp
c0101826: b8 60 d8 10 c0               	movl	$3222329440, %eax
c010182b: 83 ec 0c                     	subl	$12, %esp
c010182e: 50                           	pushl	%eax
c010182f: e8 cc f7 ff ff               	calll	0xc0101000 <idt_flush>
c0101834: 83 c4 10                     	addl	$16, %esp
c0101837: 90                           	nop
c0101838: c9                           	leave
c0101839: c3                           	retl

c010183a <kern_entry>:
c010183a: 55                           	pushl	%ebp
c010183b: 89 e5                        	movl	%esp, %ebp
c010183d: 83 ec 08                     	subl	$8, %esp
c0101840: e8 96 02 00 00               	calll	0xc0101adb <console_init>
c0101845: e8 44 fb ff ff               	calll	0xc010138e <setup_idt>
c010184a: e8 3d fa ff ff               	calll	0xc010128c <setup_gdt>
c010184f: e8 cf 0f 00 00               	calll	0xc0102823 <debug_init>
c0101854: e8 0e 01 00 00               	calll	0xc0101967 <clk_init>
c0101859: e8 62 06 00 00               	calll	0xc0101ec0 <mm_init>
c010185e: fb                           	sti
c010185f: 83 ec 0c                     	subl	$12, %esp
c0101862: 68 00 30 10 c0               	pushl	$3222286336
c0101867: e8 f6 0f 00 00               	calll	0xc0102862 <panic>
c010186c: 83 c4 10                     	addl	$16, %esp
c010186f: b8 00 00 00 00               	movl	$0, %eax
c0101874: c9                           	leave
c0101875: c3                           	retl

c0101876 <pic_init>:
c0101876: 55                           	pushl	%ebp
c0101877: 89 e5                        	movl	%esp, %ebp
c0101879: 83 ec 08                     	subl	$8, %esp
c010187c: 83 ec 08                     	subl	$8, %esp
c010187f: 6a 11                        	pushl	$17
c0101881: 6a 20                        	pushl	$32
c0101883: e8 51 04 00 00               	calll	0xc0101cd9 <outb>
c0101888: 83 c4 10                     	addl	$16, %esp
c010188b: 83 ec 08                     	subl	$8, %esp
c010188e: 6a 11                        	pushl	$17
c0101890: 68 a0 00 00 00               	pushl	$160
c0101895: e8 3f 04 00 00               	calll	0xc0101cd9 <outb>
c010189a: 83 c4 10                     	addl	$16, %esp
c010189d: 83 ec 08                     	subl	$8, %esp
c01018a0: 6a 20                        	pushl	$32
c01018a2: 6a 21                        	pushl	$33
c01018a4: e8 30 04 00 00               	calll	0xc0101cd9 <outb>
c01018a9: 83 c4 10                     	addl	$16, %esp
c01018ac: 83 ec 08                     	subl	$8, %esp
c01018af: 6a 28                        	pushl	$40
c01018b1: 68 a1 00 00 00               	pushl	$161
c01018b6: e8 1e 04 00 00               	calll	0xc0101cd9 <outb>
c01018bb: 83 c4 10                     	addl	$16, %esp
c01018be: 83 ec 08                     	subl	$8, %esp
c01018c1: 6a 04                        	pushl	$4
c01018c3: 6a 21                        	pushl	$33
c01018c5: e8 0f 04 00 00               	calll	0xc0101cd9 <outb>
c01018ca: 83 c4 10                     	addl	$16, %esp
c01018cd: 83 ec 08                     	subl	$8, %esp
c01018d0: 6a 02                        	pushl	$2
c01018d2: 68 a1 00 00 00               	pushl	$161
c01018d7: e8 fd 03 00 00               	calll	0xc0101cd9 <outb>
c01018dc: 83 c4 10                     	addl	$16, %esp
c01018df: 83 ec 08                     	subl	$8, %esp
c01018e2: 6a 01                        	pushl	$1
c01018e4: 6a 21                        	pushl	$33
c01018e6: e8 ee 03 00 00               	calll	0xc0101cd9 <outb>
c01018eb: 83 c4 10                     	addl	$16, %esp
c01018ee: 83 ec 08                     	subl	$8, %esp
c01018f1: 6a 01                        	pushl	$1
c01018f3: 68 a1 00 00 00               	pushl	$161
c01018f8: e8 dc 03 00 00               	calll	0xc0101cd9 <outb>
c01018fd: 83 c4 10                     	addl	$16, %esp
c0101900: 83 ec 08                     	subl	$8, %esp
c0101903: 6a 00                        	pushl	$0
c0101905: 6a 21                        	pushl	$33
c0101907: e8 cd 03 00 00               	calll	0xc0101cd9 <outb>
c010190c: 83 c4 10                     	addl	$16, %esp
c010190f: 83 ec 08                     	subl	$8, %esp
c0101912: 6a 00                        	pushl	$0
c0101914: 68 a1 00 00 00               	pushl	$161
c0101919: e8 bb 03 00 00               	calll	0xc0101cd9 <outb>
c010191e: 83 c4 10                     	addl	$16, %esp
c0101921: 90                           	nop
c0101922: c9                           	leave
c0101923: c3                           	retl

c0101924 <clear_irq>:
c0101924: 55                           	pushl	%ebp
c0101925: 89 e5                        	movl	%esp, %ebp
c0101927: 83 ec 08                     	subl	$8, %esp
c010192a: 83 7d 08 27                  	cmpl	$39, 8(%ebp)
c010192e: 76 12                        	jbe	0xc0101942 <clear_irq+0x1e>
c0101930: 83 ec 08                     	subl	$8, %esp
c0101933: 6a 20                        	pushl	$32
c0101935: 68 a0 00 00 00               	pushl	$160
c010193a: e8 9a 03 00 00               	calll	0xc0101cd9 <outb>
c010193f: 83 c4 10                     	addl	$16, %esp
c0101942: 83 ec 08                     	subl	$8, %esp
c0101945: 6a 20                        	pushl	$32
c0101947: 6a 20                        	pushl	$32
c0101949: e8 8b 03 00 00               	calll	0xc0101cd9 <outb>
c010194e: 83 c4 10                     	addl	$16, %esp
c0101951: 90                           	nop
c0101952: c9                           	leave
c0101953: c3                           	retl

c0101954 <clk_intr>:
c0101954: 55                           	pushl	%ebp
c0101955: 89 e5                        	movl	%esp, %ebp
c0101957: a1 68 d8 10 c0               	movl	3222329448, %eax
c010195c: 83 c0 01                     	addl	$1, %eax
c010195f: a3 68 d8 10 c0               	movl	%eax, 3222329448
c0101964: 90                           	nop
c0101965: 5d                           	popl	%ebp
c0101966: c3                           	retl

c0101967 <clk_init>:
c0101967: 55                           	pushl	%ebp
c0101968: 89 e5                        	movl	%esp, %ebp
c010196a: 83 ec 18                     	subl	$24, %esp
c010196d: 83 ec 08                     	subl	$8, %esp
c0101970: 68 54 19 10 c0               	pushl	$3222280532
c0101975: 6a 20                        	pushl	$32
c0101977: e8 f2 06 00 00               	calll	0xc010206e <register_intr_handler>
c010197c: 83 c4 10                     	addl	$16, %esp
c010197f: c7 45 f4 2c a4 03 00         	movl	$238636, -12(%ebp)
c0101986: 83 ec 08                     	subl	$8, %esp
c0101989: 6a 36                        	pushl	$54
c010198b: 6a 43                        	pushl	$67
c010198d: e8 47 03 00 00               	calll	0xc0101cd9 <outb>
c0101992: 83 c4 10                     	addl	$16, %esp
c0101995: 8b 45 f4                     	movl	-12(%ebp), %eax
c0101998: 88 45 f3                     	movb	%al, -13(%ebp)
c010199b: 8b 45 f4                     	movl	-12(%ebp), %eax
c010199e: c1 e8 08                     	shrl	$8, %eax
c01019a1: 88 45 f2                     	movb	%al, -14(%ebp)
c01019a4: 0f b6 45 f3                  	movzbl	-13(%ebp), %eax
c01019a8: 83 ec 08                     	subl	$8, %esp
c01019ab: 50                           	pushl	%eax
c01019ac: 6a 40                        	pushl	$64
c01019ae: e8 26 03 00 00               	calll	0xc0101cd9 <outb>
c01019b3: 83 c4 10                     	addl	$16, %esp
c01019b6: 0f b6 45 f2                  	movzbl	-14(%ebp), %eax
c01019ba: 83 ec 08                     	subl	$8, %esp
c01019bd: 50                           	pushl	%eax
c01019be: 6a 40                        	pushl	$64
c01019c0: e8 14 03 00 00               	calll	0xc0101cd9 <outb>
c01019c5: 83 c4 10                     	addl	$16, %esp
c01019c8: 90                           	nop
c01019c9: c9                           	leave
c01019ca: c3                           	retl

c01019cb <move_cursor>:
c01019cb: 55                           	pushl	%ebp
c01019cc: 89 e5                        	movl	%esp, %ebp
c01019ce: 83 ec 18                     	subl	$24, %esp
c01019d1: 0f b6 05 6d d8 10 c0         	movzbl	-1072637843, %eax
c01019d8: 0f b6 d0                     	movzbl	%al, %edx
c01019db: 89 d0                        	movl	%edx, %eax
c01019dd: c1 e0 02                     	shll	$2, %eax
c01019e0: 01 d0                        	addl	%edx, %eax
c01019e2: c1 e0 04                     	shll	$4, %eax
c01019e5: 89 c2                        	movl	%eax, %edx
c01019e7: 0f b6 05 6c d8 10 c0         	movzbl	-1072637844, %eax
c01019ee: 0f b6 c0                     	movzbl	%al, %eax
c01019f1: 01 d0                        	addl	%edx, %eax
c01019f3: 66 89 45 f6                  	movw	%ax, -10(%ebp)
c01019f7: 83 ec 08                     	subl	$8, %esp
c01019fa: 6a 0e                        	pushl	$14
c01019fc: 68 d4 03 00 00               	pushl	$980
c0101a01: e8 d3 02 00 00               	calll	0xc0101cd9 <outb>
c0101a06: 83 c4 10                     	addl	$16, %esp
c0101a09: 0f b7 45 f6                  	movzwl	-10(%ebp), %eax
c0101a0d: 66 c1 e8 08                  	shrw	$8, %ax
c0101a11: 0f b6 c0                     	movzbl	%al, %eax
c0101a14: 83 ec 08                     	subl	$8, %esp
c0101a17: 50                           	pushl	%eax
c0101a18: 68 d5 03 00 00               	pushl	$981
c0101a1d: e8 b7 02 00 00               	calll	0xc0101cd9 <outb>
c0101a22: 83 c4 10                     	addl	$16, %esp
c0101a25: 83 ec 08                     	subl	$8, %esp
c0101a28: 6a 0f                        	pushl	$15
c0101a2a: 68 d4 03 00 00               	pushl	$980
c0101a2f: e8 a5 02 00 00               	calll	0xc0101cd9 <outb>
c0101a34: 83 c4 10                     	addl	$16, %esp
c0101a37: 0f b7 45 f6                  	movzwl	-10(%ebp), %eax
c0101a3b: 0f b6 c0                     	movzbl	%al, %eax
c0101a3e: 83 ec 08                     	subl	$8, %esp
c0101a41: 50                           	pushl	%eax
c0101a42: 68 d5 03 00 00               	pushl	$981
c0101a47: e8 8d 02 00 00               	calll	0xc0101cd9 <outb>
c0101a4c: 83 c4 10                     	addl	$16, %esp
c0101a4f: 90                           	nop
c0101a50: c9                           	leave
c0101a51: c3                           	retl

c0101a52 <scroll>:
c0101a52: 55                           	pushl	%ebp
c0101a53: 89 e5                        	movl	%esp, %ebp
c0101a55: 83 ec 10                     	subl	$16, %esp
c0101a58: c6 45 fb 0f                  	movb	$15, -5(%ebp)
c0101a5c: 0f b6 45 fb                  	movzbl	-5(%ebp), %eax
c0101a60: c1 e0 08                     	shll	$8, %eax
c0101a63: 83 c8 20                     	orl	$32, %eax
c0101a66: 66 89 45 f8                  	movw	%ax, -8(%ebp)
c0101a6a: 0f b6 05 6d d8 10 c0         	movzbl	-1072637843, %eax
c0101a71: 3c 18                        	cmpb	$24, %al
c0101a73: 76 63                        	jbe	0xc0101ad8 <scroll+0x86>
c0101a75: c7 45 fc 00 00 00 00         	movl	$0, -4(%ebp)
c0101a7c: eb 27                        	jmp	0xc0101aa5 <scroll+0x53>
c0101a7e: 8b 15 00 40 10 c0            	movl	-1072676864, %edx
c0101a84: 8b 45 fc                     	movl	-4(%ebp), %eax
c0101a87: 83 c0 50                     	addl	$80, %eax
c0101a8a: 01 c0                        	addl	%eax, %eax
c0101a8c: 01 d0                        	addl	%edx, %eax
c0101a8e: 8b 0d 00 40 10 c0            	movl	-1072676864, %ecx
c0101a94: 8b 55 fc                     	movl	-4(%ebp), %edx
c0101a97: 01 d2                        	addl	%edx, %edx
c0101a99: 01 ca                        	addl	%ecx, %edx
c0101a9b: 0f b7 00                     	movzwl	(%eax), %eax
c0101a9e: 66 89 02                     	movw	%ax, (%edx)
c0101aa1: 83 45 fc 01                  	addl	$1, -4(%ebp)
c0101aa5: 81 7d fc 7f 07 00 00         	cmpl	$1919, -4(%ebp)
c0101aac: 7e d0                        	jle	0xc0101a7e <scroll+0x2c>
c0101aae: eb 18                        	jmp	0xc0101ac8 <scroll+0x76>
c0101ab0: 8b 15 00 40 10 c0            	movl	-1072676864, %edx
c0101ab6: 8b 45 fc                     	movl	-4(%ebp), %eax
c0101ab9: 01 c0                        	addl	%eax, %eax
c0101abb: 01 c2                        	addl	%eax, %edx
c0101abd: 0f b7 45 f8                  	movzwl	-8(%ebp), %eax
c0101ac1: 66 89 02                     	movw	%ax, (%edx)
c0101ac4: 83 45 fc 01                  	addl	$1, -4(%ebp)
c0101ac8: 81 7d fc cf 07 00 00         	cmpl	$1999, -4(%ebp)
c0101acf: 7e df                        	jle	0xc0101ab0 <scroll+0x5e>
c0101ad1: c6 05 6d d8 10 c0 18         	movb	$24, -1072637843
c0101ad8: 90                           	nop
c0101ad9: c9                           	leave
c0101ada: c3                           	retl

c0101adb <console_init>:
c0101adb: 55                           	pushl	%ebp
c0101adc: 89 e5                        	movl	%esp, %ebp
c0101ade: 83 ec 08                     	subl	$8, %esp
c0101ae1: e8 03 00 00 00               	calll	0xc0101ae9 <console_clear>
c0101ae6: 90                           	nop
c0101ae7: c9                           	leave
c0101ae8: c3                           	retl

c0101ae9 <console_clear>:
c0101ae9: 55                           	pushl	%ebp
c0101aea: 89 e5                        	movl	%esp, %ebp
c0101aec: 83 ec 18                     	subl	$24, %esp
c0101aef: c6 45 f3 0f                  	movb	$15, -13(%ebp)
c0101af3: 0f b6 45 f3                  	movzbl	-13(%ebp), %eax
c0101af7: c1 e0 08                     	shll	$8, %eax
c0101afa: 83 c8 20                     	orl	$32, %eax
c0101afd: 66 89 45 f0                  	movw	%ax, -16(%ebp)
c0101b01: c7 45 f4 00 00 00 00         	movl	$0, -12(%ebp)
c0101b08: eb 18                        	jmp	0xc0101b22 <console_clear+0x39>
c0101b0a: 8b 15 00 40 10 c0            	movl	-1072676864, %edx
c0101b10: 8b 45 f4                     	movl	-12(%ebp), %eax
c0101b13: 01 c0                        	addl	%eax, %eax
c0101b15: 01 c2                        	addl	%eax, %edx
c0101b17: 0f b7 45 f0                  	movzwl	-16(%ebp), %eax
c0101b1b: 66 89 02                     	movw	%ax, (%edx)
c0101b1e: 83 45 f4 01                  	addl	$1, -12(%ebp)
c0101b22: 81 7d f4 cf 07 00 00         	cmpl	$1999, -12(%ebp)
c0101b29: 7e df                        	jle	0xc0101b0a <console_clear+0x21>
c0101b2b: c6 05 6c d8 10 c0 00         	movb	$0, -1072637844
c0101b32: c6 05 6d d8 10 c0 00         	movb	$0, -1072637843
c0101b39: e8 8d fe ff ff               	calll	0xc01019cb <move_cursor>
c0101b3e: 90                           	nop
c0101b3f: c9                           	leave
c0101b40: c3                           	retl

c0101b41 <console_putc_color>:
c0101b41: 55                           	pushl	%ebp
c0101b42: 89 e5                        	movl	%esp, %ebp
c0101b44: 53                           	pushl	%ebx
c0101b45: 83 ec 24                     	subl	$36, %esp
c0101b48: 8b 45 08                     	movl	8(%ebp), %eax
c0101b4b: 88 45 e4                     	movb	%al, -28(%ebp)
c0101b4e: 8b 45 0c                     	movl	12(%ebp), %eax
c0101b51: 88 45 f7                     	movb	%al, -9(%ebp)
c0101b54: 8b 45 10                     	movl	16(%ebp), %eax
c0101b57: 88 45 f6                     	movb	%al, -10(%ebp)
c0101b5a: 0f b6 45 f7                  	movzbl	-9(%ebp), %eax
c0101b5e: c1 e0 04                     	shll	$4, %eax
c0101b61: 89 c2                        	movl	%eax, %edx
c0101b63: 0f b6 45 f6                  	movzbl	-10(%ebp), %eax
c0101b67: 83 e0 0f                     	andl	$15, %eax
c0101b6a: 09 d0                        	orl	%edx, %eax
c0101b6c: 88 45 f5                     	movb	%al, -11(%ebp)
c0101b6f: 0f b6 45 f5                  	movzbl	-11(%ebp), %eax
c0101b73: c1 e0 08                     	shll	$8, %eax
c0101b76: 66 89 45 f2                  	movw	%ax, -14(%ebp)
c0101b7a: 80 7d e4 08                  	cmpb	$8, -28(%ebp)
c0101b7e: 75 1f                        	jne	0xc0101b9f <console_putc_color+0x5e>
c0101b80: 0f b6 05 6c d8 10 c0         	movzbl	-1072637844, %eax
c0101b87: 84 c0                        	testb	%al, %al
c0101b89: 74 14                        	je	0xc0101b9f <console_putc_color+0x5e>
c0101b8b: 0f b6 05 6c d8 10 c0         	movzbl	-1072637844, %eax
c0101b92: 83 e8 01                     	subl	$1, %eax
c0101b95: a2 6c d8 10 c0               	movb	%al, 3222329452
c0101b9a: e9 9d 00 00 00               	jmp	0xc0101c3c <console_putc_color+0xfb>
c0101b9f: 80 7d e4 09                  	cmpb	$9, -28(%ebp)
c0101ba3: 75 17                        	jne	0xc0101bbc <console_putc_color+0x7b>
c0101ba5: 0f b6 05 6c d8 10 c0         	movzbl	-1072637844, %eax
c0101bac: 83 c0 04                     	addl	$4, %eax
c0101baf: 83 e0 fc                     	andl	$-4, %eax
c0101bb2: a2 6c d8 10 c0               	movb	%al, 3222329452
c0101bb7: e9 80 00 00 00               	jmp	0xc0101c3c <console_putc_color+0xfb>
c0101bbc: 80 7d e4 0d                  	cmpb	$13, -28(%ebp)
c0101bc0: 75 09                        	jne	0xc0101bcb <console_putc_color+0x8a>
c0101bc2: c6 05 6c d8 10 c0 00         	movb	$0, -1072637844
c0101bc9: eb 71                        	jmp	0xc0101c3c <console_putc_color+0xfb>
c0101bcb: 80 7d e4 0a                  	cmpb	$10, -28(%ebp)
c0101bcf: 75 18                        	jne	0xc0101be9 <console_putc_color+0xa8>
c0101bd1: c6 05 6c d8 10 c0 00         	movb	$0, -1072637844
c0101bd8: 0f b6 05 6d d8 10 c0         	movzbl	-1072637843, %eax
c0101bdf: 83 c0 01                     	addl	$1, %eax
c0101be2: a2 6d d8 10 c0               	movb	%al, 3222329453
c0101be7: eb 53                        	jmp	0xc0101c3c <console_putc_color+0xfb>
c0101be9: 80 7d e4 1f                  	cmpb	$31, -28(%ebp)
c0101bed: 7e 4d                        	jle	0xc0101c3c <console_putc_color+0xfb>
c0101bef: 66 0f be 55 e4               	movsbw	-28(%ebp), %dx
c0101bf4: 0f b7 45 f2                  	movzwl	-14(%ebp), %eax
c0101bf8: 89 d1                        	movl	%edx, %ecx
c0101bfa: 09 c1                        	orl	%eax, %ecx
c0101bfc: 8b 1d 00 40 10 c0            	movl	-1072676864, %ebx
c0101c02: 0f b6 05 6d d8 10 c0         	movzbl	-1072637843, %eax
c0101c09: 0f b6 d0                     	movzbl	%al, %edx
c0101c0c: 89 d0                        	movl	%edx, %eax
c0101c0e: c1 e0 02                     	shll	$2, %eax
c0101c11: 01 d0                        	addl	%edx, %eax
c0101c13: c1 e0 04                     	shll	$4, %eax
c0101c16: 89 c2                        	movl	%eax, %edx
c0101c18: 0f b6 05 6c d8 10 c0         	movzbl	-1072637844, %eax
c0101c1f: 0f b6 c0                     	movzbl	%al, %eax
c0101c22: 01 d0                        	addl	%edx, %eax
c0101c24: 01 c0                        	addl	%eax, %eax
c0101c26: 01 d8                        	addl	%ebx, %eax
c0101c28: 89 ca                        	movl	%ecx, %edx
c0101c2a: 66 89 10                     	movw	%dx, (%eax)
c0101c2d: 0f b6 05 6c d8 10 c0         	movzbl	-1072637844, %eax
c0101c34: 83 c0 01                     	addl	$1, %eax
c0101c37: a2 6c d8 10 c0               	movb	%al, 3222329452
c0101c3c: 0f b6 05 6c d8 10 c0         	movzbl	-1072637844, %eax
c0101c43: 3c 4f                        	cmpb	$79, %al
c0101c45: 76 16                        	jbe	0xc0101c5d <console_putc_color+0x11c>
c0101c47: c6 05 6c d8 10 c0 00         	movb	$0, -1072637844
c0101c4e: 0f b6 05 6d d8 10 c0         	movzbl	-1072637843, %eax
c0101c55: 83 c0 01                     	addl	$1, %eax
c0101c58: a2 6d d8 10 c0               	movb	%al, 3222329453
c0101c5d: e8 f0 fd ff ff               	calll	0xc0101a52 <scroll>
c0101c62: e8 64 fd ff ff               	calll	0xc01019cb <move_cursor>
c0101c67: 90                           	nop
c0101c68: 8b 5d fc                     	movl	-4(%ebp), %ebx
c0101c6b: c9                           	leave
c0101c6c: c3                           	retl

c0101c6d <console_write>:
c0101c6d: 55                           	pushl	%ebp
c0101c6e: 89 e5                        	movl	%esp, %ebp
c0101c70: 83 ec 08                     	subl	$8, %esp
c0101c73: eb 1f                        	jmp	0xc0101c94 <console_write+0x27>
c0101c75: 8b 45 08                     	movl	8(%ebp), %eax
c0101c78: 8d 50 01                     	leal	1(%eax), %edx
c0101c7b: 89 55 08                     	movl	%edx, 8(%ebp)
c0101c7e: 0f b6 00                     	movzbl	(%eax), %eax
c0101c81: 0f be c0                     	movsbl	%al, %eax
c0101c84: 83 ec 04                     	subl	$4, %esp
c0101c87: 6a 0f                        	pushl	$15
c0101c89: 6a 00                        	pushl	$0
c0101c8b: 50                           	pushl	%eax
c0101c8c: e8 b0 fe ff ff               	calll	0xc0101b41 <console_putc_color>
c0101c91: 83 c4 10                     	addl	$16, %esp
c0101c94: 8b 45 08                     	movl	8(%ebp), %eax
c0101c97: 0f b6 00                     	movzbl	(%eax), %eax
c0101c9a: 84 c0                        	testb	%al, %al
c0101c9c: 75 d7                        	jne	0xc0101c75 <console_write+0x8>
c0101c9e: 90                           	nop
c0101c9f: 90                           	nop
c0101ca0: c9                           	leave
c0101ca1: c3                           	retl

c0101ca2 <console_write_color>:
c0101ca2: 55                           	pushl	%ebp
c0101ca3: 89 e5                        	movl	%esp, %ebp
c0101ca5: 83 ec 08                     	subl	$8, %esp
c0101ca8: eb 21                        	jmp	0xc0101ccb <console_write_color+0x29>
c0101caa: 8b 45 08                     	movl	8(%ebp), %eax
c0101cad: 8d 50 01                     	leal	1(%eax), %edx
c0101cb0: 89 55 08                     	movl	%edx, 8(%ebp)
c0101cb3: 0f b6 00                     	movzbl	(%eax), %eax
c0101cb6: 0f be c0                     	movsbl	%al, %eax
c0101cb9: 83 ec 04                     	subl	$4, %esp
c0101cbc: ff 75 10                     	pushl	16(%ebp)
c0101cbf: ff 75 0c                     	pushl	12(%ebp)
c0101cc2: 50                           	pushl	%eax
c0101cc3: e8 79 fe ff ff               	calll	0xc0101b41 <console_putc_color>
c0101cc8: 83 c4 10                     	addl	$16, %esp
c0101ccb: 8b 45 08                     	movl	8(%ebp), %eax
c0101cce: 0f b6 00                     	movzbl	(%eax), %eax
c0101cd1: 84 c0                        	testb	%al, %al
c0101cd3: 75 d5                        	jne	0xc0101caa <console_write_color+0x8>
c0101cd5: 90                           	nop
c0101cd6: 90                           	nop
c0101cd7: c9                           	leave
c0101cd8: c3                           	retl

c0101cd9 <outb>:
c0101cd9: 55                           	pushl	%ebp
c0101cda: 89 e5                        	movl	%esp, %ebp
c0101cdc: 83 ec 08                     	subl	$8, %esp
c0101cdf: 8b 45 08                     	movl	8(%ebp), %eax
c0101ce2: 8b 55 0c                     	movl	12(%ebp), %edx
c0101ce5: 66 89 45 fc                  	movw	%ax, -4(%ebp)
c0101ce9: 89 d0                        	movl	%edx, %eax
c0101ceb: 88 45 f8                     	movb	%al, -8(%ebp)
c0101cee: 0f b7 55 fc                  	movzwl	-4(%ebp), %edx
c0101cf2: 0f b6 45 f8                  	movzbl	-8(%ebp), %eax
c0101cf6: ee                           	outb	%al, %dx
c0101cf7: 90                           	nop
c0101cf8: c9                           	leave
c0101cf9: c3                           	retl

c0101cfa <inb>:
c0101cfa: 55                           	pushl	%ebp
c0101cfb: 89 e5                        	movl	%esp, %ebp
c0101cfd: 83 ec 14                     	subl	$20, %esp
c0101d00: 8b 45 08                     	movl	8(%ebp), %eax
c0101d03: 66 89 45 ec                  	movw	%ax, -20(%ebp)
c0101d07: 0f b7 45 ec                  	movzwl	-20(%ebp), %eax
c0101d0b: 89 c2                        	movl	%eax, %edx
c0101d0d: ec                           	inb	%dx, %al
c0101d0e: 88 45 ff                     	movb	%al, -1(%ebp)
c0101d11: 0f b6 45 ff                  	movzbl	-1(%ebp), %eax
c0101d15: c9                           	leave
c0101d16: c3                           	retl

c0101d17 <inw>:
c0101d17: 55                           	pushl	%ebp
c0101d18: 89 e5                        	movl	%esp, %ebp
c0101d1a: 83 ec 14                     	subl	$20, %esp
c0101d1d: 8b 45 08                     	movl	8(%ebp), %eax
c0101d20: 66 89 45 ec                  	movw	%ax, -20(%ebp)
c0101d24: 0f b7 45 ec                  	movzwl	-20(%ebp), %eax
c0101d28: 89 c2                        	movl	%eax, %edx
c0101d2a: 66 ed                        	inw	%dx, %ax
c0101d2c: 66 89 45 fe                  	movw	%ax, -2(%ebp)
c0101d30: 0f b7 45 fe                  	movzwl	-2(%ebp), %eax
c0101d34: c9                           	leave
c0101d35: c3                           	retl

c0101d36 <memcpy>:
c0101d36: 55                           	pushl	%ebp
c0101d37: 89 e5                        	movl	%esp, %ebp
c0101d39: 83 ec 10                     	subl	$16, %esp
c0101d3c: 8b 45 08                     	movl	8(%ebp), %eax
c0101d3f: 89 45 fc                     	movl	%eax, -4(%ebp)
c0101d42: 8b 45 0c                     	movl	12(%ebp), %eax
c0101d45: 89 45 f8                     	movl	%eax, -8(%ebp)
c0101d48: 8b 55 fc                     	movl	-4(%ebp), %edx
c0101d4b: 8b 45 f8                     	movl	-8(%ebp), %eax
c0101d4e: 09 d0                        	orl	%edx, %eax
c0101d50: 83 e0 03                     	andl	$3, %eax
c0101d53: 85 c0                        	testl	%eax, %eax
c0101d55: 75 47                        	jne	0xc0101d9e <memcpy+0x68>
c0101d57: 8b 45 fc                     	movl	-4(%ebp), %eax
c0101d5a: 89 45 f4                     	movl	%eax, -12(%ebp)
c0101d5d: 8b 45 f8                     	movl	-8(%ebp), %eax
c0101d60: 89 45 f0                     	movl	%eax, -16(%ebp)
c0101d63: eb 1a                        	jmp	0xc0101d7f <memcpy+0x49>
c0101d65: 8b 55 f0                     	movl	-16(%ebp), %edx
c0101d68: 8d 42 04                     	leal	4(%edx), %eax
c0101d6b: 89 45 f0                     	movl	%eax, -16(%ebp)
c0101d6e: 8b 45 f4                     	movl	-12(%ebp), %eax
c0101d71: 8d 48 04                     	leal	4(%eax), %ecx
c0101d74: 89 4d f4                     	movl	%ecx, -12(%ebp)
c0101d77: 8b 12                        	movl	(%edx), %edx
c0101d79: 89 10                        	movl	%edx, (%eax)
c0101d7b: 83 6d 10 04                  	subl	$4, 16(%ebp)
c0101d7f: 83 7d 10 03                  	cmpl	$3, 16(%ebp)
c0101d83: 77 e0                        	ja	0xc0101d65 <memcpy+0x2f>
c0101d85: eb 17                        	jmp	0xc0101d9e <memcpy+0x68>
c0101d87: 8b 55 f8                     	movl	-8(%ebp), %edx
c0101d8a: 8d 42 01                     	leal	1(%edx), %eax
c0101d8d: 89 45 f8                     	movl	%eax, -8(%ebp)
c0101d90: 8b 45 fc                     	movl	-4(%ebp), %eax
c0101d93: 8d 48 01                     	leal	1(%eax), %ecx
c0101d96: 89 4d fc                     	movl	%ecx, -4(%ebp)
c0101d99: 0f b6 12                     	movzbl	(%edx), %edx
c0101d9c: 88 10                        	movb	%dl, (%eax)
c0101d9e: 8b 45 10                     	movl	16(%ebp), %eax
c0101da1: 8d 50 ff                     	leal	-1(%eax), %edx
c0101da4: 89 55 10                     	movl	%edx, 16(%ebp)
c0101da7: 85 c0                        	testl	%eax, %eax
c0101da9: 75 dc                        	jne	0xc0101d87 <memcpy+0x51>
c0101dab: 90                           	nop
c0101dac: 90                           	nop
c0101dad: c9                           	leave
c0101dae: c3                           	retl

c0101daf <memset>:
c0101daf: 55                           	pushl	%ebp
c0101db0: 89 e5                        	movl	%esp, %ebp
c0101db2: 83 ec 14                     	subl	$20, %esp
c0101db5: 8b 45 0c                     	movl	12(%ebp), %eax
c0101db8: 88 45 ec                     	movb	%al, -20(%ebp)
c0101dbb: 8b 45 08                     	movl	8(%ebp), %eax
c0101dbe: 89 45 fc                     	movl	%eax, -4(%ebp)
c0101dc1: eb 0f                        	jmp	0xc0101dd2 <memset+0x23>
c0101dc3: 8b 45 fc                     	movl	-4(%ebp), %eax
c0101dc6: 8d 50 01                     	leal	1(%eax), %edx
c0101dc9: 89 55 fc                     	movl	%edx, -4(%ebp)
c0101dcc: 0f b6 55 ec                  	movzbl	-20(%ebp), %edx
c0101dd0: 88 10                        	movb	%dl, (%eax)
c0101dd2: 8b 45 10                     	movl	16(%ebp), %eax
c0101dd5: 8d 50 ff                     	leal	-1(%eax), %edx
c0101dd8: 89 55 10                     	movl	%edx, 16(%ebp)
c0101ddb: 85 c0                        	testl	%eax, %eax
c0101ddd: 75 e4                        	jne	0xc0101dc3 <memset+0x14>
c0101ddf: 90                           	nop
c0101de0: 90                           	nop
c0101de1: c9                           	leave
c0101de2: c3                           	retl

c0101de3 <bzero>:
c0101de3: 55                           	pushl	%ebp
c0101de4: 89 e5                        	movl	%esp, %ebp
c0101de6: ff 75 0c                     	pushl	12(%ebp)
c0101de9: 6a 00                        	pushl	$0
c0101deb: ff 75 08                     	pushl	8(%ebp)
c0101dee: e8 bc ff ff ff               	calll	0xc0101daf <memset>
c0101df3: 83 c4 0c                     	addl	$12, %esp
c0101df6: 90                           	nop
c0101df7: c9                           	leave
c0101df8: c3                           	retl

c0101df9 <strcmp>:
c0101df9: 55                           	pushl	%ebp
c0101dfa: 89 e5                        	movl	%esp, %ebp
c0101dfc: 83 ec 10                     	subl	$16, %esp
c0101dff: c7 45 fc 00 00 00 00         	movl	$0, -4(%ebp)
c0101e06: 8b 45 08                     	movl	8(%ebp), %eax
c0101e09: 0f b6 00                     	movzbl	(%eax), %eax
c0101e0c: 0f b6 d0                     	movzbl	%al, %edx
c0101e0f: 8b 45 0c                     	movl	12(%ebp), %eax
c0101e12: 0f b6 00                     	movzbl	(%eax), %eax
c0101e15: 0f b6 c8                     	movzbl	%al, %ecx
c0101e18: 89 d0                        	movl	%edx, %eax
c0101e1a: 29 c8                        	subl	%ecx, %eax
c0101e1c: 89 45 fc                     	movl	%eax, -4(%ebp)
c0101e1f: 83 7d fc 00                  	cmpl	$0, -4(%ebp)
c0101e23: 75 14                        	jne	0xc0101e39 <strcmp+0x40>
c0101e25: 8b 45 08                     	movl	8(%ebp), %eax
c0101e28: 0f b6 00                     	movzbl	(%eax), %eax
c0101e2b: 84 c0                        	testb	%al, %al
c0101e2d: 74 0a                        	je	0xc0101e39 <strcmp+0x40>
c0101e2f: 83 45 08 01                  	addl	$1, 8(%ebp)
c0101e33: 83 45 0c 01                  	addl	$1, 12(%ebp)
c0101e37: eb cd                        	jmp	0xc0101e06 <strcmp+0xd>
c0101e39: 8b 45 fc                     	movl	-4(%ebp), %eax
c0101e3c: c9                           	leave
c0101e3d: c3                           	retl

c0101e3e <strcpy>:
c0101e3e: 55                           	pushl	%ebp
c0101e3f: 89 e5                        	movl	%esp, %ebp
c0101e41: 90                           	nop
c0101e42: 8b 55 0c                     	movl	12(%ebp), %edx
c0101e45: 8d 42 01                     	leal	1(%edx), %eax
c0101e48: 89 45 0c                     	movl	%eax, 12(%ebp)
c0101e4b: 8b 45 08                     	movl	8(%ebp), %eax
c0101e4e: 8d 48 01                     	leal	1(%eax), %ecx
c0101e51: 89 4d 08                     	movl	%ecx, 8(%ebp)
c0101e54: 0f b6 12                     	movzbl	(%edx), %edx
c0101e57: 88 10                        	movb	%dl, (%eax)
c0101e59: 0f b6 00                     	movzbl	(%eax), %eax
c0101e5c: 84 c0                        	testb	%al, %al
c0101e5e: 75 e2                        	jne	0xc0101e42 <strcpy+0x4>
c0101e60: 90                           	nop
c0101e61: 90                           	nop
c0101e62: 5d                           	popl	%ebp
c0101e63: c3                           	retl

c0101e64 <strcat>:
c0101e64: 55                           	pushl	%ebp
c0101e65: 89 e5                        	movl	%esp, %ebp
c0101e67: eb 04                        	jmp	0xc0101e6d <strcat+0x9>
c0101e69: 83 45 08 01                  	addl	$1, 8(%ebp)
c0101e6d: 8b 45 08                     	movl	8(%ebp), %eax
c0101e70: 0f b6 00                     	movzbl	(%eax), %eax
c0101e73: 84 c0                        	testb	%al, %al
c0101e75: 75 f2                        	jne	0xc0101e69 <strcat+0x5>
c0101e77: 90                           	nop
c0101e78: 8b 55 0c                     	movl	12(%ebp), %edx
c0101e7b: 8d 42 01                     	leal	1(%edx), %eax
c0101e7e: 89 45 0c                     	movl	%eax, 12(%ebp)
c0101e81: 8b 45 08                     	movl	8(%ebp), %eax
c0101e84: 8d 48 01                     	leal	1(%eax), %ecx
c0101e87: 89 4d 08                     	movl	%ecx, 8(%ebp)
c0101e8a: 0f b6 12                     	movzbl	(%edx), %edx
c0101e8d: 88 10                        	movb	%dl, (%eax)
c0101e8f: 0f b6 00                     	movzbl	(%eax), %eax
c0101e92: 84 c0                        	testb	%al, %al
c0101e94: 75 e2                        	jne	0xc0101e78 <strcat+0x14>
c0101e96: 90                           	nop
c0101e97: 90                           	nop
c0101e98: 5d                           	popl	%ebp
c0101e99: c3                           	retl

c0101e9a <strlen>:
c0101e9a: 55                           	pushl	%ebp
c0101e9b: 89 e5                        	movl	%esp, %ebp
c0101e9d: 83 ec 10                     	subl	$16, %esp
c0101ea0: c7 45 fc 00 00 00 00         	movl	$0, -4(%ebp)
c0101ea7: eb 08                        	jmp	0xc0101eb1 <strlen+0x17>
c0101ea9: 83 45 08 01                  	addl	$1, 8(%ebp)
c0101ead: 83 45 fc 01                  	addl	$1, -4(%ebp)
c0101eb1: 8b 45 08                     	movl	8(%ebp), %eax
c0101eb4: 0f b6 00                     	movzbl	(%eax), %eax
c0101eb7: 84 c0                        	testb	%al, %al
c0101eb9: 75 ee                        	jne	0xc0101ea9 <strlen+0xf>
c0101ebb: 8b 45 fc                     	movl	-4(%ebp), %eax
c0101ebe: c9                           	leave
c0101ebf: c3                           	retl

c0101ec0 <mm_init>:
c0101ec0: 55                           	pushl	%ebp
c0101ec1: 89 e5                        	movl	%esp, %ebp
c0101ec3: 83 ec 28                     	subl	$40, %esp
c0101ec6: a1 00 d0 10 c0               	movl	3222327296, %eax
c0101ecb: 8b 40 30                     	movl	48(%eax), %eax
c0101ece: 89 45 e4                     	movl	%eax, -28(%ebp)
c0101ed1: a1 00 d0 10 c0               	movl	3222327296, %eax
c0101ed6: 8b 50 2c                     	movl	44(%eax), %edx
c0101ed9: 89 d0                        	movl	%edx, %eax
c0101edb: 01 c0                        	addl	%eax, %eax
c0101edd: 01 d0                        	addl	%edx, %eax
c0101edf: c1 e0 03                     	shll	$3, %eax
c0101ee2: 89 c2                        	movl	%eax, %edx
c0101ee4: 8b 45 e4                     	movl	-28(%ebp), %eax
c0101ee7: 01 d0                        	addl	%edx, %eax
c0101ee9: 89 45 e0                     	movl	%eax, -32(%ebp)
c0101eec: 8b 45 e4                     	movl	-28(%ebp), %eax
c0101eef: 89 45 ec                     	movl	%eax, -20(%ebp)
c0101ef2: e9 9b 00 00 00               	jmp	0xc0101f92 <mm_init+0xd2>
c0101ef7: 8b 45 ec                     	movl	-20(%ebp), %eax
c0101efa: 8b 40 14                     	movl	20(%eax), %eax
c0101efd: 83 f8 01                     	cmpl	$1, %eax
c0101f00: 0f 85 88 00 00 00            	jne	0xc0101f8e <mm_init+0xce>
c0101f06: 8b 45 ec                     	movl	-20(%ebp), %eax
c0101f09: 8b 40 04                     	movl	4(%eax), %eax
c0101f0c: 3d 00 00 10 00               	cmpl	$1048576, %eax
c0101f11: 75 7b                        	jne	0xc0101f8e <mm_init+0xce>
c0101f13: 8b 45 ec                     	movl	-20(%ebp), %eax
c0101f16: 8b 50 04                     	movl	4(%eax), %edx
c0101f19: b8 00 70 19 c0               	movl	$3222892544, %eax
c0101f1e: 2d 00 00 10 c0               	subl	$3222274048, %eax
c0101f23: 01 d0                        	addl	%edx, %eax
c0101f25: 89 45 f4                     	movl	%eax, -12(%ebp)
c0101f28: 8b 45 f4                     	movl	-12(%ebp), %eax
c0101f2b: 05 00 10 00 00               	addl	$4096, %eax
c0101f30: 25 00 f0 ff ff               	andl	$4294963200, %eax
c0101f35: 89 45 f4                     	movl	%eax, -12(%ebp)
c0101f38: 8b 45 ec                     	movl	-20(%ebp), %eax
c0101f3b: 8b 50 04                     	movl	4(%eax), %edx
c0101f3e: 8b 45 ec                     	movl	-20(%ebp), %eax
c0101f41: 8b 40 0c                     	movl	12(%eax), %eax
c0101f44: 01 d0                        	addl	%edx, %eax
c0101f46: 89 45 f0                     	movl	%eax, -16(%ebp)
c0101f49: 81 65 f0 00 f0 ff ff         	andl	$4294963200, -16(%ebp)
c0101f50: 8b 45 f4                     	movl	-12(%ebp), %eax
c0101f53: 89 45 e8                     	movl	%eax, -24(%ebp)
c0101f56: eb 22                        	jmp	0xc0101f7a <mm_init+0xba>
c0101f58: 83 ec 0c                     	subl	$12, %esp
c0101f5b: ff 75 e8                     	pushl	-24(%ebp)
c0101f5e: e8 ca 00 00 00               	calll	0xc010202d <free_frame>
c0101f63: 83 c4 10                     	addl	$16, %esp
c0101f66: 81 45 e8 00 10 00 00         	addl	$4096, -24(%ebp)
c0101f6d: a1 80 d8 10 c0               	movl	3222329472, %eax
c0101f72: 83 c0 01                     	addl	$1, %eax
c0101f75: a3 80 d8 10 c0               	movl	%eax, 3222329472
c0101f7a: 8b 45 e8                     	movl	-24(%ebp), %eax
c0101f7d: 3b 45 f0                     	cmpl	-16(%ebp), %eax
c0101f80: 73 0c                        	jae	0xc0101f8e <mm_init+0xce>
c0101f82: a1 80 d8 10 c0               	movl	3222329472, %eax
c0101f87: 3d ff ff 01 00               	cmpl	$131071, %eax
c0101f8c: 76 ca                        	jbe	0xc0101f58 <mm_init+0x98>
c0101f8e: 83 45 ec 18                  	addl	$24, -20(%ebp)
c0101f92: 8b 45 ec                     	movl	-20(%ebp), %eax
c0101f95: 3b 45 e0                     	cmpl	-32(%ebp), %eax
c0101f98: 0f 82 59 ff ff ff            	jb	0xc0101ef7 <mm_init+0x37>
c0101f9e: 83 ec 0c                     	subl	$12, %esp
c0101fa1: 68 08 30 10 c0               	pushl	$3222286344
c0101fa6: e8 c6 01 00 00               	calll	0xc0102171 <printk>
c0101fab: 83 c4 10                     	addl	$16, %esp
c0101fae: 83 ec 0c                     	subl	$12, %esp
c0101fb1: 68 59 30 10 c0               	pushl	$3222286425
c0101fb6: e8 b6 01 00 00               	calll	0xc0102171 <printk>
c0101fbb: 83 c4 10                     	addl	$16, %esp
c0101fbe: e8 cf 09 00 00               	calll	0xc0102992 <print_mm_map>
c0101fc3: 83 ec 04                     	subl	$4, %esp
c0101fc6: ff 75 f0                     	pushl	-16(%ebp)
c0101fc9: ff 75 f4                     	pushl	-12(%ebp)
c0101fcc: 68 64 30 10 c0               	pushl	$3222286436
c0101fd1: e8 9b 01 00 00               	calll	0xc0102171 <printk>
c0101fd6: 83 c4 10                     	addl	$16, %esp
c0101fd9: 8b 15 80 d8 10 c0            	movl	-1072637824, %edx
c0101fdf: 8b 45 f0                     	movl	-16(%ebp), %eax
c0101fe2: 2b 45 f4                     	subl	-12(%ebp), %eax
c0101fe5: 83 ec 04                     	subl	$4, %esp
c0101fe8: 52                           	pushl	%edx
c0101fe9: 50                           	pushl	%eax
c0101fea: 68 94 30 10 c0               	pushl	$3222286484
c0101fef: e8 7d 01 00 00               	calll	0xc0102171 <printk>
c0101ff4: 83 c4 10                     	addl	$16, %esp
c0101ff7: 83 ec 0c                     	subl	$12, %esp
c0101ffa: 68 08 30 10 c0               	pushl	$3222286344
c0101fff: e8 6d 01 00 00               	calll	0xc0102171 <printk>
c0102004: 83 c4 10                     	addl	$16, %esp
c0102007: 90                           	nop
c0102008: c9                           	leave
c0102009: c3                           	retl

c010200a <alloc_frame>:
c010200a: 55                           	pushl	%ebp
c010200b: 89 e5                        	movl	%esp, %ebp
c010200d: 83 ec 10                     	subl	$16, %esp
c0102010: a1 04 40 10 c0               	movl	3222290436, %eax
c0102015: 8d 50 ff                     	leal	-1(%eax), %edx
c0102018: 89 15 04 40 10 c0            	movl	%edx, -1072676860
c010201e: 8b 04 85 a0 d8 10 c0         	movl	-1072637792(,%eax,4), %eax
c0102025: 89 45 fc                     	movl	%eax, -4(%ebp)
c0102028: 8b 45 fc                     	movl	-4(%ebp), %eax
c010202b: c9                           	leave
c010202c: c3                           	retl

c010202d <free_frame>:
c010202d: 55                           	pushl	%ebp
c010202e: 89 e5                        	movl	%esp, %ebp
c0102030: 83 ec 08                     	subl	$8, %esp
c0102033: a1 04 40 10 c0               	movl	3222290436, %eax
c0102038: 83 c0 01                     	addl	$1, %eax
c010203b: a3 04 40 10 c0               	movl	%eax, 3222290436
c0102040: a1 04 40 10 c0               	movl	3222290436, %eax
c0102045: 8b 55 08                     	movl	8(%ebp), %edx
c0102048: 89 14 85 a0 d8 10 c0         	movl	%edx, -1072637792(,%eax,4)
c010204f: a1 04 40 10 c0               	movl	3222290436, %eax
c0102054: 3d ff ff 01 00               	cmpl	$131071, %eax
c0102059: 76 10                        	jbe	0xc010206b <free_frame+0x3e>
c010205b: 83 ec 0c                     	subl	$12, %esp
c010205e: 68 bc 30 10 c0               	pushl	$3222286524
c0102063: e8 fa 07 00 00               	calll	0xc0102862 <panic>
c0102068: 83 c4 10                     	addl	$16, %esp
c010206b: 90                           	nop
c010206c: c9                           	leave
c010206d: c3                           	retl

c010206e <register_intr_handler>:
c010206e: 55                           	pushl	%ebp
c010206f: 89 e5                        	movl	%esp, %ebp
c0102071: 83 ec 04                     	subl	$4, %esp
c0102074: 8b 45 08                     	movl	8(%ebp), %eax
c0102077: 88 45 fc                     	movb	%al, -4(%ebp)
c010207a: 0f b6 45 fc                  	movzbl	-4(%ebp), %eax
c010207e: 8b 55 0c                     	movl	12(%ebp), %edx
c0102081: 89 14 85 c0 d8 18 c0         	movl	%edx, -1072113472(,%eax,4)
c0102088: 90                           	nop
c0102089: c9                           	leave
c010208a: c3                           	retl

c010208b <isr_handler>:
c010208b: 55                           	pushl	%ebp
c010208c: 89 e5                        	movl	%esp, %ebp
c010208e: 83 ec 18                     	subl	$24, %esp
c0102091: 8b 45 08                     	movl	8(%ebp), %eax
c0102094: 8b 40 24                     	movl	36(%eax), %eax
c0102097: 89 45 f4                     	movl	%eax, -12(%ebp)
c010209a: 8b 45 f4                     	movl	-12(%ebp), %eax
c010209d: 8b 04 85 c0 d8 18 c0         	movl	-1072113472(,%eax,4), %eax
c01020a4: 85 c0                        	testl	%eax, %eax
c01020a6: 74 17                        	je	0xc01020bf <isr_handler+0x34>
c01020a8: 8b 45 f4                     	movl	-12(%ebp), %eax
c01020ab: 8b 04 85 c0 d8 18 c0         	movl	-1072113472(,%eax,4), %eax
c01020b2: 83 ec 0c                     	subl	$12, %esp
c01020b5: ff 75 08                     	pushl	8(%ebp)
c01020b8: ff d0                        	calll	*%eax
c01020ba: 83 c4 10                     	addl	$16, %esp
c01020bd: eb 13                        	jmp	0xc01020d2 <isr_handler+0x47>
c01020bf: 83 ec 08                     	subl	$8, %esp
c01020c2: ff 75 f4                     	pushl	-12(%ebp)
c01020c5: 68 e7 30 10 c0               	pushl	$3222286567
c01020ca: e8 a2 00 00 00               	calll	0xc0102171 <printk>
c01020cf: 83 c4 10                     	addl	$16, %esp
c01020d2: 90                           	nop
c01020d3: c9                           	leave
c01020d4: c3                           	retl

c01020d5 <irq_handler>:
c01020d5: 55                           	pushl	%ebp
c01020d6: 89 e5                        	movl	%esp, %ebp
c01020d8: 83 ec 18                     	subl	$24, %esp
c01020db: 8b 45 08                     	movl	8(%ebp), %eax
c01020de: 8b 40 24                     	movl	36(%eax), %eax
c01020e1: 89 45 f4                     	movl	%eax, -12(%ebp)
c01020e4: 83 ec 0c                     	subl	$12, %esp
c01020e7: ff 75 f4                     	pushl	-12(%ebp)
c01020ea: e8 35 f8 ff ff               	calll	0xc0101924 <clear_irq>
c01020ef: 83 c4 10                     	addl	$16, %esp
c01020f2: 8b 45 f4                     	movl	-12(%ebp), %eax
c01020f5: 8b 04 85 c0 d8 18 c0         	movl	-1072113472(,%eax,4), %eax
c01020fc: 85 c0                        	testl	%eax, %eax
c01020fe: 74 17                        	je	0xc0102117 <irq_handler+0x42>
c0102100: 8b 45 f4                     	movl	-12(%ebp), %eax
c0102103: 8b 04 85 c0 d8 18 c0         	movl	-1072113472(,%eax,4), %eax
c010210a: 83 ec 0c                     	subl	$12, %esp
c010210d: ff 75 08                     	pushl	8(%ebp)
c0102110: ff d0                        	calll	*%eax
c0102112: 83 c4 10                     	addl	$16, %esp
c0102115: eb 13                        	jmp	0xc010212a <irq_handler+0x55>
c0102117: 83 ec 08                     	subl	$8, %esp
c010211a: ff 75 f4                     	pushl	-12(%ebp)
c010211d: 68 e7 30 10 c0               	pushl	$3222286567
c0102122: e8 4a 00 00 00               	calll	0xc0102171 <printk>
c0102127: 83 c4 10                     	addl	$16, %esp
c010212a: 90                           	nop
c010212b: c9                           	leave
c010212c: c3                           	retl

c010212d <cprintk>:
c010212d: 55                           	pushl	%ebp
c010212e: 89 e5                        	movl	%esp, %ebp
c0102130: 83 ec 18                     	subl	$24, %esp
c0102133: 8d 45 0c                     	leal	12(%ebp), %eax
c0102136: 89 45 f0                     	movl	%eax, -16(%ebp)
c0102139: 8b 45 f0                     	movl	-16(%ebp), %eax
c010213c: 83 ec 04                     	subl	$4, %esp
c010213f: 50                           	pushl	%eax
c0102140: ff 75 08                     	pushl	8(%ebp)
c0102143: 68 c0 dc 18 c0               	pushl	$3222854848
c0102148: e8 e8 02 00 00               	calll	0xc0102435 <vsprintf>
c010214d: 83 c4 10                     	addl	$16, %esp
c0102150: 89 45 f4                     	movl	%eax, -12(%ebp)
c0102153: 8b 45 f4                     	movl	-12(%ebp), %eax
c0102156: 05 c0 dc 18 c0               	addl	$3222854848, %eax
c010215b: c6 00 00                     	movb	$0, (%eax)
c010215e: 83 ec 0c                     	subl	$12, %esp
c0102161: 68 c0 dc 18 c0               	pushl	$3222854848
c0102166: e8 02 fb ff ff               	calll	0xc0101c6d <console_write>
c010216b: 83 c4 10                     	addl	$16, %esp
c010216e: 90                           	nop
c010216f: c9                           	leave
c0102170: c3                           	retl

c0102171 <printk>:
c0102171: 55                           	pushl	%ebp
c0102172: 89 e5                        	movl	%esp, %ebp
c0102174: 83 ec 18                     	subl	$24, %esp
c0102177: 8d 45 0c                     	leal	12(%ebp), %eax
c010217a: 89 45 f0                     	movl	%eax, -16(%ebp)
c010217d: 8b 45 f0                     	movl	-16(%ebp), %eax
c0102180: 83 ec 04                     	subl	$4, %esp
c0102183: 50                           	pushl	%eax
c0102184: ff 75 08                     	pushl	8(%ebp)
c0102187: 68 c0 e0 18 c0               	pushl	$3222855872
c010218c: e8 a4 02 00 00               	calll	0xc0102435 <vsprintf>
c0102191: 83 c4 10                     	addl	$16, %esp
c0102194: 89 45 f4                     	movl	%eax, -12(%ebp)
c0102197: 8b 45 f4                     	movl	-12(%ebp), %eax
c010219a: 05 c0 e0 18 c0               	addl	$3222855872, %eax
c010219f: c6 00 00                     	movb	$0, (%eax)
c01021a2: 83 ec 0c                     	subl	$12, %esp
c01021a5: 68 c0 e0 18 c0               	pushl	$3222855872
c01021aa: e8 be fa ff ff               	calll	0xc0101c6d <console_write>
c01021af: 83 c4 10                     	addl	$16, %esp
c01021b2: 90                           	nop
c01021b3: c9                           	leave
c01021b4: c3                           	retl

c01021b5 <skip_atoi>:
c01021b5: 55                           	pushl	%ebp
c01021b6: 89 e5                        	movl	%esp, %ebp
c01021b8: 53                           	pushl	%ebx
c01021b9: 83 ec 10                     	subl	$16, %esp
c01021bc: c7 45 f8 00 00 00 00         	movl	$0, -8(%ebp)
c01021c3: eb 29                        	jmp	0xc01021ee <skip_atoi+0x39>
c01021c5: 8b 55 f8                     	movl	-8(%ebp), %edx
c01021c8: 89 d0                        	movl	%edx, %eax
c01021ca: c1 e0 02                     	shll	$2, %eax
c01021cd: 01 d0                        	addl	%edx, %eax
c01021cf: 01 c0                        	addl	%eax, %eax
c01021d1: 89 c3                        	movl	%eax, %ebx
c01021d3: 8b 45 08                     	movl	8(%ebp), %eax
c01021d6: 8b 00                        	movl	(%eax), %eax
c01021d8: 8d 48 01                     	leal	1(%eax), %ecx
c01021db: 8b 55 08                     	movl	8(%ebp), %edx
c01021de: 89 0a                        	movl	%ecx, (%edx)
c01021e0: 0f b6 00                     	movzbl	(%eax), %eax
c01021e3: 0f be c0                     	movsbl	%al, %eax
c01021e6: 01 d8                        	addl	%ebx, %eax
c01021e8: 83 e8 30                     	subl	$48, %eax
c01021eb: 89 45 f8                     	movl	%eax, -8(%ebp)
c01021ee: 8b 45 08                     	movl	8(%ebp), %eax
c01021f1: 8b 00                        	movl	(%eax), %eax
c01021f3: 0f b6 00                     	movzbl	(%eax), %eax
c01021f6: 3c 2f                        	cmpb	$47, %al
c01021f8: 7e 0c                        	jle	0xc0102206 <skip_atoi+0x51>
c01021fa: 8b 45 08                     	movl	8(%ebp), %eax
c01021fd: 8b 00                        	movl	(%eax), %eax
c01021ff: 0f b6 00                     	movzbl	(%eax), %eax
c0102202: 3c 39                        	cmpb	$57, %al
c0102204: 7e bf                        	jle	0xc01021c5 <skip_atoi+0x10>
c0102206: 8b 45 f8                     	movl	-8(%ebp), %eax
c0102209: 8b 5d fc                     	movl	-4(%ebp), %ebx
c010220c: c9                           	leave
c010220d: c3                           	retl

c010220e <number>:
c010220e: 55                           	pushl	%ebp
c010220f: 89 e5                        	movl	%esp, %ebp
c0102211: 83 ec 40                     	subl	$64, %esp
c0102214: c7 45 f8 00 31 10 c0         	movl	$3222286592, -8(%ebp)
c010221b: 8b 45 1c                     	movl	28(%ebp), %eax
c010221e: 83 e0 40                     	andl	$64, %eax
c0102221: 85 c0                        	testl	%eax, %eax
c0102223: 74 07                        	je	0xc010222c <number+0x1e>
c0102225: c7 45 f8 28 31 10 c0         	movl	$3222286632, -8(%ebp)
c010222c: 8b 45 1c                     	movl	28(%ebp), %eax
c010222f: 83 e0 10                     	andl	$16, %eax
c0102232: 85 c0                        	testl	%eax, %eax
c0102234: 74 04                        	je	0xc010223a <number+0x2c>
c0102236: 83 65 1c fe                  	andl	$-2, 28(%ebp)
c010223a: 83 7d 10 01                  	cmpl	$1, 16(%ebp)
c010223e: 7e 06                        	jle	0xc0102246 <number+0x38>
c0102240: 83 7d 10 24                  	cmpl	$36, 16(%ebp)
c0102244: 7e 0a                        	jle	0xc0102250 <number+0x42>
c0102246: b8 00 00 00 00               	movl	$0, %eax
c010224b: e9 e3 01 00 00               	jmp	0xc0102433 <number+0x225>
c0102250: 8b 45 1c                     	movl	28(%ebp), %eax
c0102253: 83 e0 01                     	andl	$1, %eax
c0102256: 85 c0                        	testl	%eax, %eax
c0102258: 74 07                        	je	0xc0102261 <number+0x53>
c010225a: b8 30 00 00 00               	movl	$48, %eax
c010225f: eb 05                        	jmp	0xc0102266 <number+0x58>
c0102261: b8 20 00 00 00               	movl	$32, %eax
c0102266: 88 45 f3                     	movb	%al, -13(%ebp)
c0102269: 8b 45 1c                     	movl	28(%ebp), %eax
c010226c: 83 e0 02                     	andl	$2, %eax
c010226f: 85 c0                        	testl	%eax, %eax
c0102271: 74 0f                        	je	0xc0102282 <number+0x74>
c0102273: 83 7d 0c 00                  	cmpl	$0, 12(%ebp)
c0102277: 79 09                        	jns	0xc0102282 <number+0x74>
c0102279: c6 45 ff 2d                  	movb	$45, -1(%ebp)
c010227d: f7 5d 0c                     	negl	12(%ebp)
c0102280: eb 1d                        	jmp	0xc010229f <number+0x91>
c0102282: 8b 45 1c                     	movl	28(%ebp), %eax
c0102285: 83 e0 04                     	andl	$4, %eax
c0102288: 85 c0                        	testl	%eax, %eax
c010228a: 75 0b                        	jne	0xc0102297 <number+0x89>
c010228c: 8b 45 1c                     	movl	28(%ebp), %eax
c010228f: c1 e0 02                     	shll	$2, %eax
c0102292: 83 e0 20                     	andl	$32, %eax
c0102295: eb 05                        	jmp	0xc010229c <number+0x8e>
c0102297: b8 2b 00 00 00               	movl	$43, %eax
c010229c: 88 45 ff                     	movb	%al, -1(%ebp)
c010229f: 80 7d ff 00                  	cmpb	$0, -1(%ebp)
c01022a3: 74 04                        	je	0xc01022a9 <number+0x9b>
c01022a5: 83 6d 14 01                  	subl	$1, 20(%ebp)
c01022a9: 8b 45 1c                     	movl	28(%ebp), %eax
c01022ac: 83 e0 20                     	andl	$32, %eax
c01022af: 85 c0                        	testl	%eax, %eax
c01022b1: 74 16                        	je	0xc01022c9 <number+0xbb>
c01022b3: 83 7d 10 10                  	cmpl	$16, 16(%ebp)
c01022b7: 75 06                        	jne	0xc01022bf <number+0xb1>
c01022b9: 83 6d 14 02                  	subl	$2, 20(%ebp)
c01022bd: eb 0a                        	jmp	0xc01022c9 <number+0xbb>
c01022bf: 83 7d 10 08                  	cmpl	$8, 16(%ebp)
c01022c3: 75 04                        	jne	0xc01022c9 <number+0xbb>
c01022c5: 83 6d 14 01                  	subl	$1, 20(%ebp)
c01022c9: c7 45 f4 00 00 00 00         	movl	$0, -12(%ebp)
c01022d0: 83 7d 0c 00                  	cmpl	$0, 12(%ebp)
c01022d4: 75 3e                        	jne	0xc0102314 <number+0x106>
c01022d6: 8b 45 f4                     	movl	-12(%ebp), %eax
c01022d9: 8d 50 01                     	leal	1(%eax), %edx
c01022dc: 89 55 f4                     	movl	%edx, -12(%ebp)
c01022df: c6 44 05 c8 30               	movb	$48, -56(%ebp,%eax)
c01022e4: eb 34                        	jmp	0xc010231a <number+0x10c>
c01022e6: 8b 45 0c                     	movl	12(%ebp), %eax
c01022e9: ba 00 00 00 00               	movl	$0, %edx
c01022ee: 8b 4d 10                     	movl	16(%ebp), %ecx
c01022f1: f7 f1                        	divl	%ecx
c01022f3: 89 45 0c                     	movl	%eax, 12(%ebp)
c01022f6: 89 55 ec                     	movl	%edx, -20(%ebp)
c01022f9: 8b 45 ec                     	movl	-20(%ebp), %eax
c01022fc: 89 c2                        	movl	%eax, %edx
c01022fe: 8b 45 f8                     	movl	-8(%ebp), %eax
c0102301: 8d 0c 02                     	leal	(%edx,%eax), %ecx
c0102304: 8b 45 f4                     	movl	-12(%ebp), %eax
c0102307: 8d 50 01                     	leal	1(%eax), %edx
c010230a: 89 55 f4                     	movl	%edx, -12(%ebp)
c010230d: 0f b6 11                     	movzbl	(%ecx), %edx
c0102310: 88 54 05 c8                  	movb	%dl, -56(%ebp,%eax)
c0102314: 83 7d 0c 00                  	cmpl	$0, 12(%ebp)
c0102318: 75 cc                        	jne	0xc01022e6 <number+0xd8>
c010231a: 8b 45 f4                     	movl	-12(%ebp), %eax
c010231d: 3b 45 18                     	cmpl	24(%ebp), %eax
c0102320: 7e 06                        	jle	0xc0102328 <number+0x11a>
c0102322: 8b 45 f4                     	movl	-12(%ebp), %eax
c0102325: 89 45 18                     	movl	%eax, 24(%ebp)
c0102328: 8b 45 18                     	movl	24(%ebp), %eax
c010232b: 29 45 14                     	subl	%eax, 20(%ebp)
c010232e: 8b 45 1c                     	movl	28(%ebp), %eax
c0102331: 83 e0 11                     	andl	$17, %eax
c0102334: 85 c0                        	testl	%eax, %eax
c0102336: 75 1b                        	jne	0xc0102353 <number+0x145>
c0102338: eb 0c                        	jmp	0xc0102346 <number+0x138>
c010233a: 8b 45 08                     	movl	8(%ebp), %eax
c010233d: 8d 50 01                     	leal	1(%eax), %edx
c0102340: 89 55 08                     	movl	%edx, 8(%ebp)
c0102343: c6 00 20                     	movb	$32, (%eax)
c0102346: 8b 45 14                     	movl	20(%ebp), %eax
c0102349: 8d 50 ff                     	leal	-1(%eax), %edx
c010234c: 89 55 14                     	movl	%edx, 20(%ebp)
c010234f: 85 c0                        	testl	%eax, %eax
c0102351: 7f e7                        	jg	0xc010233a <number+0x12c>
c0102353: 80 7d ff 00                  	cmpb	$0, -1(%ebp)
c0102357: 74 0f                        	je	0xc0102368 <number+0x15a>
c0102359: 8b 45 08                     	movl	8(%ebp), %eax
c010235c: 8d 50 01                     	leal	1(%eax), %edx
c010235f: 89 55 08                     	movl	%edx, 8(%ebp)
c0102362: 0f b6 55 ff                  	movzbl	-1(%ebp), %edx
c0102366: 88 10                        	movb	%dl, (%eax)
c0102368: 8b 45 1c                     	movl	28(%ebp), %eax
c010236b: 83 e0 20                     	andl	$32, %eax
c010236e: 85 c0                        	testl	%eax, %eax
c0102370: 74 3a                        	je	0xc01023ac <number+0x19e>
c0102372: 83 7d 10 08                  	cmpl	$8, 16(%ebp)
c0102376: 75 0e                        	jne	0xc0102386 <number+0x178>
c0102378: 8b 45 08                     	movl	8(%ebp), %eax
c010237b: 8d 50 01                     	leal	1(%eax), %edx
c010237e: 89 55 08                     	movl	%edx, 8(%ebp)
c0102381: c6 00 30                     	movb	$48, (%eax)
c0102384: eb 26                        	jmp	0xc01023ac <number+0x19e>
c0102386: 83 7d 10 10                  	cmpl	$16, 16(%ebp)
c010238a: 75 20                        	jne	0xc01023ac <number+0x19e>
c010238c: 8b 45 08                     	movl	8(%ebp), %eax
c010238f: 8d 50 01                     	leal	1(%eax), %edx
c0102392: 89 55 08                     	movl	%edx, 8(%ebp)
c0102395: c6 00 30                     	movb	$48, (%eax)
c0102398: 8b 45 f8                     	movl	-8(%ebp), %eax
c010239b: 8d 48 21                     	leal	33(%eax), %ecx
c010239e: 8b 45 08                     	movl	8(%ebp), %eax
c01023a1: 8d 50 01                     	leal	1(%eax), %edx
c01023a4: 89 55 08                     	movl	%edx, 8(%ebp)
c01023a7: 0f b6 11                     	movzbl	(%ecx), %edx
c01023aa: 88 10                        	movb	%dl, (%eax)
c01023ac: 8b 45 1c                     	movl	28(%ebp), %eax
c01023af: 83 e0 10                     	andl	$16, %eax
c01023b2: 85 c0                        	testl	%eax, %eax
c01023b4: 75 2c                        	jne	0xc01023e2 <number+0x1d4>
c01023b6: eb 0f                        	jmp	0xc01023c7 <number+0x1b9>
c01023b8: 8b 45 08                     	movl	8(%ebp), %eax
c01023bb: 8d 50 01                     	leal	1(%eax), %edx
c01023be: 89 55 08                     	movl	%edx, 8(%ebp)
c01023c1: 0f b6 55 f3                  	movzbl	-13(%ebp), %edx
c01023c5: 88 10                        	movb	%dl, (%eax)
c01023c7: 8b 45 14                     	movl	20(%ebp), %eax
c01023ca: 8d 50 ff                     	leal	-1(%eax), %edx
c01023cd: 89 55 14                     	movl	%edx, 20(%ebp)
c01023d0: 85 c0                        	testl	%eax, %eax
c01023d2: 7f e4                        	jg	0xc01023b8 <number+0x1aa>
c01023d4: eb 0c                        	jmp	0xc01023e2 <number+0x1d4>
c01023d6: 8b 45 08                     	movl	8(%ebp), %eax
c01023d9: 8d 50 01                     	leal	1(%eax), %edx
c01023dc: 89 55 08                     	movl	%edx, 8(%ebp)
c01023df: c6 00 30                     	movb	$48, (%eax)
c01023e2: 8b 45 18                     	movl	24(%ebp), %eax
c01023e5: 8d 50 ff                     	leal	-1(%eax), %edx
c01023e8: 89 55 18                     	movl	%edx, 24(%ebp)
c01023eb: 39 45 f4                     	cmpl	%eax, -12(%ebp)
c01023ee: 7c e6                        	jl	0xc01023d6 <number+0x1c8>
c01023f0: eb 16                        	jmp	0xc0102408 <number+0x1fa>
c01023f2: 8b 45 08                     	movl	8(%ebp), %eax
c01023f5: 8d 50 01                     	leal	1(%eax), %edx
c01023f8: 89 55 08                     	movl	%edx, 8(%ebp)
c01023fb: 8d 4d c8                     	leal	-56(%ebp), %ecx
c01023fe: 8b 55 f4                     	movl	-12(%ebp), %edx
c0102401: 01 ca                        	addl	%ecx, %edx
c0102403: 0f b6 12                     	movzbl	(%edx), %edx
c0102406: 88 10                        	movb	%dl, (%eax)
c0102408: 8b 45 f4                     	movl	-12(%ebp), %eax
c010240b: 8d 50 ff                     	leal	-1(%eax), %edx
c010240e: 89 55 f4                     	movl	%edx, -12(%ebp)
c0102411: 85 c0                        	testl	%eax, %eax
c0102413: 7f dd                        	jg	0xc01023f2 <number+0x1e4>
c0102415: eb 0c                        	jmp	0xc0102423 <number+0x215>
c0102417: 8b 45 08                     	movl	8(%ebp), %eax
c010241a: 8d 50 01                     	leal	1(%eax), %edx
c010241d: 89 55 08                     	movl	%edx, 8(%ebp)
c0102420: c6 00 20                     	movb	$32, (%eax)
c0102423: 8b 45 14                     	movl	20(%ebp), %eax
c0102426: 8d 50 ff                     	leal	-1(%eax), %edx
c0102429: 89 55 14                     	movl	%edx, 20(%ebp)
c010242c: 85 c0                        	testl	%eax, %eax
c010242e: 7f e7                        	jg	0xc0102417 <number+0x209>
c0102430: 8b 45 08                     	movl	8(%ebp), %eax
c0102433: c9                           	leave
c0102434: c3                           	retl

c0102435 <vsprintf>:
c0102435: 55                           	pushl	%ebp
c0102436: 89 e5                        	movl	%esp, %ebp
c0102438: 83 ec 28                     	subl	$40, %esp
c010243b: 8b 45 08                     	movl	8(%ebp), %eax
c010243e: 89 45 ec                     	movl	%eax, -20(%ebp)
c0102441: e9 c1 03 00 00               	jmp	0xc0102807 <vsprintf+0x3d2>
c0102446: 8b 45 0c                     	movl	12(%ebp), %eax
c0102449: 0f b6 00                     	movzbl	(%eax), %eax
c010244c: 3c 25                        	cmpb	$37, %al
c010244e: 74 16                        	je	0xc0102466 <vsprintf+0x31>
c0102450: 8b 55 0c                     	movl	12(%ebp), %edx
c0102453: 8b 45 ec                     	movl	-20(%ebp), %eax
c0102456: 8d 48 01                     	leal	1(%eax), %ecx
c0102459: 89 4d ec                     	movl	%ecx, -20(%ebp)
c010245c: 0f b6 12                     	movzbl	(%edx), %edx
c010245f: 88 10                        	movb	%dl, (%eax)
c0102461: e9 98 03 00 00               	jmp	0xc01027fe <vsprintf+0x3c9>
c0102466: c7 45 e4 00 00 00 00         	movl	$0, -28(%ebp)
c010246d: 8b 45 0c                     	movl	12(%ebp), %eax
c0102470: 83 c0 01                     	addl	$1, %eax
c0102473: 89 45 0c                     	movl	%eax, 12(%ebp)
c0102476: 8b 45 0c                     	movl	12(%ebp), %eax
c0102479: 0f b6 00                     	movzbl	(%eax), %eax
c010247c: 0f be c0                     	movsbl	%al, %eax
c010247f: 83 e8 20                     	subl	$32, %eax
c0102482: 83 f8 10                     	cmpl	$16, %eax
c0102485: 77 27                        	ja	0xc01024ae <vsprintf+0x79>
c0102487: 8b 04 85 50 31 10 c0         	movl	-1072680624(,%eax,4), %eax
c010248e: ff e0                        	jmpl	*%eax
c0102490: 83 4d e4 10                  	orl	$16, -28(%ebp)
c0102494: eb d7                        	jmp	0xc010246d <vsprintf+0x38>
c0102496: 83 4d e4 04                  	orl	$4, -28(%ebp)
c010249a: eb d1                        	jmp	0xc010246d <vsprintf+0x38>
c010249c: 83 4d e4 08                  	orl	$8, -28(%ebp)
c01024a0: eb cb                        	jmp	0xc010246d <vsprintf+0x38>
c01024a2: 83 4d e4 20                  	orl	$32, -28(%ebp)
c01024a6: eb c5                        	jmp	0xc010246d <vsprintf+0x38>
c01024a8: 83 4d e4 01                  	orl	$1, -28(%ebp)
c01024ac: eb bf                        	jmp	0xc010246d <vsprintf+0x38>
c01024ae: c7 45 e0 ff ff ff ff         	movl	$4294967295, -32(%ebp)
c01024b5: 8b 45 0c                     	movl	12(%ebp), %eax
c01024b8: 0f b6 00                     	movzbl	(%eax), %eax
c01024bb: 3c 2f                        	cmpb	$47, %al
c01024bd: 7e 1b                        	jle	0xc01024da <vsprintf+0xa5>
c01024bf: 8b 45 0c                     	movl	12(%ebp), %eax
c01024c2: 0f b6 00                     	movzbl	(%eax), %eax
c01024c5: 3c 39                        	cmpb	$57, %al
c01024c7: 7f 11                        	jg	0xc01024da <vsprintf+0xa5>
c01024c9: 8d 45 0c                     	leal	12(%ebp), %eax
c01024cc: 50                           	pushl	%eax
c01024cd: e8 e3 fc ff ff               	calll	0xc01021b5 <skip_atoi>
c01024d2: 83 c4 04                     	addl	$4, %esp
c01024d5: 89 45 e0                     	movl	%eax, -32(%ebp)
c01024d8: eb 25                        	jmp	0xc01024ff <vsprintf+0xca>
c01024da: 8b 45 0c                     	movl	12(%ebp), %eax
c01024dd: 0f b6 00                     	movzbl	(%eax), %eax
c01024e0: 3c 2a                        	cmpb	$42, %al
c01024e2: 75 1b                        	jne	0xc01024ff <vsprintf+0xca>
c01024e4: 8b 45 10                     	movl	16(%ebp), %eax
c01024e7: 8d 50 04                     	leal	4(%eax), %edx
c01024ea: 89 55 10                     	movl	%edx, 16(%ebp)
c01024ed: 8b 00                        	movl	(%eax), %eax
c01024ef: 89 45 e0                     	movl	%eax, -32(%ebp)
c01024f2: 83 7d e0 00                  	cmpl	$0, -32(%ebp)
c01024f6: 79 07                        	jns	0xc01024ff <vsprintf+0xca>
c01024f8: f7 5d e0                     	negl	-32(%ebp)
c01024fb: 83 4d e4 10                  	orl	$16, -28(%ebp)
c01024ff: c7 45 dc ff ff ff ff         	movl	$4294967295, -36(%ebp)
c0102506: 8b 45 0c                     	movl	12(%ebp), %eax
c0102509: 0f b6 00                     	movzbl	(%eax), %eax
c010250c: 3c 2e                        	cmpb	$46, %al
c010250e: 75 53                        	jne	0xc0102563 <vsprintf+0x12e>
c0102510: 8b 45 0c                     	movl	12(%ebp), %eax
c0102513: 83 c0 01                     	addl	$1, %eax
c0102516: 89 45 0c                     	movl	%eax, 12(%ebp)
c0102519: 8b 45 0c                     	movl	12(%ebp), %eax
c010251c: 0f b6 00                     	movzbl	(%eax), %eax
c010251f: 3c 2f                        	cmpb	$47, %al
c0102521: 7e 1b                        	jle	0xc010253e <vsprintf+0x109>
c0102523: 8b 45 0c                     	movl	12(%ebp), %eax
c0102526: 0f b6 00                     	movzbl	(%eax), %eax
c0102529: 3c 39                        	cmpb	$57, %al
c010252b: 7f 11                        	jg	0xc010253e <vsprintf+0x109>
c010252d: 8d 45 0c                     	leal	12(%ebp), %eax
c0102530: 50                           	pushl	%eax
c0102531: e8 7f fc ff ff               	calll	0xc01021b5 <skip_atoi>
c0102536: 83 c4 04                     	addl	$4, %esp
c0102539: 89 45 dc                     	movl	%eax, -36(%ebp)
c010253c: eb 18                        	jmp	0xc0102556 <vsprintf+0x121>
c010253e: 8b 45 0c                     	movl	12(%ebp), %eax
c0102541: 0f b6 00                     	movzbl	(%eax), %eax
c0102544: 3c 2a                        	cmpb	$42, %al
c0102546: 75 0e                        	jne	0xc0102556 <vsprintf+0x121>
c0102548: 8b 45 10                     	movl	16(%ebp), %eax
c010254b: 8d 50 04                     	leal	4(%eax), %edx
c010254e: 89 55 10                     	movl	%edx, 16(%ebp)
c0102551: 8b 00                        	movl	(%eax), %eax
c0102553: 89 45 dc                     	movl	%eax, -36(%ebp)
c0102556: 83 7d dc 00                  	cmpl	$0, -36(%ebp)
c010255a: 79 07                        	jns	0xc0102563 <vsprintf+0x12e>
c010255c: c7 45 dc 00 00 00 00         	movl	$0, -36(%ebp)
c0102563: 8b 45 0c                     	movl	12(%ebp), %eax
c0102566: 0f b6 00                     	movzbl	(%eax), %eax
c0102569: 3c 68                        	cmpb	$104, %al
c010256b: 74 14                        	je	0xc0102581 <vsprintf+0x14c>
c010256d: 8b 45 0c                     	movl	12(%ebp), %eax
c0102570: 0f b6 00                     	movzbl	(%eax), %eax
c0102573: 3c 6c                        	cmpb	$108, %al
c0102575: 74 0a                        	je	0xc0102581 <vsprintf+0x14c>
c0102577: 8b 45 0c                     	movl	12(%ebp), %eax
c010257a: 0f b6 00                     	movzbl	(%eax), %eax
c010257d: 3c 4c                        	cmpb	$76, %al
c010257f: 75 09                        	jne	0xc010258a <vsprintf+0x155>
c0102581: 8b 45 0c                     	movl	12(%ebp), %eax
c0102584: 83 c0 01                     	addl	$1, %eax
c0102587: 89 45 0c                     	movl	%eax, 12(%ebp)
c010258a: 8b 45 0c                     	movl	12(%ebp), %eax
c010258d: 0f b6 00                     	movzbl	(%eax), %eax
c0102590: 0f be c0                     	movsbl	%al, %eax
c0102593: 83 e8 58                     	subl	$88, %eax
c0102596: 83 f8 20                     	cmpl	$32, %eax
c0102599: 0f 87 22 02 00 00            	ja	0xc01027c1 <vsprintf+0x38c>
c010259f: 8b 04 85 94 31 10 c0         	movl	-1072680556(,%eax,4), %eax
c01025a6: ff e0                        	jmpl	*%eax
c01025a8: 8b 45 e4                     	movl	-28(%ebp), %eax
c01025ab: 83 e0 10                     	andl	$16, %eax
c01025ae: 85 c0                        	testl	%eax, %eax
c01025b0: 75 18                        	jne	0xc01025ca <vsprintf+0x195>
c01025b2: eb 0c                        	jmp	0xc01025c0 <vsprintf+0x18b>
c01025b4: 8b 45 ec                     	movl	-20(%ebp), %eax
c01025b7: 8d 50 01                     	leal	1(%eax), %edx
c01025ba: 89 55 ec                     	movl	%edx, -20(%ebp)
c01025bd: c6 00 20                     	movb	$32, (%eax)
c01025c0: 83 6d e0 01                  	subl	$1, -32(%ebp)
c01025c4: 83 7d e0 00                  	cmpl	$0, -32(%ebp)
c01025c8: 7f ea                        	jg	0xc01025b4 <vsprintf+0x17f>
c01025ca: 8b 45 10                     	movl	16(%ebp), %eax
c01025cd: 8d 50 04                     	leal	4(%eax), %edx
c01025d0: 89 55 10                     	movl	%edx, 16(%ebp)
c01025d3: 8b 08                        	movl	(%eax), %ecx
c01025d5: 8b 45 ec                     	movl	-20(%ebp), %eax
c01025d8: 8d 50 01                     	leal	1(%eax), %edx
c01025db: 89 55 ec                     	movl	%edx, -20(%ebp)
c01025de: 89 ca                        	movl	%ecx, %edx
c01025e0: 88 10                        	movb	%dl, (%eax)
c01025e2: eb 0c                        	jmp	0xc01025f0 <vsprintf+0x1bb>
c01025e4: 8b 45 ec                     	movl	-20(%ebp), %eax
c01025e7: 8d 50 01                     	leal	1(%eax), %edx
c01025ea: 89 55 ec                     	movl	%edx, -20(%ebp)
c01025ed: c6 00 20                     	movb	$32, (%eax)
c01025f0: 83 6d e0 01                  	subl	$1, -32(%ebp)
c01025f4: 83 7d e0 00                  	cmpl	$0, -32(%ebp)
c01025f8: 7f ea                        	jg	0xc01025e4 <vsprintf+0x1af>
c01025fa: e9 ff 01 00 00               	jmp	0xc01027fe <vsprintf+0x3c9>
c01025ff: 8b 45 10                     	movl	16(%ebp), %eax
c0102602: 8d 50 04                     	leal	4(%eax), %edx
c0102605: 89 55 10                     	movl	%edx, 16(%ebp)
c0102608: 8b 00                        	movl	(%eax), %eax
c010260a: 89 45 e8                     	movl	%eax, -24(%ebp)
c010260d: 83 ec 0c                     	subl	$12, %esp
c0102610: ff 75 e8                     	pushl	-24(%ebp)
c0102613: e8 82 f8 ff ff               	calll	0xc0101e9a <strlen>
c0102618: 83 c4 10                     	addl	$16, %esp
c010261b: 89 45 f4                     	movl	%eax, -12(%ebp)
c010261e: 83 7d dc 00                  	cmpl	$0, -36(%ebp)
c0102622: 79 08                        	jns	0xc010262c <vsprintf+0x1f7>
c0102624: 8b 45 f4                     	movl	-12(%ebp), %eax
c0102627: 89 45 dc                     	movl	%eax, -36(%ebp)
c010262a: eb 0e                        	jmp	0xc010263a <vsprintf+0x205>
c010262c: 8b 45 f4                     	movl	-12(%ebp), %eax
c010262f: 3b 45 dc                     	cmpl	-36(%ebp), %eax
c0102632: 7e 06                        	jle	0xc010263a <vsprintf+0x205>
c0102634: 8b 45 dc                     	movl	-36(%ebp), %eax
c0102637: 89 45 f4                     	movl	%eax, -12(%ebp)
c010263a: 8b 45 e4                     	movl	-28(%ebp), %eax
c010263d: 83 e0 10                     	andl	$16, %eax
c0102640: 85 c0                        	testl	%eax, %eax
c0102642: 75 1c                        	jne	0xc0102660 <vsprintf+0x22b>
c0102644: eb 0c                        	jmp	0xc0102652 <vsprintf+0x21d>
c0102646: 8b 45 ec                     	movl	-20(%ebp), %eax
c0102649: 8d 50 01                     	leal	1(%eax), %edx
c010264c: 89 55 ec                     	movl	%edx, -20(%ebp)
c010264f: c6 00 20                     	movb	$32, (%eax)
c0102652: 8b 45 e0                     	movl	-32(%ebp), %eax
c0102655: 8d 50 ff                     	leal	-1(%eax), %edx
c0102658: 89 55 e0                     	movl	%edx, -32(%ebp)
c010265b: 39 45 f4                     	cmpl	%eax, -12(%ebp)
c010265e: 7c e6                        	jl	0xc0102646 <vsprintf+0x211>
c0102660: c7 45 f0 00 00 00 00         	movl	$0, -16(%ebp)
c0102667: eb 1b                        	jmp	0xc0102684 <vsprintf+0x24f>
c0102669: 8b 55 e8                     	movl	-24(%ebp), %edx
c010266c: 8d 42 01                     	leal	1(%edx), %eax
c010266f: 89 45 e8                     	movl	%eax, -24(%ebp)
c0102672: 8b 45 ec                     	movl	-20(%ebp), %eax
c0102675: 8d 48 01                     	leal	1(%eax), %ecx
c0102678: 89 4d ec                     	movl	%ecx, -20(%ebp)
c010267b: 0f b6 12                     	movzbl	(%edx), %edx
c010267e: 88 10                        	movb	%dl, (%eax)
c0102680: 83 45 f0 01                  	addl	$1, -16(%ebp)
c0102684: 8b 45 f0                     	movl	-16(%ebp), %eax
c0102687: 3b 45 f4                     	cmpl	-12(%ebp), %eax
c010268a: 7c dd                        	jl	0xc0102669 <vsprintf+0x234>
c010268c: eb 0c                        	jmp	0xc010269a <vsprintf+0x265>
c010268e: 8b 45 ec                     	movl	-20(%ebp), %eax
c0102691: 8d 50 01                     	leal	1(%eax), %edx
c0102694: 89 55 ec                     	movl	%edx, -20(%ebp)
c0102697: c6 00 20                     	movb	$32, (%eax)
c010269a: 8b 45 e0                     	movl	-32(%ebp), %eax
c010269d: 8d 50 ff                     	leal	-1(%eax), %edx
c01026a0: 89 55 e0                     	movl	%edx, -32(%ebp)
c01026a3: 39 45 f4                     	cmpl	%eax, -12(%ebp)
c01026a6: 7c e6                        	jl	0xc010268e <vsprintf+0x259>
c01026a8: e9 51 01 00 00               	jmp	0xc01027fe <vsprintf+0x3c9>
c01026ad: 8b 45 10                     	movl	16(%ebp), %eax
c01026b0: 8d 50 04                     	leal	4(%eax), %edx
c01026b3: 89 55 10                     	movl	%edx, 16(%ebp)
c01026b6: 8b 00                        	movl	(%eax), %eax
c01026b8: 83 ec 08                     	subl	$8, %esp
c01026bb: ff 75 e4                     	pushl	-28(%ebp)
c01026be: ff 75 dc                     	pushl	-36(%ebp)
c01026c1: ff 75 e0                     	pushl	-32(%ebp)
c01026c4: 6a 08                        	pushl	$8
c01026c6: 50                           	pushl	%eax
c01026c7: ff 75 ec                     	pushl	-20(%ebp)
c01026ca: e8 3f fb ff ff               	calll	0xc010220e <number>
c01026cf: 83 c4 20                     	addl	$32, %esp
c01026d2: 89 45 ec                     	movl	%eax, -20(%ebp)
c01026d5: e9 24 01 00 00               	jmp	0xc01027fe <vsprintf+0x3c9>
c01026da: 83 7d e0 ff                  	cmpl	$-1, -32(%ebp)
c01026de: 75 0b                        	jne	0xc01026eb <vsprintf+0x2b6>
c01026e0: c7 45 e0 08 00 00 00         	movl	$8, -32(%ebp)
c01026e7: 83 4d e4 01                  	orl	$1, -28(%ebp)
c01026eb: 8b 45 10                     	movl	16(%ebp), %eax
c01026ee: 8d 50 04                     	leal	4(%eax), %edx
c01026f1: 89 55 10                     	movl	%edx, 16(%ebp)
c01026f4: 8b 00                        	movl	(%eax), %eax
c01026f6: 83 ec 08                     	subl	$8, %esp
c01026f9: ff 75 e4                     	pushl	-28(%ebp)
c01026fc: ff 75 dc                     	pushl	-36(%ebp)
c01026ff: ff 75 e0                     	pushl	-32(%ebp)
c0102702: 6a 10                        	pushl	$16
c0102704: 50                           	pushl	%eax
c0102705: ff 75 ec                     	pushl	-20(%ebp)
c0102708: e8 01 fb ff ff               	calll	0xc010220e <number>
c010270d: 83 c4 20                     	addl	$32, %esp
c0102710: 89 45 ec                     	movl	%eax, -20(%ebp)
c0102713: e9 e6 00 00 00               	jmp	0xc01027fe <vsprintf+0x3c9>
c0102718: 83 4d e4 40                  	orl	$64, -28(%ebp)
c010271c: 8b 45 10                     	movl	16(%ebp), %eax
c010271f: 8d 50 04                     	leal	4(%eax), %edx
c0102722: 89 55 10                     	movl	%edx, 16(%ebp)
c0102725: 8b 00                        	movl	(%eax), %eax
c0102727: 83 ec 08                     	subl	$8, %esp
c010272a: ff 75 e4                     	pushl	-28(%ebp)
c010272d: ff 75 dc                     	pushl	-36(%ebp)
c0102730: ff 75 e0                     	pushl	-32(%ebp)
c0102733: 6a 10                        	pushl	$16
c0102735: 50                           	pushl	%eax
c0102736: ff 75 ec                     	pushl	-20(%ebp)
c0102739: e8 d0 fa ff ff               	calll	0xc010220e <number>
c010273e: 83 c4 20                     	addl	$32, %esp
c0102741: 89 45 ec                     	movl	%eax, -20(%ebp)
c0102744: e9 b5 00 00 00               	jmp	0xc01027fe <vsprintf+0x3c9>
c0102749: 83 4d e4 02                  	orl	$2, -28(%ebp)
c010274d: 8b 45 10                     	movl	16(%ebp), %eax
c0102750: 8d 50 04                     	leal	4(%eax), %edx
c0102753: 89 55 10                     	movl	%edx, 16(%ebp)
c0102756: 8b 00                        	movl	(%eax), %eax
c0102758: 83 ec 08                     	subl	$8, %esp
c010275b: ff 75 e4                     	pushl	-28(%ebp)
c010275e: ff 75 dc                     	pushl	-36(%ebp)
c0102761: ff 75 e0                     	pushl	-32(%ebp)
c0102764: 6a 0a                        	pushl	$10
c0102766: 50                           	pushl	%eax
c0102767: ff 75 ec                     	pushl	-20(%ebp)
c010276a: e8 9f fa ff ff               	calll	0xc010220e <number>
c010276f: 83 c4 20                     	addl	$32, %esp
c0102772: 89 45 ec                     	movl	%eax, -20(%ebp)
c0102775: e9 84 00 00 00               	jmp	0xc01027fe <vsprintf+0x3c9>
c010277a: 8b 45 10                     	movl	16(%ebp), %eax
c010277d: 8d 50 04                     	leal	4(%eax), %edx
c0102780: 89 55 10                     	movl	%edx, 16(%ebp)
c0102783: 8b 00                        	movl	(%eax), %eax
c0102785: 83 ec 08                     	subl	$8, %esp
c0102788: ff 75 e4                     	pushl	-28(%ebp)
c010278b: ff 75 dc                     	pushl	-36(%ebp)
c010278e: ff 75 e0                     	pushl	-32(%ebp)
c0102791: 6a 02                        	pushl	$2
c0102793: 50                           	pushl	%eax
c0102794: ff 75 ec                     	pushl	-20(%ebp)
c0102797: e8 72 fa ff ff               	calll	0xc010220e <number>
c010279c: 83 c4 20                     	addl	$32, %esp
c010279f: 89 45 ec                     	movl	%eax, -20(%ebp)
c01027a2: eb 5a                        	jmp	0xc01027fe <vsprintf+0x3c9>
c01027a4: 8b 45 10                     	movl	16(%ebp), %eax
c01027a7: 8d 50 04                     	leal	4(%eax), %edx
c01027aa: 89 55 10                     	movl	%edx, 16(%ebp)
c01027ad: 8b 00                        	movl	(%eax), %eax
c01027af: 89 45 d8                     	movl	%eax, -40(%ebp)
c01027b2: 8b 45 ec                     	movl	-20(%ebp), %eax
c01027b5: 2b 45 08                     	subl	8(%ebp), %eax
c01027b8: 89 c2                        	movl	%eax, %edx
c01027ba: 8b 45 d8                     	movl	-40(%ebp), %eax
c01027bd: 89 10                        	movl	%edx, (%eax)
c01027bf: eb 3d                        	jmp	0xc01027fe <vsprintf+0x3c9>
c01027c1: 8b 45 0c                     	movl	12(%ebp), %eax
c01027c4: 0f b6 00                     	movzbl	(%eax), %eax
c01027c7: 3c 25                        	cmpb	$37, %al
c01027c9: 74 0c                        	je	0xc01027d7 <vsprintf+0x3a2>
c01027cb: 8b 45 ec                     	movl	-20(%ebp), %eax
c01027ce: 8d 50 01                     	leal	1(%eax), %edx
c01027d1: 89 55 ec                     	movl	%edx, -20(%ebp)
c01027d4: c6 00 25                     	movb	$37, (%eax)
c01027d7: 8b 45 0c                     	movl	12(%ebp), %eax
c01027da: 0f b6 00                     	movzbl	(%eax), %eax
c01027dd: 84 c0                        	testb	%al, %al
c01027df: 74 13                        	je	0xc01027f4 <vsprintf+0x3bf>
c01027e1: 8b 55 0c                     	movl	12(%ebp), %edx
c01027e4: 8b 45 ec                     	movl	-20(%ebp), %eax
c01027e7: 8d 48 01                     	leal	1(%eax), %ecx
c01027ea: 89 4d ec                     	movl	%ecx, -20(%ebp)
c01027ed: 0f b6 12                     	movzbl	(%edx), %edx
c01027f0: 88 10                        	movb	%dl, (%eax)
c01027f2: eb 09                        	jmp	0xc01027fd <vsprintf+0x3c8>
c01027f4: 8b 45 0c                     	movl	12(%ebp), %eax
c01027f7: 83 e8 01                     	subl	$1, %eax
c01027fa: 89 45 0c                     	movl	%eax, 12(%ebp)
c01027fd: 90                           	nop
c01027fe: 8b 45 0c                     	movl	12(%ebp), %eax
c0102801: 83 c0 01                     	addl	$1, %eax
c0102804: 89 45 0c                     	movl	%eax, 12(%ebp)
c0102807: 8b 45 0c                     	movl	12(%ebp), %eax
c010280a: 0f b6 00                     	movzbl	(%eax), %eax
c010280d: 84 c0                        	testb	%al, %al
c010280f: 0f 85 31 fc ff ff            	jne	0xc0102446 <vsprintf+0x11>
c0102815: 8b 45 ec                     	movl	-20(%ebp), %eax
c0102818: c6 00 00                     	movb	$0, (%eax)
c010281b: 8b 45 ec                     	movl	-20(%ebp), %eax
c010281e: 2b 45 08                     	subl	8(%ebp), %eax
c0102821: c9                           	leave
c0102822: c3                           	retl

c0102823 <debug_init>:
c0102823: 55                           	pushl	%ebp
c0102824: 89 e5                        	movl	%esp, %ebp
c0102826: 83 ec 18                     	subl	$24, %esp
c0102829: 8b 15 00 d0 10 c0            	movl	-1072640000, %edx
c010282f: 8d 45 e8                     	leal	-24(%ebp), %eax
c0102832: 83 ec 08                     	subl	$8, %esp
c0102835: 52                           	pushl	%edx
c0102836: 50                           	pushl	%eax
c0102837: e8 de 01 00 00               	calll	0xc0102a1a <elf_from_multiboot>
c010283c: 83 c4 0c                     	addl	$12, %esp
c010283f: 8b 45 e8                     	movl	-24(%ebp), %eax
c0102842: a3 c0 e4 18 c0               	movl	%eax, 3222856896
c0102847: 8b 45 ec                     	movl	-20(%ebp), %eax
c010284a: a3 c4 e4 18 c0               	movl	%eax, 3222856900
c010284f: 8b 45 f0                     	movl	-16(%ebp), %eax
c0102852: a3 c8 e4 18 c0               	movl	%eax, 3222856904
c0102857: 8b 45 f4                     	movl	-12(%ebp), %eax
c010285a: a3 cc e4 18 c0               	movl	%eax, 3222856908
c010285f: 90                           	nop
c0102860: c9                           	leave
c0102861: c3                           	retl

c0102862 <panic>:
c0102862: 55                           	pushl	%ebp
c0102863: 89 e5                        	movl	%esp, %ebp
c0102865: 83 ec 18                     	subl	$24, %esp
c0102868: 89 e8                        	movl	%ebp, %eax
c010286a: 89 45 f4                     	movl	%eax, -12(%ebp)
c010286d: 83 ec 0c                     	subl	$12, %esp
c0102870: 68 18 32 10 c0               	pushl	$3222286872
c0102875: e8 f7 f8 ff ff               	calll	0xc0102171 <printk>
c010287a: 83 c4 10                     	addl	$16, %esp
c010287d: 83 ec 0c                     	subl	$12, %esp
c0102880: 68 69 32 10 c0               	pushl	$3222286953
c0102885: e8 e7 f8 ff ff               	calll	0xc0102171 <printk>
c010288a: 83 c4 10                     	addl	$16, %esp
c010288d: 83 ec 08                     	subl	$8, %esp
c0102890: ff 75 08                     	pushl	8(%ebp)
c0102893: 68 77 32 10 c0               	pushl	$3222286967
c0102898: e8 d4 f8 ff ff               	calll	0xc0102171 <printk>
c010289d: 83 c4 10                     	addl	$16, %esp
c01028a0: eb 3e                        	jmp	0xc01028e0 <panic+0x7e>
c01028a2: 8b 45 f4                     	movl	-12(%ebp), %eax
c01028a5: 83 c0 04                     	addl	$4, %eax
c01028a8: 89 45 f0                     	movl	%eax, -16(%ebp)
c01028ab: 8b 45 f0                     	movl	-16(%ebp), %eax
c01028ae: 8b 00                        	movl	(%eax), %eax
c01028b0: 83 ec 08                     	subl	$8, %esp
c01028b3: 68 c0 e4 18 c0               	pushl	$3222856896
c01028b8: 50                           	pushl	%eax
c01028b9: e8 88 02 00 00               	calll	0xc0102b46 <elf_lookup_symbol>
c01028be: 83 c4 10                     	addl	$16, %esp
c01028c1: 8b 55 f0                     	movl	-16(%ebp), %edx
c01028c4: 8b 12                        	movl	(%edx), %edx
c01028c6: 83 ec 04                     	subl	$4, %esp
c01028c9: 50                           	pushl	%eax
c01028ca: 52                           	pushl	%edx
c01028cb: 68 7b 32 10 c0               	pushl	$3222286971
c01028d0: e8 9c f8 ff ff               	calll	0xc0102171 <printk>
c01028d5: 83 c4 10                     	addl	$16, %esp
c01028d8: 8b 45 f4                     	movl	-12(%ebp), %eax
c01028db: 8b 00                        	movl	(%eax), %eax
c01028dd: 89 45 f4                     	movl	%eax, -12(%ebp)
c01028e0: 83 7d f4 00                  	cmpl	$0, -12(%ebp)
c01028e4: 75 bc                        	jne	0xc01028a2 <panic+0x40>
c01028e6: 83 ec 0c                     	subl	$12, %esp
c01028e9: 68 18 32 10 c0               	pushl	$3222286872
c01028ee: e8 7e f8 ff ff               	calll	0xc0102171 <printk>
c01028f3: 83 c4 10                     	addl	$16, %esp
c01028f6: eb fe                        	jmp	0xc01028f6 <panic+0x94>

c01028f8 <print_sreg>:
c01028f8: 55                           	pushl	%ebp
c01028f9: 89 e5                        	movl	%esp, %ebp
c01028fb: 83 ec 18                     	subl	$24, %esp
c01028fe: 8c 4d f6                     	movw	%cs, -10(%ebp)
c0102901: 8c 5d f4                     	movw	%ds, -12(%ebp)
c0102904: 8c 45 f2                     	movw	%es, -14(%ebp)
c0102907: 8c 55 f0                     	movw	%ss, -16(%ebp)
c010290a: 0f b7 45 f6                  	movzwl	-10(%ebp), %eax
c010290e: 0f b7 d0                     	movzwl	%ax, %edx
c0102911: a1 d0 e4 18 c0               	movl	3222856912, %eax
c0102916: 83 ec 04                     	subl	$4, %esp
c0102919: 52                           	pushl	%edx
c010291a: 50                           	pushl	%eax
c010291b: 68 88 32 10 c0               	pushl	$3222286984
c0102920: e8 4c f8 ff ff               	calll	0xc0102171 <printk>
c0102925: 83 c4 10                     	addl	$16, %esp
c0102928: 0f b7 45 f4                  	movzwl	-12(%ebp), %eax
c010292c: 0f b7 d0                     	movzwl	%ax, %edx
c010292f: a1 d0 e4 18 c0               	movl	3222856912, %eax
c0102934: 83 ec 04                     	subl	$4, %esp
c0102937: 52                           	pushl	%edx
c0102938: 50                           	pushl	%eax
c0102939: 68 9a 32 10 c0               	pushl	$3222287002
c010293e: e8 2e f8 ff ff               	calll	0xc0102171 <printk>
c0102943: 83 c4 10                     	addl	$16, %esp
c0102946: 0f b7 45 f2                  	movzwl	-14(%ebp), %eax
c010294a: 0f b7 d0                     	movzwl	%ax, %edx
c010294d: a1 d0 e4 18 c0               	movl	3222856912, %eax
c0102952: 83 ec 04                     	subl	$4, %esp
c0102955: 52                           	pushl	%edx
c0102956: 50                           	pushl	%eax
c0102957: 68 ac 32 10 c0               	pushl	$3222287020
c010295c: e8 10 f8 ff ff               	calll	0xc0102171 <printk>
c0102961: 83 c4 10                     	addl	$16, %esp
c0102964: 0f b7 45 f0                  	movzwl	-16(%ebp), %eax
c0102968: 0f b7 d0                     	movzwl	%ax, %edx
c010296b: a1 d0 e4 18 c0               	movl	3222856912, %eax
c0102970: 83 ec 04                     	subl	$4, %esp
c0102973: 52                           	pushl	%edx
c0102974: 50                           	pushl	%eax
c0102975: 68 be 32 10 c0               	pushl	$3222287038
c010297a: e8 f2 f7 ff ff               	calll	0xc0102171 <printk>
c010297f: 83 c4 10                     	addl	$16, %esp
c0102982: a1 d0 e4 18 c0               	movl	3222856912, %eax
c0102987: 83 c0 01                     	addl	$1, %eax
c010298a: a3 d0 e4 18 c0               	movl	%eax, 3222856912
c010298f: 90                           	nop
c0102990: c9                           	leave
c0102991: c3                           	retl

c0102992 <print_mm_map>:
c0102992: 55                           	pushl	%ebp
c0102993: 89 e5                        	movl	%esp, %ebp
c0102995: 56                           	pushl	%esi
c0102996: 53                           	pushl	%ebx
c0102997: 83 ec 10                     	subl	$16, %esp
c010299a: a1 00 d0 10 c0               	movl	3222327296, %eax
c010299f: 8b 40 30                     	movl	48(%eax), %eax
c01029a2: 89 45 f0                     	movl	%eax, -16(%ebp)
c01029a5: a1 00 d0 10 c0               	movl	3222327296, %eax
c01029aa: 8b 50 30                     	movl	48(%eax), %edx
c01029ad: a1 00 d0 10 c0               	movl	3222327296, %eax
c01029b2: 8b 40 2c                     	movl	44(%eax), %eax
c01029b5: 01 d0                        	addl	%edx, %eax
c01029b7: 89 45 ec                     	movl	%eax, -20(%ebp)
c01029ba: 83 ec 0c                     	subl	$12, %esp
c01029bd: 68 d0 32 10 c0               	pushl	$3222287056
c01029c2: e8 aa f7 ff ff               	calll	0xc0102171 <printk>
c01029c7: 83 c4 10                     	addl	$16, %esp
c01029ca: 8b 45 f0                     	movl	-16(%ebp), %eax
c01029cd: 89 45 f4                     	movl	%eax, -12(%ebp)
c01029d0: eb 37                        	jmp	0xc0102a09 <print_mm_map+0x77>
c01029d2: 8b 45 f4                     	movl	-12(%ebp), %eax
c01029d5: 8b 70 14                     	movl	20(%eax), %esi
c01029d8: 8b 45 f4                     	movl	-12(%ebp), %eax
c01029db: 8b 58 0c                     	movl	12(%eax), %ebx
c01029de: 8b 45 f4                     	movl	-12(%ebp), %eax
c01029e1: 8b 48 10                     	movl	16(%eax), %ecx
c01029e4: 8b 45 f4                     	movl	-12(%ebp), %eax
c01029e7: 8b 50 04                     	movl	4(%eax), %edx
c01029ea: 8b 45 f4                     	movl	-12(%ebp), %eax
c01029ed: 8b 40 08                     	movl	8(%eax), %eax
c01029f0: 83 ec 08                     	subl	$8, %esp
c01029f3: 56                           	pushl	%esi
c01029f4: 53                           	pushl	%ebx
c01029f5: 51                           	pushl	%ecx
c01029f6: 52                           	pushl	%edx
c01029f7: 50                           	pushl	%eax
c01029f8: 68 e0 32 10 c0               	pushl	$3222287072
c01029fd: e8 6f f7 ff ff               	calll	0xc0102171 <printk>
c0102a02: 83 c4 20                     	addl	$32, %esp
c0102a05: 83 45 f4 18                  	addl	$24, -12(%ebp)
c0102a09: 8b 45 f4                     	movl	-12(%ebp), %eax
c0102a0c: 3b 45 ec                     	cmpl	-20(%ebp), %eax
c0102a0f: 72 c1                        	jb	0xc01029d2 <print_mm_map+0x40>
c0102a11: 90                           	nop
c0102a12: 90                           	nop
c0102a13: 8d 65 f8                     	leal	-8(%ebp), %esp
c0102a16: 5b                           	popl	%ebx
c0102a17: 5e                           	popl	%esi
c0102a18: 5d                           	popl	%ebp
c0102a19: c3                           	retl

c0102a1a <elf_from_multiboot>:
c0102a1a: 55                           	pushl	%ebp
c0102a1b: 89 e5                        	movl	%esp, %ebp
c0102a1d: 83 ec 28                     	subl	$40, %esp
c0102a20: 8b 45 0c                     	movl	12(%ebp), %eax
c0102a23: 8b 40 24                     	movl	36(%eax), %eax
c0102a26: 89 45 f0                     	movl	%eax, -16(%ebp)
c0102a29: 8b 45 0c                     	movl	12(%ebp), %eax
c0102a2c: 8b 50 28                     	movl	40(%eax), %edx
c0102a2f: 89 d0                        	movl	%edx, %eax
c0102a31: c1 e0 02                     	shll	$2, %eax
c0102a34: 01 d0                        	addl	%edx, %eax
c0102a36: c1 e0 03                     	shll	$3, %eax
c0102a39: 89 c2                        	movl	%eax, %edx
c0102a3b: 8b 45 f0                     	movl	-16(%ebp), %eax
c0102a3e: 01 d0                        	addl	%edx, %eax
c0102a40: 8b 40 0c                     	movl	12(%eax), %eax
c0102a43: 89 45 ec                     	movl	%eax, -20(%ebp)
c0102a46: c7 45 f4 00 00 00 00         	movl	$0, -12(%ebp)
c0102a4d: e9 c2 00 00 00               	jmp	0xc0102b14 <elf_from_multiboot+0xfa>
c0102a52: 8b 55 f4                     	movl	-12(%ebp), %edx
c0102a55: 89 d0                        	movl	%edx, %eax
c0102a57: c1 e0 02                     	shll	$2, %eax
c0102a5a: 01 d0                        	addl	%edx, %eax
c0102a5c: c1 e0 03                     	shll	$3, %eax
c0102a5f: 89 c2                        	movl	%eax, %edx
c0102a61: 8b 45 f0                     	movl	-16(%ebp), %eax
c0102a64: 01 d0                        	addl	%edx, %eax
c0102a66: 8b 10                        	movl	(%eax), %edx
c0102a68: 8b 45 ec                     	movl	-20(%ebp), %eax
c0102a6b: 01 d0                        	addl	%edx, %eax
c0102a6d: 89 45 e8                     	movl	%eax, -24(%ebp)
c0102a70: 83 ec 08                     	subl	$8, %esp
c0102a73: 68 16 33 10 c0               	pushl	$3222287126
c0102a78: ff 75 e8                     	pushl	-24(%ebp)
c0102a7b: e8 79 f3 ff ff               	calll	0xc0101df9 <strcmp>
c0102a80: 83 c4 10                     	addl	$16, %esp
c0102a83: 85 c0                        	testl	%eax, %eax
c0102a85: 75 39                        	jne	0xc0102ac0 <elf_from_multiboot+0xa6>
c0102a87: 8b 55 f4                     	movl	-12(%ebp), %edx
c0102a8a: 89 d0                        	movl	%edx, %eax
c0102a8c: c1 e0 02                     	shll	$2, %eax
c0102a8f: 01 d0                        	addl	%edx, %eax
c0102a91: c1 e0 03                     	shll	$3, %eax
c0102a94: 89 c2                        	movl	%eax, %edx
c0102a96: 8b 45 f0                     	movl	-16(%ebp), %eax
c0102a99: 01 d0                        	addl	%edx, %eax
c0102a9b: 8b 40 0c                     	movl	12(%eax), %eax
c0102a9e: 2d 00 00 00 40               	subl	$1073741824, %eax
c0102aa3: 89 45 e0                     	movl	%eax, -32(%ebp)
c0102aa6: 8b 55 f4                     	movl	-12(%ebp), %edx
c0102aa9: 89 d0                        	movl	%edx, %eax
c0102aab: c1 e0 02                     	shll	$2, %eax
c0102aae: 01 d0                        	addl	%edx, %eax
c0102ab0: c1 e0 03                     	shll	$3, %eax
c0102ab3: 89 c2                        	movl	%eax, %edx
c0102ab5: 8b 45 f0                     	movl	-16(%ebp), %eax
c0102ab8: 01 d0                        	addl	%edx, %eax
c0102aba: 8b 40 14                     	movl	20(%eax), %eax
c0102abd: 89 45 e4                     	movl	%eax, -28(%ebp)
c0102ac0: 83 ec 08                     	subl	$8, %esp
c0102ac3: 68 1e 33 10 c0               	pushl	$3222287134
c0102ac8: ff 75 e8                     	pushl	-24(%ebp)
c0102acb: e8 29 f3 ff ff               	calll	0xc0101df9 <strcmp>
c0102ad0: 83 c4 10                     	addl	$16, %esp
c0102ad3: 85 c0                        	testl	%eax, %eax
c0102ad5: 75 39                        	jne	0xc0102b10 <elf_from_multiboot+0xf6>
c0102ad7: 8b 55 f4                     	movl	-12(%ebp), %edx
c0102ada: 89 d0                        	movl	%edx, %eax
c0102adc: c1 e0 02                     	shll	$2, %eax
c0102adf: 01 d0                        	addl	%edx, %eax
c0102ae1: c1 e0 03                     	shll	$3, %eax
c0102ae4: 89 c2                        	movl	%eax, %edx
c0102ae6: 8b 45 f0                     	movl	-16(%ebp), %eax
c0102ae9: 01 d0                        	addl	%edx, %eax
c0102aeb: 8b 40 0c                     	movl	12(%eax), %eax
c0102aee: 2d 00 00 00 40               	subl	$1073741824, %eax
c0102af3: 89 45 d8                     	movl	%eax, -40(%ebp)
c0102af6: 8b 55 f4                     	movl	-12(%ebp), %edx
c0102af9: 89 d0                        	movl	%edx, %eax
c0102afb: c1 e0 02                     	shll	$2, %eax
c0102afe: 01 d0                        	addl	%edx, %eax
c0102b00: c1 e0 03                     	shll	$3, %eax
c0102b03: 89 c2                        	movl	%eax, %edx
c0102b05: 8b 45 f0                     	movl	-16(%ebp), %eax
c0102b08: 01 d0                        	addl	%edx, %eax
c0102b0a: 8b 40 14                     	movl	20(%eax), %eax
c0102b0d: 89 45 dc                     	movl	%eax, -36(%ebp)
c0102b10: 83 45 f4 01                  	addl	$1, -12(%ebp)
c0102b14: 8b 45 0c                     	movl	12(%ebp), %eax
c0102b17: 8b 50 1c                     	movl	28(%eax), %edx
c0102b1a: 8b 45 f4                     	movl	-12(%ebp), %eax
c0102b1d: 39 c2                        	cmpl	%eax, %edx
c0102b1f: 0f 87 2d ff ff ff            	ja	0xc0102a52 <elf_from_multiboot+0x38>
c0102b25: 8b 45 08                     	movl	8(%ebp), %eax
c0102b28: 8b 55 d8                     	movl	-40(%ebp), %edx
c0102b2b: 89 10                        	movl	%edx, (%eax)
c0102b2d: 8b 55 dc                     	movl	-36(%ebp), %edx
c0102b30: 89 50 04                     	movl	%edx, 4(%eax)
c0102b33: 8b 55 e0                     	movl	-32(%ebp), %edx
c0102b36: 89 50 08                     	movl	%edx, 8(%eax)
c0102b39: 8b 55 e4                     	movl	-28(%ebp), %edx
c0102b3c: 89 50 0c                     	movl	%edx, 12(%eax)
c0102b3f: 8b 45 08                     	movl	8(%ebp), %eax
c0102b42: c9                           	leave
c0102b43: c2 04 00                     	retl	$4

c0102b46 <elf_lookup_symbol>:
c0102b46: 55                           	pushl	%ebp
c0102b47: 89 e5                        	movl	%esp, %ebp
c0102b49: 83 ec 10                     	subl	$16, %esp
c0102b4c: c7 45 fc 00 00 00 00         	movl	$0, -4(%ebp)
c0102b53: eb 78                        	jmp	0xc0102bcd <elf_lookup_symbol+0x87>
c0102b55: 8b 45 0c                     	movl	12(%ebp), %eax
c0102b58: 8b 10                        	movl	(%eax), %edx
c0102b5a: 8b 45 fc                     	movl	-4(%ebp), %eax
c0102b5d: c1 e0 04                     	shll	$4, %eax
c0102b60: 01 d0                        	addl	%edx, %eax
c0102b62: 0f b6 40 0c                  	movzbl	12(%eax), %eax
c0102b66: 0f b6 c0                     	movzbl	%al, %eax
c0102b69: 83 e0 0f                     	andl	$15, %eax
c0102b6c: 83 f8 02                     	cmpl	$2, %eax
c0102b6f: 75 57                        	jne	0xc0102bc8 <elf_lookup_symbol+0x82>
c0102b71: 8b 45 0c                     	movl	12(%ebp), %eax
c0102b74: 8b 10                        	movl	(%eax), %edx
c0102b76: 8b 45 fc                     	movl	-4(%ebp), %eax
c0102b79: c1 e0 04                     	shll	$4, %eax
c0102b7c: 01 d0                        	addl	%edx, %eax
c0102b7e: 8b 40 04                     	movl	4(%eax), %eax
c0102b81: 39 45 08                     	cmpl	%eax, 8(%ebp)
c0102b84: 72 43                        	jb	0xc0102bc9 <elf_lookup_symbol+0x83>
c0102b86: 8b 45 0c                     	movl	12(%ebp), %eax
c0102b89: 8b 10                        	movl	(%eax), %edx
c0102b8b: 8b 45 fc                     	movl	-4(%ebp), %eax
c0102b8e: c1 e0 04                     	shll	$4, %eax
c0102b91: 01 d0                        	addl	%edx, %eax
c0102b93: 8b 50 04                     	movl	4(%eax), %edx
c0102b96: 8b 45 0c                     	movl	12(%ebp), %eax
c0102b99: 8b 08                        	movl	(%eax), %ecx
c0102b9b: 8b 45 fc                     	movl	-4(%ebp), %eax
c0102b9e: c1 e0 04                     	shll	$4, %eax
c0102ba1: 01 c8                        	addl	%ecx, %eax
c0102ba3: 8b 40 08                     	movl	8(%eax), %eax
c0102ba6: 01 d0                        	addl	%edx, %eax
c0102ba8: 39 45 08                     	cmpl	%eax, 8(%ebp)
c0102bab: 73 1c                        	jae	0xc0102bc9 <elf_lookup_symbol+0x83>
c0102bad: 8b 45 0c                     	movl	12(%ebp), %eax
c0102bb0: 8b 40 08                     	movl	8(%eax), %eax
c0102bb3: 89 c1                        	movl	%eax, %ecx
c0102bb5: 8b 45 0c                     	movl	12(%ebp), %eax
c0102bb8: 8b 10                        	movl	(%eax), %edx
c0102bba: 8b 45 fc                     	movl	-4(%ebp), %eax
c0102bbd: c1 e0 04                     	shll	$4, %eax
c0102bc0: 01 d0                        	addl	%edx, %eax
c0102bc2: 8b 00                        	movl	(%eax), %eax
c0102bc4: 01 c8                        	addl	%ecx, %eax
c0102bc6: eb 20                        	jmp	0xc0102be8 <elf_lookup_symbol+0xa2>
c0102bc8: 90                           	nop
c0102bc9: 83 45 fc 01                  	addl	$1, -4(%ebp)
c0102bcd: 8b 45 0c                     	movl	12(%ebp), %eax
c0102bd0: 8b 40 04                     	movl	4(%eax), %eax
c0102bd3: c1 e8 04                     	shrl	$4, %eax
c0102bd6: 89 c2                        	movl	%eax, %edx
c0102bd8: 8b 45 fc                     	movl	-4(%ebp), %eax
c0102bdb: 39 c2                        	cmpl	%eax, %edx
c0102bdd: 0f 87 72 ff ff ff            	ja	0xc0102b55 <elf_lookup_symbol+0xf>
c0102be3: b8 00 00 00 00               	movl	$0, %eax
c0102be8: c9                           	leave
c0102be9: c3                           	retl
c0102bea: 66 90                        	nop
c0102bec: 66 90                        	nop
c0102bee: 66 90                        	nop
c0102bf0: 66 90                        	nop
c0102bf2: 66 90                        	nop
c0102bf4: 66 90                        	nop
c0102bf6: 66 90                        	nop
c0102bf8: 66 90                        	nop
c0102bfa: 66 90                        	nop
c0102bfc: 66 90                        	nop
c0102bfe: 66 90                        	nop
c0102c00: 66 90                        	nop
c0102c02: 66 90                        	nop
c0102c04: 66 90                        	nop
c0102c06: 66 90                        	nop
c0102c08: 66 90                        	nop
c0102c0a: 66 90                        	nop
c0102c0c: 66 90                        	nop
c0102c0e: 66 90                        	nop
c0102c10: 66 90                        	nop
c0102c12: 66 90                        	nop
c0102c14: 66 90                        	nop
c0102c16: 66 90                        	nop
c0102c18: 66 90                        	nop
c0102c1a: 66 90                        	nop
c0102c1c: 66 90                        	nop
c0102c1e: 66 90                        	nop
c0102c20: 66 90                        	nop
c0102c22: 66 90                        	nop
c0102c24: 66 90                        	nop
c0102c26: 66 90                        	nop
c0102c28: 66 90                        	nop
c0102c2a: 66 90                        	nop
c0102c2c: 66 90                        	nop
c0102c2e: 66 90                        	nop
c0102c30: 66 90                        	nop
c0102c32: 66 90                        	nop
c0102c34: 66 90                        	nop
c0102c36: 66 90                        	nop
c0102c38: 66 90                        	nop
c0102c3a: 66 90                        	nop
c0102c3c: 66 90                        	nop
c0102c3e: 66 90                        	nop
c0102c40: 66 90                        	nop
c0102c42: 66 90                        	nop
c0102c44: 66 90                        	nop
c0102c46: 66 90                        	nop
c0102c48: 66 90                        	nop
c0102c4a: 66 90                        	nop
c0102c4c: 66 90                        	nop
c0102c4e: 66 90                        	nop
c0102c50: 66 90                        	nop
c0102c52: 66 90                        	nop
c0102c54: 66 90                        	nop
c0102c56: 66 90                        	nop
c0102c58: 66 90                        	nop
c0102c5a: 66 90                        	nop
c0102c5c: 66 90                        	nop
c0102c5e: 66 90                        	nop
c0102c60: 66 90                        	nop
c0102c62: 66 90                        	nop
c0102c64: 66 90                        	nop
c0102c66: 66 90                        	nop
c0102c68: 66 90                        	nop
c0102c6a: 66 90                        	nop
c0102c6c: 66 90                        	nop
c0102c6e: 66 90                        	nop
c0102c70: 66 90                        	nop
c0102c72: 66 90                        	nop
c0102c74: 66 90                        	nop
c0102c76: 66 90                        	nop
c0102c78: 66 90                        	nop
c0102c7a: 66 90                        	nop
c0102c7c: 66 90                        	nop
c0102c7e: 66 90                        	nop
c0102c80: 66 90                        	nop
c0102c82: 66 90                        	nop
c0102c84: 66 90                        	nop
c0102c86: 66 90                        	nop
c0102c88: 66 90                        	nop
c0102c8a: 66 90                        	nop
c0102c8c: 66 90                        	nop
c0102c8e: 66 90                        	nop
c0102c90: 66 90                        	nop
c0102c92: 66 90                        	nop
c0102c94: 66 90                        	nop
c0102c96: 66 90                        	nop
c0102c98: 66 90                        	nop
c0102c9a: 66 90                        	nop
c0102c9c: 66 90                        	nop
c0102c9e: 66 90                        	nop
c0102ca0: 66 90                        	nop
c0102ca2: 66 90                        	nop
c0102ca4: 66 90                        	nop
c0102ca6: 66 90                        	nop
c0102ca8: 66 90                        	nop
c0102caa: 66 90                        	nop
c0102cac: 66 90                        	nop
c0102cae: 66 90                        	nop
c0102cb0: 66 90                        	nop
c0102cb2: 66 90                        	nop
c0102cb4: 66 90                        	nop
c0102cb6: 66 90                        	nop
c0102cb8: 66 90                        	nop
c0102cba: 66 90                        	nop
c0102cbc: 66 90                        	nop
c0102cbe: 66 90                        	nop
c0102cc0: 66 90                        	nop
c0102cc2: 66 90                        	nop
c0102cc4: 66 90                        	nop
c0102cc6: 66 90                        	nop
c0102cc8: 66 90                        	nop
c0102cca: 66 90                        	nop
c0102ccc: 66 90                        	nop
c0102cce: 66 90                        	nop
c0102cd0: 66 90                        	nop
c0102cd2: 66 90                        	nop
c0102cd4: 66 90                        	nop
c0102cd6: 66 90                        	nop
c0102cd8: 66 90                        	nop
c0102cda: 66 90                        	nop
c0102cdc: 66 90                        	nop
c0102cde: 66 90                        	nop
c0102ce0: 66 90                        	nop
c0102ce2: 66 90                        	nop
c0102ce4: 66 90                        	nop
c0102ce6: 66 90                        	nop
c0102ce8: 66 90                        	nop
c0102cea: 66 90                        	nop
c0102cec: 66 90                        	nop
c0102cee: 66 90                        	nop
c0102cf0: 66 90                        	nop
c0102cf2: 66 90                        	nop
c0102cf4: 66 90                        	nop
c0102cf6: 66 90                        	nop
c0102cf8: 66 90                        	nop
c0102cfa: 66 90                        	nop
c0102cfc: 66 90                        	nop
c0102cfe: 66 90                        	nop
c0102d00: 66 90                        	nop
c0102d02: 66 90                        	nop
c0102d04: 66 90                        	nop
c0102d06: 66 90                        	nop
c0102d08: 66 90                        	nop
c0102d0a: 66 90                        	nop
c0102d0c: 66 90                        	nop
c0102d0e: 66 90                        	nop
c0102d10: 66 90                        	nop
c0102d12: 66 90                        	nop
c0102d14: 66 90                        	nop
c0102d16: 66 90                        	nop
c0102d18: 66 90                        	nop
c0102d1a: 66 90                        	nop
c0102d1c: 66 90                        	nop
c0102d1e: 66 90                        	nop
c0102d20: 66 90                        	nop
c0102d22: 66 90                        	nop
c0102d24: 66 90                        	nop
c0102d26: 66 90                        	nop
c0102d28: 66 90                        	nop
c0102d2a: 66 90                        	nop
c0102d2c: 66 90                        	nop
c0102d2e: 66 90                        	nop
c0102d30: 66 90                        	nop
c0102d32: 66 90                        	nop
c0102d34: 66 90                        	nop
c0102d36: 66 90                        	nop
c0102d38: 66 90                        	nop
c0102d3a: 66 90                        	nop
c0102d3c: 66 90                        	nop
c0102d3e: 66 90                        	nop
c0102d40: 66 90                        	nop
c0102d42: 66 90                        	nop
c0102d44: 66 90                        	nop
c0102d46: 66 90                        	nop
c0102d48: 66 90                        	nop
c0102d4a: 66 90                        	nop
c0102d4c: 66 90                        	nop
c0102d4e: 66 90                        	nop
c0102d50: 66 90                        	nop
c0102d52: 66 90                        	nop
c0102d54: 66 90                        	nop
c0102d56: 66 90                        	nop
c0102d58: 66 90                        	nop
c0102d5a: 66 90                        	nop
c0102d5c: 66 90                        	nop
c0102d5e: 66 90                        	nop
c0102d60: 66 90                        	nop
c0102d62: 66 90                        	nop
c0102d64: 66 90                        	nop
c0102d66: 66 90                        	nop
c0102d68: 66 90                        	nop
c0102d6a: 66 90                        	nop
c0102d6c: 66 90                        	nop
c0102d6e: 66 90                        	nop
c0102d70: 66 90                        	nop
c0102d72: 66 90                        	nop
c0102d74: 66 90                        	nop
c0102d76: 66 90                        	nop
c0102d78: 66 90                        	nop
c0102d7a: 66 90                        	nop
c0102d7c: 66 90                        	nop
c0102d7e: 66 90                        	nop
c0102d80: 66 90                        	nop
c0102d82: 66 90                        	nop
c0102d84: 66 90                        	nop
c0102d86: 66 90                        	nop
c0102d88: 66 90                        	nop
c0102d8a: 66 90                        	nop
c0102d8c: 66 90                        	nop
c0102d8e: 66 90                        	nop
c0102d90: 66 90                        	nop
c0102d92: 66 90                        	nop
c0102d94: 66 90                        	nop
c0102d96: 66 90                        	nop
c0102d98: 66 90                        	nop
c0102d9a: 66 90                        	nop
c0102d9c: 66 90                        	nop
c0102d9e: 66 90                        	nop
c0102da0: 66 90                        	nop
c0102da2: 66 90                        	nop
c0102da4: 66 90                        	nop
c0102da6: 66 90                        	nop
c0102da8: 66 90                        	nop
c0102daa: 66 90                        	nop
c0102dac: 66 90                        	nop
c0102dae: 66 90                        	nop
c0102db0: 66 90                        	nop
c0102db2: 66 90                        	nop
c0102db4: 66 90                        	nop
c0102db6: 66 90                        	nop
c0102db8: 66 90                        	nop
c0102dba: 66 90                        	nop
c0102dbc: 66 90                        	nop
c0102dbe: 66 90                        	nop
c0102dc0: 66 90                        	nop
c0102dc2: 66 90                        	nop
c0102dc4: 66 90                        	nop
c0102dc6: 66 90                        	nop
c0102dc8: 66 90                        	nop
c0102dca: 66 90                        	nop
c0102dcc: 66 90                        	nop
c0102dce: 66 90                        	nop
c0102dd0: 66 90                        	nop
c0102dd2: 66 90                        	nop
c0102dd4: 66 90                        	nop
c0102dd6: 66 90                        	nop
c0102dd8: 66 90                        	nop
c0102dda: 66 90                        	nop
c0102ddc: 66 90                        	nop
c0102dde: 66 90                        	nop
c0102de0: 66 90                        	nop
c0102de2: 66 90                        	nop
c0102de4: 66 90                        	nop
c0102de6: 66 90                        	nop
c0102de8: 66 90                        	nop
c0102dea: 66 90                        	nop
c0102dec: 66 90                        	nop
c0102dee: 66 90                        	nop
c0102df0: 66 90                        	nop
c0102df2: 66 90                        	nop
c0102df4: 66 90                        	nop
c0102df6: 66 90                        	nop
c0102df8: 66 90                        	nop
c0102dfa: 66 90                        	nop
c0102dfc: 66 90                        	nop
c0102dfe: 66 90                        	nop
c0102e00: 66 90                        	nop
c0102e02: 66 90                        	nop
c0102e04: 66 90                        	nop
c0102e06: 66 90                        	nop
c0102e08: 66 90                        	nop
c0102e0a: 66 90                        	nop
c0102e0c: 66 90                        	nop
c0102e0e: 66 90                        	nop
c0102e10: 66 90                        	nop
c0102e12: 66 90                        	nop
c0102e14: 66 90                        	nop
c0102e16: 66 90                        	nop
c0102e18: 66 90                        	nop
c0102e1a: 66 90                        	nop
c0102e1c: 66 90                        	nop
c0102e1e: 66 90                        	nop
c0102e20: 66 90                        	nop
c0102e22: 66 90                        	nop
c0102e24: 66 90                        	nop
c0102e26: 66 90                        	nop
c0102e28: 66 90                        	nop
c0102e2a: 66 90                        	nop
c0102e2c: 66 90                        	nop
c0102e2e: 66 90                        	nop
c0102e30: 66 90                        	nop
c0102e32: 66 90                        	nop
c0102e34: 66 90                        	nop
c0102e36: 66 90                        	nop
c0102e38: 66 90                        	nop
c0102e3a: 66 90                        	nop
c0102e3c: 66 90                        	nop
c0102e3e: 66 90                        	nop
c0102e40: 66 90                        	nop
c0102e42: 66 90                        	nop
c0102e44: 66 90                        	nop
c0102e46: 66 90                        	nop
c0102e48: 66 90                        	nop
c0102e4a: 66 90                        	nop
c0102e4c: 66 90                        	nop
c0102e4e: 66 90                        	nop
c0102e50: 66 90                        	nop
c0102e52: 66 90                        	nop
c0102e54: 66 90                        	nop
c0102e56: 66 90                        	nop
c0102e58: 66 90                        	nop
c0102e5a: 66 90                        	nop
c0102e5c: 66 90                        	nop
c0102e5e: 66 90                        	nop
c0102e60: 66 90                        	nop
c0102e62: 66 90                        	nop
c0102e64: 66 90                        	nop
c0102e66: 66 90                        	nop
c0102e68: 66 90                        	nop
c0102e6a: 66 90                        	nop
c0102e6c: 66 90                        	nop
c0102e6e: 66 90                        	nop
c0102e70: 66 90                        	nop
c0102e72: 66 90                        	nop
c0102e74: 66 90                        	nop
c0102e76: 66 90                        	nop
c0102e78: 66 90                        	nop
c0102e7a: 66 90                        	nop
c0102e7c: 66 90                        	nop
c0102e7e: 66 90                        	nop
c0102e80: 66 90                        	nop
c0102e82: 66 90                        	nop
c0102e84: 66 90                        	nop
c0102e86: 66 90                        	nop
c0102e88: 66 90                        	nop
c0102e8a: 66 90                        	nop
c0102e8c: 66 90                        	nop
c0102e8e: 66 90                        	nop
c0102e90: 66 90                        	nop
c0102e92: 66 90                        	nop
c0102e94: 66 90                        	nop
c0102e96: 66 90                        	nop
c0102e98: 66 90                        	nop
c0102e9a: 66 90                        	nop
c0102e9c: 66 90                        	nop
c0102e9e: 66 90                        	nop
c0102ea0: 66 90                        	nop
c0102ea2: 66 90                        	nop
c0102ea4: 66 90                        	nop
c0102ea6: 66 90                        	nop
c0102ea8: 66 90                        	nop
c0102eaa: 66 90                        	nop
c0102eac: 66 90                        	nop
c0102eae: 66 90                        	nop
c0102eb0: 66 90                        	nop
c0102eb2: 66 90                        	nop
c0102eb4: 66 90                        	nop
c0102eb6: 66 90                        	nop
c0102eb8: 66 90                        	nop
c0102eba: 66 90                        	nop
c0102ebc: 66 90                        	nop
c0102ebe: 66 90                        	nop
c0102ec0: 66 90                        	nop
c0102ec2: 66 90                        	nop
c0102ec4: 66 90                        	nop
c0102ec6: 66 90                        	nop
c0102ec8: 66 90                        	nop
c0102eca: 66 90                        	nop
c0102ecc: 66 90                        	nop
c0102ece: 66 90                        	nop
c0102ed0: 66 90                        	nop
c0102ed2: 66 90                        	nop
c0102ed4: 66 90                        	nop
c0102ed6: 66 90                        	nop
c0102ed8: 66 90                        	nop
c0102eda: 66 90                        	nop
c0102edc: 66 90                        	nop
c0102ede: 66 90                        	nop
c0102ee0: 66 90                        	nop
c0102ee2: 66 90                        	nop
c0102ee4: 66 90                        	nop
c0102ee6: 66 90                        	nop
c0102ee8: 66 90                        	nop
c0102eea: 66 90                        	nop
c0102eec: 66 90                        	nop
c0102eee: 66 90                        	nop
c0102ef0: 66 90                        	nop
c0102ef2: 66 90                        	nop
c0102ef4: 66 90                        	nop
c0102ef6: 66 90                        	nop
c0102ef8: 66 90                        	nop
c0102efa: 66 90                        	nop
c0102efc: 66 90                        	nop
c0102efe: 66 90                        	nop
c0102f00: 66 90                        	nop
c0102f02: 66 90                        	nop
c0102f04: 66 90                        	nop
c0102f06: 66 90                        	nop
c0102f08: 66 90                        	nop
c0102f0a: 66 90                        	nop
c0102f0c: 66 90                        	nop
c0102f0e: 66 90                        	nop
c0102f10: 66 90                        	nop
c0102f12: 66 90                        	nop
c0102f14: 66 90                        	nop
c0102f16: 66 90                        	nop
c0102f18: 66 90                        	nop
c0102f1a: 66 90                        	nop
c0102f1c: 66 90                        	nop
c0102f1e: 66 90                        	nop
c0102f20: 66 90                        	nop
c0102f22: 66 90                        	nop
c0102f24: 66 90                        	nop
c0102f26: 66 90                        	nop
c0102f28: 66 90                        	nop
c0102f2a: 66 90                        	nop
c0102f2c: 66 90                        	nop
c0102f2e: 66 90                        	nop
c0102f30: 66 90                        	nop
c0102f32: 66 90                        	nop
c0102f34: 66 90                        	nop
c0102f36: 66 90                        	nop
c0102f38: 66 90                        	nop
c0102f3a: 66 90                        	nop
c0102f3c: 66 90                        	nop
c0102f3e: 66 90                        	nop
c0102f40: 66 90                        	nop
c0102f42: 66 90                        	nop
c0102f44: 66 90                        	nop
c0102f46: 66 90                        	nop
c0102f48: 66 90                        	nop
c0102f4a: 66 90                        	nop
c0102f4c: 66 90                        	nop
c0102f4e: 66 90                        	nop
c0102f50: 66 90                        	nop
c0102f52: 66 90                        	nop
c0102f54: 66 90                        	nop
c0102f56: 66 90                        	nop
c0102f58: 66 90                        	nop
c0102f5a: 66 90                        	nop
c0102f5c: 66 90                        	nop
c0102f5e: 66 90                        	nop
c0102f60: 66 90                        	nop
c0102f62: 66 90                        	nop
c0102f64: 66 90                        	nop
c0102f66: 66 90                        	nop
c0102f68: 66 90                        	nop
c0102f6a: 66 90                        	nop
c0102f6c: 66 90                        	nop
c0102f6e: 66 90                        	nop
c0102f70: 66 90                        	nop
c0102f72: 66 90                        	nop
c0102f74: 66 90                        	nop
c0102f76: 66 90                        	nop
c0102f78: 66 90                        	nop
c0102f7a: 66 90                        	nop
c0102f7c: 66 90                        	nop
c0102f7e: 66 90                        	nop
c0102f80: 66 90                        	nop
c0102f82: 66 90                        	nop
c0102f84: 66 90                        	nop
c0102f86: 66 90                        	nop
c0102f88: 66 90                        	nop
c0102f8a: 66 90                        	nop
c0102f8c: 66 90                        	nop
c0102f8e: 66 90                        	nop
c0102f90: 66 90                        	nop
c0102f92: 66 90                        	nop
c0102f94: 66 90                        	nop
c0102f96: 66 90                        	nop
c0102f98: 66 90                        	nop
c0102f9a: 66 90                        	nop
c0102f9c: 66 90                        	nop
c0102f9e: 66 90                        	nop
c0102fa0: 66 90                        	nop
c0102fa2: 66 90                        	nop
c0102fa4: 66 90                        	nop
c0102fa6: 66 90                        	nop
c0102fa8: 66 90                        	nop
c0102faa: 66 90                        	nop
c0102fac: 66 90                        	nop
c0102fae: 66 90                        	nop
c0102fb0: 66 90                        	nop
c0102fb2: 66 90                        	nop
c0102fb4: 66 90                        	nop
c0102fb6: 66 90                        	nop
c0102fb8: 66 90                        	nop
c0102fba: 66 90                        	nop
c0102fbc: 66 90                        	nop
c0102fbe: 66 90                        	nop
c0102fc0: 66 90                        	nop
c0102fc2: 66 90                        	nop
c0102fc4: 66 90                        	nop
c0102fc6: 66 90                        	nop
c0102fc8: 66 90                        	nop
c0102fca: 66 90                        	nop
c0102fcc: 66 90                        	nop
c0102fce: 66 90                        	nop
c0102fd0: 66 90                        	nop
c0102fd2: 66 90                        	nop
c0102fd4: 66 90                        	nop
c0102fd6: 66 90                        	nop
c0102fd8: 66 90                        	nop
c0102fda: 66 90                        	nop
c0102fdc: 66 90                        	nop
c0102fde: 66 90                        	nop
c0102fe0: 66 90                        	nop
c0102fe2: 66 90                        	nop
c0102fe4: 66 90                        	nop
c0102fe6: 66 90                        	nop
c0102fe8: 66 90                        	nop
c0102fea: 66 90                        	nop
c0102fec: 66 90                        	nop
c0102fee: 66 90                        	nop
c0102ff0: 66 90                        	nop
c0102ff2: 66 90                        	nop
c0102ff4: 66 90                        	nop
c0102ff6: 66 90                        	nop
c0102ff8: 66 90                        	nop
c0102ffa: 66 90                        	nop
c0102ffc: 66 90                        	nop
c0102ffe: 66 90                        	nop

Disassembly of section .rodata:

c0103000 <.rodata>:
c0103000: 74 65                        	je	0xc0103067 <.rodata+0x67>
c0103002: 73 74                        	jae	0xc0103078 <.rodata+0x78>
c0103004: 00 00                        	addb	%al, (%eax)
c0103006: 00 00                        	addb	%al, (%eax)
c0103008: 3d 3d 3d 3d 3d               	cmpl	$1027423549, %eax
c010300d: 3d 3d 3d 3d 3d               	cmpl	$1027423549, %eax
c0103012: 3d 3d 3d 3d 3d               	cmpl	$1027423549, %eax
c0103017: 3d 3d 3d 3d 3d               	cmpl	$1027423549, %eax
c010301c: 3d 3d 3d 3d 3d               	cmpl	$1027423549, %eax
c0103021: 3d 3d 3d 3d 3d               	cmpl	$1027423549, %eax
c0103026: 3d 3d 3d 3d 3d               	cmpl	$1027423549, %eax
c010302b: 3d 3d 3d 3d 3d               	cmpl	$1027423549, %eax
c0103030: 3d 3d 3d 3d 3d               	cmpl	$1027423549, %eax
c0103035: 3d 3d 3d 3d 3d               	cmpl	$1027423549, %eax
c010303a: 3d 3d 3d 3d 3d               	cmpl	$1027423549, %eax
c010303f: 3d 3d 3d 3d 3d               	cmpl	$1027423549, %eax
c0103044: 3d 3d 3d 3d 3d               	cmpl	$1027423549, %eax
c0103049: 3d 3d 3d 3d 3d               	cmpl	$1027423549, %eax
c010304e: 3d 3d 3d 3d 3d               	cmpl	$1027423549, %eax
c0103053: 3d 3d 3d 3d 0a               	cmpl	$171785533, %eax
c0103058: 00 4d 4d                     	addb	%cl, 77(%ebp)
c010305b: 20 49 4e                     	andb	%cl, 78(%ecx)
c010305e: 49                           	decl	%ecx
c010305f: 54                           	pushl	%esp
c0103060: 0a 00                        	orb	(%eax), %al
c0103062: 00 00                        	addb	%al, (%eax)
c0103064: 46                           	incl	%esi
c0103065: 72 61                        	jb	0xc01030c8 <.rodata+0xc8>
c0103067: 6d                           	insl	%dx, %es:(%edi)
c0103068: 65 5f                        	popl	%edi
c010306a: 6d                           	insl	%dx, %es:(%edi)
c010306b: 6d                           	insl	%dx, %es:(%edi)
c010306c: 5f                           	popl	%edi
c010306d: 73 74                        	jae	0xc01030e3 <.rodata+0xe3>
c010306f: 61                           	popal
c0103070: 72 74                        	jb	0xc01030e6 <.rodata+0xe6>
c0103072: 3a 20                        	cmpb	(%eax), %ah
c0103074: 30 78 25                     	xorb	%bh, 37(%eax)
c0103077: 30 38                        	xorb	%bh, (%eax)
c0103079: 58                           	popl	%eax
c010307a: 2c 20                        	subb	$32, %al
c010307c: 46                           	incl	%esi
c010307d: 72 61                        	jb	0xc01030e0 <.rodata+0xe0>
c010307f: 6d                           	insl	%dx, %es:(%edi)
c0103080: 65 5f                        	popl	%edi
c0103082: 6d                           	insl	%dx, %es:(%edi)
c0103083: 6d                           	insl	%dx, %es:(%edi)
c0103084: 5f                           	popl	%edi
c0103085: 65 6e                        	outsb	%gs:(%esi), %dx
c0103087: 64 3a 20                     	cmpb	%fs:(%eax), %ah
c010308a: 30 78 25                     	xorb	%bh, 37(%eax)
c010308d: 30 38                        	xorb	%bh, (%eax)
c010308f: 58                           	popl	%eax
c0103090: 0a 00                        	orb	(%eax), %al
c0103092: 00 00                        	addb	%al, (%eax)
c0103094: 46                           	incl	%esi
c0103095: 72 61                        	jb	0xc01030f8 <.rodata+0xf8>
c0103097: 6d                           	insl	%dx, %es:(%edi)
c0103098: 65 5f                        	popl	%edi
c010309a: 6d                           	insl	%dx, %es:(%edi)
c010309b: 6d                           	insl	%dx, %es:(%edi)
c010309c: 5f                           	popl	%edi
c010309d: 6c                           	insb	%dx, %es:(%edi)
c010309e: 65 6e                        	outsb	%gs:(%esi), %dx
c01030a0: 67 74 68                     	je	0xc010310b <.rodata+0x10b>
c01030a3: 3a 20                        	cmpb	(%eax), %ah
c01030a5: 30 78 25                     	xorb	%bh, 37(%eax)
c01030a8: 30 38                        	xorb	%bh, (%eax)
c01030aa: 58                           	popl	%eax
c01030ab: 2c 20                        	subb	$32, %al
c01030ad: 46                           	incl	%esi
c01030ae: 72 61                        	jb	0xc0103111 <.rodata+0x111>
c01030b0: 6d                           	insl	%dx, %es:(%edi)
c01030b1: 65 5f                        	popl	%edi
c01030b3: 6e                           	outsb	(%esi), %dx
c01030b4: 75 6d                        	jne	0xc0103123 <.rodata+0x123>
c01030b6: 3a 20                        	cmpb	(%eax), %ah
c01030b8: 25 64 0a 00 4d               	andl	$1291848292, %eax
c01030bd: 65 6d                        	insl	%dx, %es:(%edi)
c01030bf: 6f                           	outsl	(%esi), %dx
c01030c0: 72 79                        	jb	0xc010313b <.rodata+0x13b>
c01030c2: 20 45 72                     	andb	%al, 114(%ebp)
c01030c5: 72 6f                        	jb	0xc0103136 <.rodata+0x136>
c01030c7: 72 3a                        	jb	0xc0103103 <.rodata+0x103>
c01030c9: 20 4d 65                     	andb	%cl, 101(%ebp)
c01030cc: 6d                           	insl	%dx, %es:(%edi)
c01030cd: 6f                           	outsl	(%esi), %dx
c01030ce: 72 79                        	jb	0xc0103149 <.rodata+0x149>
c01030d0: 20 66 72                     	andb	%ah, 114(%esi)
c01030d3: 61                           	popal
c01030d4: 6d                           	insl	%dx, %es:(%edi)
c01030d5: 65 20 73 74                  	andb	%dh, %gs:116(%ebx)
c01030d9: 61                           	popal
c01030da: 63 6b 20                     	arpl	%bp, 32(%ebx)
c01030dd: 6f                           	outsl	(%esi), %dx
c01030de: 76 65                        	jbe	0xc0103145 <.rodata+0x145>
c01030e0: 72 66                        	jb	0xc0103148 <.rodata+0x148>
c01030e2: 6c                           	insb	%dx, %es:(%edi)
c01030e3: 6f                           	outsl	(%esi), %dx
c01030e4: 77 2e                        	ja	0xc0103114 <.rodata+0x114>
c01030e6: 00 55 6e                     	addb	%dl, 110(%ebp)
c01030e9: 68 61 6e 64 6c               	pushl	$1818521185
c01030ee: 65 64 20 49 6e               	andb	%cl, %fs:110(%ecx)
c01030f3: 74 65                        	je	0xc010315a <.rodata+0x15a>
c01030f5: 72 72                        	jb	0xc0103169 <.rodata+0x169>
c01030f7: 75 70                        	jne	0xc0103169 <.rodata+0x169>
c01030f9: 74 3a                        	je	0xc0103135 <.rodata+0x135>
c01030fb: 20 25 64 0a 00 30            	andb	%ah, 805309028
c0103101: 31 32                        	xorl	%esi, (%edx)
c0103103: 33 34 35 36 37 38 39         	xorl	959985462(,%esi), %esi
c010310a: 41                           	incl	%ecx
c010310b: 42                           	incl	%edx
c010310c: 43                           	incl	%ebx
c010310d: 44                           	incl	%esp
c010310e: 45                           	incl	%ebp
c010310f: 46                           	incl	%esi
c0103110: 47                           	incl	%edi
c0103111: 48                           	decl	%eax
c0103112: 49                           	decl	%ecx
c0103113: 4a                           	decl	%edx
c0103114: 4b                           	decl	%ebx
c0103115: 4c                           	decl	%esp
c0103116: 4d                           	decl	%ebp
c0103117: 4e                           	decl	%esi
c0103118: 4f                           	decl	%edi
c0103119: 50                           	pushl	%eax
c010311a: 51                           	pushl	%ecx
c010311b: 52                           	pushl	%edx
c010311c: 53                           	pushl	%ebx
c010311d: 54                           	pushl	%esp
c010311e: 55                           	pushl	%ebp
c010311f: 56                           	pushl	%esi
c0103120: 57                           	pushl	%edi
c0103121: 58                           	popl	%eax
c0103122: 59                           	popl	%ecx
c0103123: 5a                           	popl	%edx
c0103124: 00 00                        	addb	%al, (%eax)
c0103126: 00 00                        	addb	%al, (%eax)
c0103128: 30 31                        	xorb	%dh, (%ecx)
c010312a: 32 33                        	xorb	(%ebx), %dh
c010312c: 34 35                        	xorb	$53, %al
c010312e: 36 37                        	aaa
c0103130: 38 39                        	cmpb	%bh, (%ecx)
c0103132: 61                           	popal
c0103133: 62 63 64                     	bound	%esp, 100(%ebx)
c0103136: 65 66 67 68 69 6a            	pushw	$27241
c010313c: 6b 6c 6d 6e 6f               	imull	$111, 110(%ebp,%ebp,2), %ebp
c0103141: 70 71                        	jo	0xc01031b4 <.rodata+0x1b4>
c0103143: 72 73                        	jb	0xc01031b8 <.rodata+0x1b8>
c0103145: 74 75                        	je	0xc01031bc <.rodata+0x1bc>
c0103147: 76 77                        	jbe	0xc01031c0 <.rodata+0x1c0>
c0103149: 78 79                        	js	0xc01031c4 <.rodata+0x1c4>
c010314b: 7a 00                        	jp	0xc010314d <.rodata+0x14d>
c010314d: 00 00                        	addb	%al, (%eax)
c010314f: 00 9c 24 10 c0 ae 24         	addb	%bl, 615432208(%esp)
c0103156: 10 c0                        	adcb	%al, %al
c0103158: ae                           	scasb	%es:(%edi), %al
c0103159: 24 10                        	andb	$16, %al
c010315b: c0 a2 24 10 c0 ae 24         	shlb	$36, -1363144668(%edx)
c0103162: 10 c0                        	adcb	%al, %al
c0103164: ae                           	scasb	%es:(%edi), %al
c0103165: 24 10                        	andb	$16, %al
c0103167: c0 ae 24 10 c0 ae 24         	shrb	$36, -1363144668(%esi)
c010316e: 10 c0                        	adcb	%al, %al
c0103170: ae                           	scasb	%es:(%edi), %al
c0103171: 24 10                        	andb	$16, %al
c0103173: c0 ae 24 10 c0 ae 24         	shrb	$36, -1363144668(%esi)
c010317a: 10 c0                        	adcb	%al, %al
c010317c: 96                           	xchgl	%esi, %eax
c010317d: 24 10                        	andb	$16, %al
c010317f: c0 ae 24 10 c0 90 24         	shrb	$36, -1866461148(%esi)
c0103186: 10 c0                        	adcb	%al, %al
c0103188: ae                           	scasb	%es:(%edi), %al
c0103189: 24 10                        	andb	$16, %al
c010318b: c0 ae 24 10 c0 a8 24         	shrb	$36, -1463807964(%esi)
c0103192: 10 c0                        	adcb	%al, %al
c0103194: 1c 27                        	sbbb	$39, %al
c0103196: 10 c0                        	adcb	%al, %al
c0103198: c1 27 10                     	shll	$16, (%edi)
c010319b: c0 c1 27                     	rolb	$39, %cl
c010319e: 10 c0                        	adcb	%al, %al
c01031a0: c1 27 10                     	shll	$16, (%edi)
c01031a3: c0 c1 27                     	rolb	$39, %cl
c01031a6: 10 c0                        	adcb	%al, %al
c01031a8: c1 27 10                     	shll	$16, (%edi)
c01031ab: c0 c1 27                     	rolb	$39, %cl
c01031ae: 10 c0                        	adcb	%al, %al
c01031b0: c1 27 10                     	shll	$16, (%edi)
c01031b3: c0 c1 27                     	rolb	$39, %cl
c01031b6: 10 c0                        	adcb	%al, %al
c01031b8: c1 27 10                     	shll	$16, (%edi)
c01031bb: c0 7a 27 10                  	sarb	$16, 39(%edx)
c01031bf: c0 a8 25 10 c0 49 27         	shrb	$39, 1237323813(%eax)
c01031c6: 10 c0                        	adcb	%al, %al
c01031c8: c1 27 10                     	shll	$16, (%edi)
c01031cb: c0 c1 27                     	rolb	$39, %cl
c01031ce: 10 c0                        	adcb	%al, %al
c01031d0: c1 27 10                     	shll	$16, (%edi)
c01031d3: c0 c1 27                     	rolb	$39, %cl
c01031d6: 10 c0                        	adcb	%al, %al
c01031d8: 49                           	decl	%ecx
c01031d9: 27                           	daa
c01031da: 10 c0                        	adcb	%al, %al
c01031dc: c1 27 10                     	shll	$16, (%edi)
c01031df: c0 c1 27                     	rolb	$39, %cl
c01031e2: 10 c0                        	adcb	%al, %al
c01031e4: c1 27 10                     	shll	$16, (%edi)
c01031e7: c0 c1 27                     	rolb	$39, %cl
c01031ea: 10 c0                        	adcb	%al, %al
c01031ec: a4                           	movsb	(%esi), %es:(%edi)
c01031ed: 27                           	daa
c01031ee: 10 c0                        	adcb	%al, %al
c01031f0: ad                           	lodsl	(%esi), %eax
c01031f1: 26 10 c0                     	adcb	%al, %al
c01031f4: da 26                        	fisubl	(%esi)
c01031f6: 10 c0                        	adcb	%al, %al
c01031f8: c1 27 10                     	shll	$16, (%edi)
c01031fb: c0 c1 27                     	rolb	$39, %cl
c01031fe: 10 c0                        	adcb	%al, %al
c0103200: ff 25 10 c0 c1 27            	jmpl	*667009040
c0103206: 10 c0                        	adcb	%al, %al
c0103208: 4d                           	decl	%ebp
c0103209: 27                           	daa
c010320a: 10 c0                        	adcb	%al, %al
c010320c: c1 27 10                     	shll	$16, (%edi)
c010320f: c0 c1 27                     	rolb	$39, %cl
c0103212: 10 c0                        	adcb	%al, %al
c0103214: 18 27                        	sbbb	%ah, (%edi)
c0103216: 10 c0                        	adcb	%al, %al
c0103218: 3d 3d 3d 3d 3d               	cmpl	$1027423549, %eax
c010321d: 3d 3d 3d 3d 3d               	cmpl	$1027423549, %eax
c0103222: 3d 3d 3d 3d 3d               	cmpl	$1027423549, %eax
c0103227: 3d 3d 3d 3d 3d               	cmpl	$1027423549, %eax
c010322c: 3d 3d 3d 3d 3d               	cmpl	$1027423549, %eax
c0103231: 3d 3d 3d 3d 3d               	cmpl	$1027423549, %eax
c0103236: 3d 3d 3d 3d 3d               	cmpl	$1027423549, %eax
c010323b: 3d 3d 3d 3d 3d               	cmpl	$1027423549, %eax
c0103240: 3d 3d 3d 3d 3d               	cmpl	$1027423549, %eax
c0103245: 3d 3d 3d 3d 3d               	cmpl	$1027423549, %eax
c010324a: 3d 3d 3d 3d 3d               	cmpl	$1027423549, %eax
c010324f: 3d 3d 3d 3d 3d               	cmpl	$1027423549, %eax
c0103254: 3d 3d 3d 3d 3d               	cmpl	$1027423549, %eax
c0103259: 3d 3d 3d 3d 3d               	cmpl	$1027423549, %eax
c010325e: 3d 3d 3d 3d 3d               	cmpl	$1027423549, %eax
c0103263: 3d 3d 3d 3d 0a               	cmpl	$171785533, %eax
c0103268: 00 4b 65                     	addb	%cl, 101(%ebx)
c010326b: 72 6e                        	jb	0xc01032db <.rodata+0x2db>
c010326d: 65 6c                        	insb	%dx, %es:(%edi)
c010326f: 20 50 61                     	andb	%dl, 97(%eax)
c0103272: 6e                           	outsb	(%esi), %dx
c0103273: 69 63 0a 00 25 73 0a         	imull	$175318272, 10(%ebx), %esp
c010327a: 00 5b 30                     	addb	%bl, 48(%ebx)
c010327d: 78 25                        	js	0xc01032a4 <.rodata+0x2a4>
c010327f: 30 38                        	xorb	%bh, (%eax)
c0103281: 78 5d                        	js	0xc01032e0 <.rodata+0x2e0>
c0103283: 20 25 73 0a 00 25            	andb	%ah, 620759667
c0103289: 64 3a 20                     	cmpb	%fs:(%eax), %ah
c010328c: 20 63 73                     	andb	%ah, 115(%ebx)
c010328f: 20 3d 20 30 78 25            	andb	%bh, 628633632
c0103295: 30 34 78                     	xorb	%dh, (%eax,%edi,2)
c0103298: 0a 00                        	orb	(%eax), %al
c010329a: 25 64 3a 20 20               	andl	$538983012, %eax
c010329f: 64 73 20                     	jae	0xc01032c2 <.rodata+0x2c2>
c01032a2: 3d 20 30 78 25               	cmpl	$628633632, %eax
c01032a7: 30 34 78                     	xorb	%dh, (%eax,%edi,2)
c01032aa: 0a 00                        	orb	(%eax), %al
c01032ac: 25 64 3a 20 20               	andl	$538983012, %eax
c01032b1: 65 73 20                     	jae	0xc01032d4 <.rodata+0x2d4>
c01032b4: 3d 20 30 78 25               	cmpl	$628633632, %eax
c01032b9: 30 34 78                     	xorb	%dh, (%eax,%edi,2)
c01032bc: 0a 00                        	orb	(%eax), %al
c01032be: 25 64 3a 20 20               	andl	$538983012, %eax
c01032c3: 73 73                        	jae	0xc0103338 <.rodata+0x338>
c01032c5: 20 3d 20 30 78 25            	andb	%bh, 628633632
c01032cb: 30 34 78                     	xorb	%dh, (%eax,%edi,2)
c01032ce: 0a 00                        	orb	(%eax), %al
c01032d0: 4d                           	decl	%ebp
c01032d1: 65 6d                        	insl	%dx, %es:(%edi)
c01032d3: 6f                           	outsl	(%esi), %dx
c01032d4: 72 79                        	jb	0xc010334f <.rodata+0x34f>
c01032d6: 20 4d 61                     	andb	%cl, 97(%ebp)
c01032d9: 70 3a                        	jo	0xc0103315 <.rodata+0x315>
c01032db: 0a 00                        	orb	(%eax), %al
c01032dd: 00 00                        	addb	%al, (%eax)
c01032df: 00 42 61                     	addb	%al, 97(%edx)
c01032e2: 73 65                        	jae	0xc0103349 <.rodata+0x349>
c01032e4: 5f                           	popl	%edi
c01032e5: 61                           	popal
c01032e6: 64 64 72 20                  	jb	0xc010330a <.rodata+0x30a>
c01032ea: 3d 20 30 78 25               	cmpl	$628633632, %eax
c01032ef: 58                           	popl	%eax
c01032f0: 25 30 38 58 2c               	andl	$743979056, %eax
c01032f5: 20 4c 65 6e                  	andb	%cl, 110(%ebp,%eiz,2)
c01032f9: 67 74 68                     	je	0xc0103364 <.rodata+0x364>
c01032fc: 20 3d 20 30 78 25            	andb	%bh, 628633632
c0103302: 58                           	popl	%eax
c0103303: 25 30 38 58 2c               	andl	$743979056, %eax
c0103308: 20 54 79 70                  	andb	%dl, 112(%ecx,%edi,2)
c010330c: 65 20 3d 20 30 78 25         	andb	%bh, %gs:628633632
c0103313: 58                           	popl	%eax
c0103314: 0a 00                        	orb	(%eax), %al
c0103316: 2e 73 74                     	jae	0xc010338d <.rodata+0x38d>
c0103319: 72 74                        	jb	0xc010338f <.rodata+0x38f>
c010331b: 61                           	popal
c010331c: 62 00                        	bound	%eax, (%eax)
c010331e: 2e 73 79                     	jae	0xc010339a <.rodata+0x39a>
c0103321: 6d                           	insl	%dx, %es:(%edi)
c0103322: 74 61                        	je	0xc0103385 <.rodata+0x385>
c0103324: 62 00                        	bound	%eax, (%eax)
		...
c0103ffe: 00 00                        	addb	%al, (%eax)

Disassembly of section .data:

c0104000 <video_memory>:
c0104000: 00 80 0b c0 ff ff            	addb	%al, -16373(%eax)

c0104004 <frame_stack_top>:
c0104004: ff ff                        	<unknown>
c0104006: ff ff                        	<unknown>
		...

Disassembly of section .bss:

c0105000 <stack>:
...

c010d000 <glb_mboot_ptr>:
...

c010d020 <gdt>:
...

c010d048 <gdtr>:
...

c010d060 <idt>:
...

c010d860 <idtr>:
...

c010d868 <tick.0>:
...

c010d86c <cursor_x>:
...

c010d86d <cursor_y>:
...

c010d880 <frame_num>:
...

c010d8a0 <frame_stack>:
...

c018d8c0 <intr_handler_table>:
...

c018dcc0 <buf.1>:
...

c018e0c0 <buf.0>:
...

c018e4c0 <kernel_elf>:
...

c018e4d0 <round.0>:
...

Disassembly of section .stab:

c018f000 <.stab>:
c018f000: 01 00                        	addl	%eax, (%eax)
c018f002: 00 00                        	addb	%al, (%eax)
c018f004: 00 00                        	addb	%al, (%eax)
c018f006: a9 06 b3 22 00               	testl	$2274054, %eax
c018f00b: 00 01                        	addb	%al, (%ecx)
c018f00d: 00 00                        	addb	%al, (%eax)
c018f00f: 00 64 00 00                  	addb	%ah, (%eax,%eax)
c018f013: 00 00                        	addb	%al, (%eax)
c018f015: 10 10                        	adcb	%dl, (%eax)
c018f017: c0 00 00                     	rolb	$0, (%eax)
c018f01a: 00 00                        	addb	%al, (%eax)
c018f01c: 44                           	incl	%esp
c018f01d: 00 03                        	addb	%al, (%ebx)
c018f01f: 00 00                        	addb	%al, (%eax)
c018f021: 10 10                        	adcb	%dl, (%eax)
c018f023: c0 00 00                     	rolb	$0, (%eax)
c018f026: 00 00                        	addb	%al, (%eax)
c018f028: 44                           	incl	%esp
c018f029: 00 04 00                     	addb	%al, (%eax,%eax)
c018f02c: 04 10                        	addb	$16, %al
c018f02e: 10 c0                        	adcb	%al, %al
c018f030: 00 00                        	addb	%al, (%eax)
c018f032: 00 00                        	addb	%al, (%eax)
c018f034: 44                           	incl	%esp
c018f035: 00 05 00 07 10 10            	addb	%al, 269485824
c018f03b: c0 00 00                     	rolb	$0, (%eax)
c018f03e: 00 00                        	addb	%al, (%eax)
c018f040: 64 00 00                     	addb	%al, %fs:(%eax)
c018f043: 00 00                        	addb	%al, (%eax)
c018f045: 00 00                        	addb	%al, (%eax)
c018f047: 00 10                        	addb	%dl, (%eax)
c018f049: 00 00                        	addb	%al, (%eax)
c018f04b: 00 64 00 00                  	addb	%ah, (%eax,%eax)
c018f04f: 00 10                        	addb	%dl, (%eax)
c018f051: 10 10                        	adcb	%dl, (%eax)
c018f053: c0 00 00                     	rolb	$0, (%eax)
c018f056: 00 00                        	addb	%al, (%eax)
c018f058: 44                           	incl	%esp
c018f059: 00 03                        	addb	%al, (%ebx)
c018f05b: 00 10                        	addb	%dl, (%eax)
c018f05d: 10 10                        	adcb	%dl, (%eax)
c018f05f: c0 00 00                     	rolb	$0, (%eax)
c018f062: 00 00                        	addb	%al, (%eax)
c018f064: 44                           	incl	%esp
c018f065: 00 04 00                     	addb	%al, (%eax,%eax)
c018f068: 14 10                        	adcb	$16, %al
c018f06a: 10 c0                        	adcb	%al, %al
c018f06c: 00 00                        	addb	%al, (%eax)
c018f06e: 00 00                        	addb	%al, (%eax)
c018f070: 44                           	incl	%esp
c018f071: 00 11                        	addb	%dl, (%ecx)
c018f073: 00 17                        	addb	%dl, (%edi)
c018f075: 10 10                        	adcb	%dl, (%eax)
c018f077: c0 00 00                     	rolb	$0, (%eax)
c018f07a: 00 00                        	addb	%al, (%eax)
c018f07c: 44                           	incl	%esp
c018f07d: 00 12                        	addb	%dl, (%edx)
c018f07f: 00 1b                        	addb	%bl, (%ebx)
c018f081: 10 10                        	adcb	%dl, (%eax)
c018f083: c0 00 00                     	rolb	$0, (%eax)
c018f086: 00 00                        	addb	%al, (%eax)
c018f088: 44                           	incl	%esp
c018f089: 00 13                        	addb	%dl, (%ebx)
c018f08b: 00 1d 10 10 c0 00            	addb	%bl, 12587024
c018f091: 00 00                        	addb	%al, (%eax)
c018f093: 00 44 00 14                  	addb	%al, 20(%eax,%eax)
c018f097: 00 1f                        	addb	%bl, (%edi)
c018f099: 10 10                        	adcb	%dl, (%eax)
c018f09b: c0 00 00                     	rolb	$0, (%eax)
c018f09e: 00 00                        	addb	%al, (%eax)
c018f0a0: 44                           	incl	%esp
c018f0a1: 00 15 00 21 10 10            	addb	%dl, 269492480
c018f0a7: c0 00 00                     	rolb	$0, (%eax)
c018f0aa: 00 00                        	addb	%al, (%eax)
c018f0ac: 44                           	incl	%esp
c018f0ad: 00 16                        	addb	%dl, (%esi)
c018f0af: 00 23                        	addb	%ah, (%ebx)
c018f0b1: 10 10                        	adcb	%dl, (%eax)
c018f0b3: c0 00 00                     	rolb	$0, (%eax)
c018f0b6: 00 00                        	addb	%al, (%eax)
c018f0b8: 44                           	incl	%esp
c018f0b9: 00 18                        	addb	%bl, (%eax)
c018f0bb: 00 25 10 10 c0 00            	addb	%ah, 12587024
c018f0c1: 00 00                        	addb	%al, (%eax)
c018f0c3: 00 44 00 1b                  	addb	%al, 27(%eax,%eax)
c018f0c7: 00 2c 10                     	addb	%ch, (%eax,%edx)
c018f0ca: 10 c0                        	adcb	%al, %al
c018f0cc: 00 00                        	addb	%al, (%eax)
c018f0ce: 00 00                        	addb	%al, (%eax)
c018f0d0: 64 00 00                     	addb	%al, %fs:(%eax)
		...
c018f0db: 00 64 00 01                  	addb	%ah, 1(%eax,%eax)
c018f0df: 00 00                        	addb	%al, (%eax)
c018f0e1: 00 00                        	addb	%al, (%eax)
c018f0e3: 00 1f                        	addb	%bl, (%edi)
c018f0e5: 00 00                        	addb	%al, (%eax)
c018f0e7: 00 64 00 00                  	addb	%ah, (%eax,%eax)
c018f0eb: 00 30                        	addb	%dh, (%eax)
c018f0ed: 10 10                        	adcb	%dl, (%eax)
c018f0ef: c0 00 00                     	rolb	$0, (%eax)
c018f0f2: 00 00                        	addb	%al, (%eax)
c018f0f4: 44                           	incl	%esp
c018f0f5: 00 04 00                     	addb	%al, (%eax,%eax)
c018f0f8: 30 10                        	xorb	%dl, (%eax)
c018f0fa: 10 c0                        	adcb	%al, %al
c018f0fc: 00 00                        	addb	%al, (%eax)
c018f0fe: 00 00                        	addb	%al, (%eax)
c018f100: 44                           	incl	%esp
c018f101: 00 05 00 31 10 10            	addb	%al, 269496576
c018f107: c0 00 00                     	rolb	$0, (%eax)
c018f10a: 00 00                        	addb	%al, (%eax)
c018f10c: 44                           	incl	%esp
c018f10d: 00 06                        	addb	%al, (%esi)
c018f10f: 00 33                        	addb	%dh, (%ebx)
c018f111: 10 10                        	adcb	%dl, (%eax)
c018f113: c0 00 00                     	rolb	$0, (%eax)
c018f116: 00 00                        	addb	%al, (%eax)
c018f118: 44                           	incl	%esp
c018f119: 00 07                        	addb	%al, (%edi)
c018f11b: 00 35 10 10 c0 00            	addb	%dh, 12587024
c018f121: 00 00                        	addb	%al, (%eax)
c018f123: 00 44 00 04                  	addb	%al, 4(%eax,%eax)
c018f127: 00 3a                        	addb	%bh, (%edx)
c018f129: 10 10                        	adcb	%dl, (%eax)
c018f12b: c0 00 00                     	rolb	$0, (%eax)
c018f12e: 00 00                        	addb	%al, (%eax)
c018f130: 44                           	incl	%esp
c018f131: 00 05 00 3b 10 10            	addb	%al, 269499136
c018f137: c0 00 00                     	rolb	$0, (%eax)
c018f13a: 00 00                        	addb	%al, (%eax)
c018f13c: 44                           	incl	%esp
c018f13d: 00 06                        	addb	%al, (%esi)
c018f13f: 00 3d 10 10 c0 00            	addb	%bh, 12587024
c018f145: 00 00                        	addb	%al, (%eax)
c018f147: 00 44 00 07                  	addb	%al, 7(%eax,%eax)
c018f14b: 00 3f                        	addb	%bh, (%edi)
c018f14d: 10 10                        	adcb	%dl, (%eax)
c018f14f: c0 00 00                     	rolb	$0, (%eax)
c018f152: 00 00                        	addb	%al, (%eax)
c018f154: 44                           	incl	%esp
c018f155: 00 04 00                     	addb	%al, (%eax,%eax)
c018f158: 44                           	incl	%esp
c018f159: 10 10                        	adcb	%dl, (%eax)
c018f15b: c0 00 00                     	rolb	$0, (%eax)
c018f15e: 00 00                        	addb	%al, (%eax)
c018f160: 44                           	incl	%esp
c018f161: 00 05 00 45 10 10            	addb	%al, 269501696
c018f167: c0 00 00                     	rolb	$0, (%eax)
c018f16a: 00 00                        	addb	%al, (%eax)
c018f16c: 44                           	incl	%esp
c018f16d: 00 06                        	addb	%al, (%esi)
c018f16f: 00 47 10                     	addb	%al, 16(%edi)
c018f172: 10 c0                        	adcb	%al, %al
c018f174: 00 00                        	addb	%al, (%eax)
c018f176: 00 00                        	addb	%al, (%eax)
c018f178: 44                           	incl	%esp
c018f179: 00 07                        	addb	%al, (%edi)
c018f17b: 00 49 10                     	addb	%cl, 16(%ecx)
c018f17e: 10 c0                        	adcb	%al, %al
c018f180: 00 00                        	addb	%al, (%eax)
c018f182: 00 00                        	addb	%al, (%eax)
c018f184: 44                           	incl	%esp
c018f185: 00 04 00                     	addb	%al, (%eax,%eax)
c018f188: 4e                           	decl	%esi
c018f189: 10 10                        	adcb	%dl, (%eax)
c018f18b: c0 00 00                     	rolb	$0, (%eax)
c018f18e: 00 00                        	addb	%al, (%eax)
c018f190: 44                           	incl	%esp
c018f191: 00 05 00 4f 10 10            	addb	%al, 269504256
c018f197: c0 00 00                     	rolb	$0, (%eax)
c018f19a: 00 00                        	addb	%al, (%eax)
c018f19c: 44                           	incl	%esp
c018f19d: 00 06                        	addb	%al, (%esi)
c018f19f: 00 51 10                     	addb	%dl, 16(%ecx)
c018f1a2: 10 c0                        	adcb	%al, %al
c018f1a4: 00 00                        	addb	%al, (%eax)
c018f1a6: 00 00                        	addb	%al, (%eax)
c018f1a8: 44                           	incl	%esp
c018f1a9: 00 07                        	addb	%al, (%edi)
c018f1ab: 00 53 10                     	addb	%dl, 16(%ebx)
c018f1ae: 10 c0                        	adcb	%al, %al
c018f1b0: 00 00                        	addb	%al, (%eax)
c018f1b2: 00 00                        	addb	%al, (%eax)
c018f1b4: 44                           	incl	%esp
c018f1b5: 00 04 00                     	addb	%al, (%eax,%eax)
c018f1b8: 58                           	popl	%eax
c018f1b9: 10 10                        	adcb	%dl, (%eax)
c018f1bb: c0 00 00                     	rolb	$0, (%eax)
c018f1be: 00 00                        	addb	%al, (%eax)
c018f1c0: 44                           	incl	%esp
c018f1c1: 00 05 00 59 10 10            	addb	%al, 269506816
c018f1c7: c0 00 00                     	rolb	$0, (%eax)
c018f1ca: 00 00                        	addb	%al, (%eax)
c018f1cc: 44                           	incl	%esp
c018f1cd: 00 06                        	addb	%al, (%esi)
c018f1cf: 00 5b 10                     	addb	%bl, 16(%ebx)
c018f1d2: 10 c0                        	adcb	%al, %al
c018f1d4: 00 00                        	addb	%al, (%eax)
c018f1d6: 00 00                        	addb	%al, (%eax)
c018f1d8: 44                           	incl	%esp
c018f1d9: 00 07                        	addb	%al, (%edi)
c018f1db: 00 5d 10                     	addb	%bl, 16(%ebp)
c018f1de: 10 c0                        	adcb	%al, %al
c018f1e0: 00 00                        	addb	%al, (%eax)
c018f1e2: 00 00                        	addb	%al, (%eax)
c018f1e4: 44                           	incl	%esp
c018f1e5: 00 04 00                     	addb	%al, (%eax,%eax)
c018f1e8: 62 10                        	bound	%edx, (%eax)
c018f1ea: 10 c0                        	adcb	%al, %al
c018f1ec: 00 00                        	addb	%al, (%eax)
c018f1ee: 00 00                        	addb	%al, (%eax)
c018f1f0: 44                           	incl	%esp
c018f1f1: 00 05 00 63 10 10            	addb	%al, 269509376
c018f1f7: c0 00 00                     	rolb	$0, (%eax)
c018f1fa: 00 00                        	addb	%al, (%eax)
c018f1fc: 44                           	incl	%esp
c018f1fd: 00 06                        	addb	%al, (%esi)
c018f1ff: 00 65 10                     	addb	%ah, 16(%ebp)
c018f202: 10 c0                        	adcb	%al, %al
c018f204: 00 00                        	addb	%al, (%eax)
c018f206: 00 00                        	addb	%al, (%eax)
c018f208: 44                           	incl	%esp
c018f209: 00 07                        	addb	%al, (%edi)
c018f20b: 00 67 10                     	addb	%ah, 16(%edi)
c018f20e: 10 c0                        	adcb	%al, %al
c018f210: 00 00                        	addb	%al, (%eax)
c018f212: 00 00                        	addb	%al, (%eax)
c018f214: 44                           	incl	%esp
c018f215: 00 04 00                     	addb	%al, (%eax,%eax)
c018f218: 6c                           	insb	%dx, %es:(%edi)
c018f219: 10 10                        	adcb	%dl, (%eax)
c018f21b: c0 00 00                     	rolb	$0, (%eax)
c018f21e: 00 00                        	addb	%al, (%eax)
c018f220: 44                           	incl	%esp
c018f221: 00 05 00 6d 10 10            	addb	%al, 269511936
c018f227: c0 00 00                     	rolb	$0, (%eax)
c018f22a: 00 00                        	addb	%al, (%eax)
c018f22c: 44                           	incl	%esp
c018f22d: 00 06                        	addb	%al, (%esi)
c018f22f: 00 6f 10                     	addb	%ch, 16(%edi)
c018f232: 10 c0                        	adcb	%al, %al
c018f234: 00 00                        	addb	%al, (%eax)
c018f236: 00 00                        	addb	%al, (%eax)
c018f238: 44                           	incl	%esp
c018f239: 00 07                        	addb	%al, (%edi)
c018f23b: 00 71 10                     	addb	%dh, 16(%ecx)
c018f23e: 10 c0                        	adcb	%al, %al
c018f240: 00 00                        	addb	%al, (%eax)
c018f242: 00 00                        	addb	%al, (%eax)
c018f244: 44                           	incl	%esp
c018f245: 00 04 00                     	addb	%al, (%eax,%eax)
c018f248: 76 10                        	jbe	0xc018f25a <.stab+0x25a>
c018f24a: 10 c0                        	adcb	%al, %al
c018f24c: 00 00                        	addb	%al, (%eax)
c018f24e: 00 00                        	addb	%al, (%eax)
c018f250: 44                           	incl	%esp
c018f251: 00 05 00 77 10 10            	addb	%al, 269514496
c018f257: c0 00 00                     	rolb	$0, (%eax)
c018f25a: 00 00                        	addb	%al, (%eax)
c018f25c: 44                           	incl	%esp
c018f25d: 00 06                        	addb	%al, (%esi)
c018f25f: 00 79 10                     	addb	%bh, 16(%ecx)
c018f262: 10 c0                        	adcb	%al, %al
c018f264: 00 00                        	addb	%al, (%eax)
c018f266: 00 00                        	addb	%al, (%eax)
c018f268: 44                           	incl	%esp
c018f269: 00 07                        	addb	%al, (%edi)
c018f26b: 00 7b 10                     	addb	%bh, 16(%ebx)
c018f26e: 10 c0                        	adcb	%al, %al
c018f270: 00 00                        	addb	%al, (%eax)
c018f272: 00 00                        	addb	%al, (%eax)
c018f274: 44                           	incl	%esp
c018f275: 00 0d 00 80 10 10            	addb	%cl, 269516800
c018f27b: c0 00 00                     	rolb	$0, (%eax)
c018f27e: 00 00                        	addb	%al, (%eax)
c018f280: 44                           	incl	%esp
c018f281: 00 0e                        	addb	%cl, (%esi)
c018f283: 00 81 10 10 c0 00            	addb	%al, 12587024(%ecx)
c018f289: 00 00                        	addb	%al, (%eax)
c018f28b: 00 44 00 0f                  	addb	%al, 15(%eax,%eax)
c018f28f: 00 83 10 10 c0 00            	addb	%al, 12587024(%ebx)
c018f295: 00 00                        	addb	%al, (%eax)
c018f297: 00 44 00 04                  	addb	%al, 4(%eax,%eax)
c018f29b: 00 88 10 10 c0 00            	addb	%cl, 12587024(%eax)
c018f2a1: 00 00                        	addb	%al, (%eax)
c018f2a3: 00 44 00 05                  	addb	%al, 5(%eax,%eax)
c018f2a7: 00 89 10 10 c0 00            	addb	%cl, 12587024(%ecx)
c018f2ad: 00 00                        	addb	%al, (%eax)
c018f2af: 00 44 00 06                  	addb	%al, 6(%eax,%eax)
c018f2b3: 00 8b 10 10 c0 00            	addb	%cl, 12587024(%ebx)
c018f2b9: 00 00                        	addb	%al, (%eax)
c018f2bb: 00 44 00 07                  	addb	%al, 7(%eax,%eax)
c018f2bf: 00 8d 10 10 c0 00            	addb	%cl, 12587024(%ebp)
c018f2c5: 00 00                        	addb	%al, (%eax)
c018f2c7: 00 44 00 0d                  	addb	%al, 13(%eax,%eax)
c018f2cb: 00 92 10 10 c0 00            	addb	%dl, 12587024(%edx)
c018f2d1: 00 00                        	addb	%al, (%eax)
c018f2d3: 00 44 00 0e                  	addb	%al, 14(%eax,%eax)
c018f2d7: 00 93 10 10 c0 00            	addb	%dl, 12587024(%ebx)
c018f2dd: 00 00                        	addb	%al, (%eax)
c018f2df: 00 44 00 0f                  	addb	%al, 15(%eax,%eax)
c018f2e3: 00 95 10 10 c0 00            	addb	%dl, 12587024(%ebp)
c018f2e9: 00 00                        	addb	%al, (%eax)
c018f2eb: 00 44 00 0d                  	addb	%al, 13(%eax,%eax)
c018f2ef: 00 9a 10 10 c0 00            	addb	%bl, 12587024(%edx)
c018f2f5: 00 00                        	addb	%al, (%eax)
c018f2f7: 00 44 00 0e                  	addb	%al, 14(%eax,%eax)
c018f2fb: 00 9b 10 10 c0 00            	addb	%bl, 12587024(%ebx)
c018f301: 00 00                        	addb	%al, (%eax)
c018f303: 00 44 00 0f                  	addb	%al, 15(%eax,%eax)
c018f307: 00 9d 10 10 c0 00            	addb	%bl, 12587024(%ebp)
c018f30d: 00 00                        	addb	%al, (%eax)
c018f30f: 00 44 00 0d                  	addb	%al, 13(%eax,%eax)
c018f313: 00 a2 10 10 c0 00            	addb	%ah, 12587024(%edx)
c018f319: 00 00                        	addb	%al, (%eax)
c018f31b: 00 44 00 0e                  	addb	%al, 14(%eax,%eax)
c018f31f: 00 a3 10 10 c0 00            	addb	%ah, 12587024(%ebx)
c018f325: 00 00                        	addb	%al, (%eax)
c018f327: 00 44 00 0f                  	addb	%al, 15(%eax,%eax)
c018f32b: 00 a5 10 10 c0 00            	addb	%ah, 12587024(%ebp)
c018f331: 00 00                        	addb	%al, (%eax)
c018f333: 00 44 00 0d                  	addb	%al, 13(%eax,%eax)
c018f337: 00 a7 10 10 c0 00            	addb	%ah, 12587024(%edi)
c018f33d: 00 00                        	addb	%al, (%eax)
c018f33f: 00 44 00 0e                  	addb	%al, 14(%eax,%eax)
c018f343: 00 a8 10 10 c0 00            	addb	%ch, 12587024(%eax)
c018f349: 00 00                        	addb	%al, (%eax)
c018f34b: 00 44 00 0f                  	addb	%al, 15(%eax,%eax)
c018f34f: 00 aa 10 10 c0 00            	addb	%ch, 12587024(%edx)
c018f355: 00 00                        	addb	%al, (%eax)
c018f357: 00 44 00 0d                  	addb	%al, 13(%eax,%eax)
c018f35b: 00 ac 10 10 c0 00 00         	addb	%ch, 49168(%eax,%edx)
c018f362: 00 00                        	addb	%al, (%eax)
c018f364: 44                           	incl	%esp
c018f365: 00 0e                        	addb	%cl, (%esi)
c018f367: 00 ad 10 10 c0 00            	addb	%ch, 12587024(%ebp)
c018f36d: 00 00                        	addb	%al, (%eax)
c018f36f: 00 44 00 0f                  	addb	%al, 15(%eax,%eax)
c018f373: 00 af 10 10 c0 00            	addb	%ch, 12587024(%edi)
c018f379: 00 00                        	addb	%al, (%eax)
c018f37b: 00 44 00 04                  	addb	%al, 4(%eax,%eax)
c018f37f: 00 b1 10 10 c0 00            	addb	%dh, 12587024(%ecx)
c018f385: 00 00                        	addb	%al, (%eax)
c018f387: 00 44 00 05                  	addb	%al, 5(%eax,%eax)
c018f38b: 00 b2 10 10 c0 00            	addb	%dh, 12587024(%edx)
c018f391: 00 00                        	addb	%al, (%eax)
c018f393: 00 44 00 06                  	addb	%al, 6(%eax,%eax)
c018f397: 00 b4 10 10 c0 00 00         	addb	%dh, 49168(%eax,%edx)
c018f39e: 00 00                        	addb	%al, (%eax)
c018f3a0: 44                           	incl	%esp
c018f3a1: 00 07                        	addb	%al, (%edi)
c018f3a3: 00 b6 10 10 c0 00            	addb	%dh, 12587024(%esi)
c018f3a9: 00 00                        	addb	%al, (%eax)
c018f3ab: 00 44 00 04                  	addb	%al, 4(%eax,%eax)
c018f3af: 00 b8 10 10 c0 00            	addb	%bh, 12587024(%eax)
c018f3b5: 00 00                        	addb	%al, (%eax)
c018f3b7: 00 44 00 05                  	addb	%al, 5(%eax,%eax)
c018f3bb: 00 b9 10 10 c0 00            	addb	%bh, 12587024(%ecx)
c018f3c1: 00 00                        	addb	%al, (%eax)
c018f3c3: 00 44 00 06                  	addb	%al, 6(%eax,%eax)
c018f3c7: 00 bb 10 10 c0 00            	addb	%bh, 12587024(%ebx)
c018f3cd: 00 00                        	addb	%al, (%eax)
c018f3cf: 00 44 00 07                  	addb	%al, 7(%eax,%eax)
c018f3d3: 00 bd 10 10 c0 00            	addb	%bh, 12587024(%ebp)
c018f3d9: 00 00                        	addb	%al, (%eax)
c018f3db: 00 44 00 0d                  	addb	%al, 13(%eax,%eax)
c018f3df: 00 bf 10 10 c0 00            	addb	%bh, 12587024(%edi)
c018f3e5: 00 00                        	addb	%al, (%eax)
c018f3e7: 00 44 00 0e                  	addb	%al, 14(%eax,%eax)
c018f3eb: 00 c0                        	addb	%al, %al
c018f3ed: 10 10                        	adcb	%dl, (%eax)
c018f3ef: c0 00 00                     	rolb	$0, (%eax)
c018f3f2: 00 00                        	addb	%al, (%eax)
c018f3f4: 44                           	incl	%esp
c018f3f5: 00 0f                        	addb	%cl, (%edi)
c018f3f7: 00 c2                        	addb	%al, %dl
c018f3f9: 10 10                        	adcb	%dl, (%eax)
c018f3fb: c0 00 00                     	rolb	$0, (%eax)
c018f3fe: 00 00                        	addb	%al, (%eax)
c018f400: 44                           	incl	%esp
c018f401: 00 04 00                     	addb	%al, (%eax,%eax)
c018f404: c4 10                        	lesl	(%eax), %edx
c018f406: 10 c0                        	adcb	%al, %al
c018f408: 00 00                        	addb	%al, (%eax)
c018f40a: 00 00                        	addb	%al, (%eax)
c018f40c: 44                           	incl	%esp
c018f40d: 00 05 00 c5 10 10            	addb	%al, 269534464
c018f413: c0 00 00                     	rolb	$0, (%eax)
c018f416: 00 00                        	addb	%al, (%eax)
c018f418: 44                           	incl	%esp
c018f419: 00 06                        	addb	%al, (%esi)
c018f41b: 00 c7                        	addb	%al, %bh
c018f41d: 10 10                        	adcb	%dl, (%eax)
c018f41f: c0 00 00                     	rolb	$0, (%eax)
c018f422: 00 00                        	addb	%al, (%eax)
c018f424: 44                           	incl	%esp
c018f425: 00 07                        	addb	%al, (%edi)
c018f427: 00 c9                        	addb	%cl, %cl
c018f429: 10 10                        	adcb	%dl, (%eax)
c018f42b: c0 00 00                     	rolb	$0, (%eax)
c018f42e: 00 00                        	addb	%al, (%eax)
c018f430: 44                           	incl	%esp
c018f431: 00 04 00                     	addb	%al, (%eax,%eax)
c018f434: cb                           	lretl
c018f435: 10 10                        	adcb	%dl, (%eax)
c018f437: c0 00 00                     	rolb	$0, (%eax)
c018f43a: 00 00                        	addb	%al, (%eax)
c018f43c: 44                           	incl	%esp
c018f43d: 00 05 00 cc 10 10            	addb	%al, 269536256
c018f443: c0 00 00                     	rolb	$0, (%eax)
c018f446: 00 00                        	addb	%al, (%eax)
c018f448: 44                           	incl	%esp
c018f449: 00 06                        	addb	%al, (%esi)
c018f44b: 00 ce                        	addb	%cl, %dh
c018f44d: 10 10                        	adcb	%dl, (%eax)
c018f44f: c0 00 00                     	rolb	$0, (%eax)
c018f452: 00 00                        	addb	%al, (%eax)
c018f454: 44                           	incl	%esp
c018f455: 00 07                        	addb	%al, (%edi)
c018f457: 00 d0                        	addb	%dl, %al
c018f459: 10 10                        	adcb	%dl, (%eax)
c018f45b: c0 00 00                     	rolb	$0, (%eax)
c018f45e: 00 00                        	addb	%al, (%eax)
c018f460: 44                           	incl	%esp
c018f461: 00 04 00                     	addb	%al, (%eax,%eax)
c018f464: d2 10                        	rclb	%cl, (%eax)
c018f466: 10 c0                        	adcb	%al, %al
c018f468: 00 00                        	addb	%al, (%eax)
c018f46a: 00 00                        	addb	%al, (%eax)
c018f46c: 44                           	incl	%esp
c018f46d: 00 05 00 d3 10 10            	addb	%al, 269538048
c018f473: c0 00 00                     	rolb	$0, (%eax)
c018f476: 00 00                        	addb	%al, (%eax)
c018f478: 44                           	incl	%esp
c018f479: 00 06                        	addb	%al, (%esi)
c018f47b: 00 d5                        	addb	%dl, %ch
c018f47d: 10 10                        	adcb	%dl, (%eax)
c018f47f: c0 00 00                     	rolb	$0, (%eax)
c018f482: 00 00                        	addb	%al, (%eax)
c018f484: 44                           	incl	%esp
c018f485: 00 07                        	addb	%al, (%edi)
c018f487: 00 d7                        	addb	%dl, %bh
c018f489: 10 10                        	adcb	%dl, (%eax)
c018f48b: c0 00 00                     	rolb	$0, (%eax)
c018f48e: 00 00                        	addb	%al, (%eax)
c018f490: 44                           	incl	%esp
c018f491: 00 04 00                     	addb	%al, (%eax,%eax)
c018f494: d9 10                        	fsts	(%eax)
c018f496: 10 c0                        	adcb	%al, %al
c018f498: 00 00                        	addb	%al, (%eax)
c018f49a: 00 00                        	addb	%al, (%eax)
c018f49c: 44                           	incl	%esp
c018f49d: 00 05 00 da 10 10            	addb	%al, 269539840
c018f4a3: c0 00 00                     	rolb	$0, (%eax)
c018f4a6: 00 00                        	addb	%al, (%eax)
c018f4a8: 44                           	incl	%esp
c018f4a9: 00 06                        	addb	%al, (%esi)
c018f4ab: 00 dc                        	addb	%bl, %ah
c018f4ad: 10 10                        	adcb	%dl, (%eax)
c018f4af: c0 00 00                     	rolb	$0, (%eax)
c018f4b2: 00 00                        	addb	%al, (%eax)
c018f4b4: 44                           	incl	%esp
c018f4b5: 00 07                        	addb	%al, (%edi)
c018f4b7: 00 de                        	addb	%bl, %dh
c018f4b9: 10 10                        	adcb	%dl, (%eax)
c018f4bb: c0 00 00                     	rolb	$0, (%eax)
c018f4be: 00 00                        	addb	%al, (%eax)
c018f4c0: 44                           	incl	%esp
c018f4c1: 00 04 00                     	addb	%al, (%eax,%eax)
c018f4c4: e0 10                        	loopne	0xc018f4d6 <.stab+0x4d6>
c018f4c6: 10 c0                        	adcb	%al, %al
c018f4c8: 00 00                        	addb	%al, (%eax)
c018f4ca: 00 00                        	addb	%al, (%eax)
c018f4cc: 44                           	incl	%esp
c018f4cd: 00 05 00 e1 10 10            	addb	%al, 269541632
c018f4d3: c0 00 00                     	rolb	$0, (%eax)
c018f4d6: 00 00                        	addb	%al, (%eax)
c018f4d8: 44                           	incl	%esp
c018f4d9: 00 06                        	addb	%al, (%esi)
c018f4db: 00 e3                        	addb	%ah, %bl
c018f4dd: 10 10                        	adcb	%dl, (%eax)
c018f4df: c0 00 00                     	rolb	$0, (%eax)
c018f4e2: 00 00                        	addb	%al, (%eax)
c018f4e4: 44                           	incl	%esp
c018f4e5: 00 07                        	addb	%al, (%edi)
c018f4e7: 00 e5                        	addb	%ah, %ch
c018f4e9: 10 10                        	adcb	%dl, (%eax)
c018f4eb: c0 00 00                     	rolb	$0, (%eax)
c018f4ee: 00 00                        	addb	%al, (%eax)
c018f4f0: 44                           	incl	%esp
c018f4f1: 00 04 00                     	addb	%al, (%eax,%eax)
c018f4f4: e7 10                        	outl	%eax, $16
c018f4f6: 10 c0                        	adcb	%al, %al
c018f4f8: 00 00                        	addb	%al, (%eax)
c018f4fa: 00 00                        	addb	%al, (%eax)
c018f4fc: 44                           	incl	%esp
c018f4fd: 00 05 00 e8 10 10            	addb	%al, 269543424
c018f503: c0 00 00                     	rolb	$0, (%eax)
c018f506: 00 00                        	addb	%al, (%eax)
c018f508: 44                           	incl	%esp
c018f509: 00 06                        	addb	%al, (%esi)
c018f50b: 00 ea                        	addb	%ch, %dl
c018f50d: 10 10                        	adcb	%dl, (%eax)
c018f50f: c0 00 00                     	rolb	$0, (%eax)
c018f512: 00 00                        	addb	%al, (%eax)
c018f514: 44                           	incl	%esp
c018f515: 00 07                        	addb	%al, (%edi)
c018f517: 00 ec                        	addb	%ch, %ah
c018f519: 10 10                        	adcb	%dl, (%eax)
c018f51b: c0 00 00                     	rolb	$0, (%eax)
c018f51e: 00 00                        	addb	%al, (%eax)
c018f520: 44                           	incl	%esp
c018f521: 00 04 00                     	addb	%al, (%eax,%eax)
c018f524: ee                           	outb	%al, %dx
c018f525: 10 10                        	adcb	%dl, (%eax)
c018f527: c0 00 00                     	rolb	$0, (%eax)
c018f52a: 00 00                        	addb	%al, (%eax)
c018f52c: 44                           	incl	%esp
c018f52d: 00 05 00 ef 10 10            	addb	%al, 269545216
c018f533: c0 00 00                     	rolb	$0, (%eax)
c018f536: 00 00                        	addb	%al, (%eax)
c018f538: 44                           	incl	%esp
c018f539: 00 06                        	addb	%al, (%esi)
c018f53b: 00 f1                        	addb	%dh, %cl
c018f53d: 10 10                        	adcb	%dl, (%eax)
c018f53f: c0 00 00                     	rolb	$0, (%eax)
c018f542: 00 00                        	addb	%al, (%eax)
c018f544: 44                           	incl	%esp
c018f545: 00 07                        	addb	%al, (%edi)
c018f547: 00 f3                        	addb	%dh, %bl
c018f549: 10 10                        	adcb	%dl, (%eax)
c018f54b: c0 00 00                     	rolb	$0, (%eax)
c018f54e: 00 00                        	addb	%al, (%eax)
c018f550: 44                           	incl	%esp
c018f551: 00 04 00                     	addb	%al, (%eax,%eax)
c018f554: f5                           	cmc
c018f555: 10 10                        	adcb	%dl, (%eax)
c018f557: c0 00 00                     	rolb	$0, (%eax)
c018f55a: 00 00                        	addb	%al, (%eax)
c018f55c: 44                           	incl	%esp
c018f55d: 00 05 00 f6 10 10            	addb	%al, 269547008
c018f563: c0 00 00                     	rolb	$0, (%eax)
c018f566: 00 00                        	addb	%al, (%eax)
c018f568: 44                           	incl	%esp
c018f569: 00 06                        	addb	%al, (%esi)
c018f56b: 00 f8                        	addb	%bh, %al
c018f56d: 10 10                        	adcb	%dl, (%eax)
c018f56f: c0 00 00                     	rolb	$0, (%eax)
c018f572: 00 00                        	addb	%al, (%eax)
c018f574: 44                           	incl	%esp
c018f575: 00 07                        	addb	%al, (%edi)
c018f577: 00 fa                        	addb	%bh, %dl
c018f579: 10 10                        	adcb	%dl, (%eax)
c018f57b: c0 00 00                     	rolb	$0, (%eax)
c018f57e: 00 00                        	addb	%al, (%eax)
c018f580: 44                           	incl	%esp
c018f581: 00 04 00                     	addb	%al, (%eax,%eax)
c018f584: fc                           	cld
c018f585: 10 10                        	adcb	%dl, (%eax)
c018f587: c0 00 00                     	rolb	$0, (%eax)
c018f58a: 00 00                        	addb	%al, (%eax)
c018f58c: 44                           	incl	%esp
c018f58d: 00 05 00 fd 10 10            	addb	%al, 269548800
c018f593: c0 00 00                     	rolb	$0, (%eax)
c018f596: 00 00                        	addb	%al, (%eax)
c018f598: 44                           	incl	%esp
c018f599: 00 06                        	addb	%al, (%esi)
c018f59b: 00 ff                        	addb	%bh, %bh
c018f59d: 10 10                        	adcb	%dl, (%eax)
c018f59f: c0 00 00                     	rolb	$0, (%eax)
c018f5a2: 00 00                        	addb	%al, (%eax)
c018f5a4: 44                           	incl	%esp
c018f5a5: 00 07                        	addb	%al, (%edi)
c018f5a7: 00 01                        	addb	%al, (%ecx)
c018f5a9: 11 10                        	adcl	%edx, (%eax)
c018f5ab: c0 00 00                     	rolb	$0, (%eax)
c018f5ae: 00 00                        	addb	%al, (%eax)
c018f5b0: 44                           	incl	%esp
c018f5b1: 00 04 00                     	addb	%al, (%eax,%eax)
c018f5b4: 03 11                        	addl	(%ecx), %edx
c018f5b6: 10 c0                        	adcb	%al, %al
c018f5b8: 00 00                        	addb	%al, (%eax)
c018f5ba: 00 00                        	addb	%al, (%eax)
c018f5bc: 44                           	incl	%esp
c018f5bd: 00 05 00 04 11 10            	addb	%al, 269550592
c018f5c3: c0 00 00                     	rolb	$0, (%eax)
c018f5c6: 00 00                        	addb	%al, (%eax)
c018f5c8: 44                           	incl	%esp
c018f5c9: 00 06                        	addb	%al, (%esi)
c018f5cb: 00 06                        	addb	%al, (%esi)
c018f5cd: 11 10                        	adcl	%edx, (%eax)
c018f5cf: c0 00 00                     	rolb	$0, (%eax)
c018f5d2: 00 00                        	addb	%al, (%eax)
c018f5d4: 44                           	incl	%esp
c018f5d5: 00 07                        	addb	%al, (%edi)
c018f5d7: 00 08                        	addb	%cl, (%eax)
c018f5d9: 11 10                        	adcl	%edx, (%eax)
c018f5db: c0 00 00                     	rolb	$0, (%eax)
c018f5de: 00 00                        	addb	%al, (%eax)
c018f5e0: 44                           	incl	%esp
c018f5e1: 00 04 00                     	addb	%al, (%eax,%eax)
c018f5e4: 0a 11                        	orb	(%ecx), %dl
c018f5e6: 10 c0                        	adcb	%al, %al
c018f5e8: 00 00                        	addb	%al, (%eax)
c018f5ea: 00 00                        	addb	%al, (%eax)
c018f5ec: 44                           	incl	%esp
c018f5ed: 00 05 00 0b 11 10            	addb	%al, 269552384
c018f5f3: c0 00 00                     	rolb	$0, (%eax)
c018f5f6: 00 00                        	addb	%al, (%eax)
c018f5f8: 44                           	incl	%esp
c018f5f9: 00 06                        	addb	%al, (%esi)
c018f5fb: 00 0d 11 10 c0 00            	addb	%cl, 12587025
c018f601: 00 00                        	addb	%al, (%eax)
c018f603: 00 44 00 07                  	addb	%al, 7(%eax,%eax)
c018f607: 00 0f                        	addb	%cl, (%edi)
c018f609: 11 10                        	adcl	%edx, (%eax)
c018f60b: c0 00 00                     	rolb	$0, (%eax)
c018f60e: 00 00                        	addb	%al, (%eax)
c018f610: 44                           	incl	%esp
c018f611: 00 04 00                     	addb	%al, (%eax,%eax)
c018f614: 11 11                        	adcl	%edx, (%ecx)
c018f616: 10 c0                        	adcb	%al, %al
c018f618: 00 00                        	addb	%al, (%eax)
c018f61a: 00 00                        	addb	%al, (%eax)
c018f61c: 44                           	incl	%esp
c018f61d: 00 05 00 12 11 10            	addb	%al, 269554176
c018f623: c0 00 00                     	rolb	$0, (%eax)
c018f626: 00 00                        	addb	%al, (%eax)
c018f628: 44                           	incl	%esp
c018f629: 00 06                        	addb	%al, (%esi)
c018f62b: 00 14 11                     	addb	%dl, (%ecx,%edx)
c018f62e: 10 c0                        	adcb	%al, %al
c018f630: 00 00                        	addb	%al, (%eax)
c018f632: 00 00                        	addb	%al, (%eax)
c018f634: 44                           	incl	%esp
c018f635: 00 07                        	addb	%al, (%edi)
c018f637: 00 16                        	addb	%dl, (%esi)
c018f639: 11 10                        	adcl	%edx, (%eax)
c018f63b: c0 00 00                     	rolb	$0, (%eax)
c018f63e: 00 00                        	addb	%al, (%eax)
c018f640: 44                           	incl	%esp
c018f641: 00 04 00                     	addb	%al, (%eax,%eax)
c018f644: 18 11                        	sbbb	%dl, (%ecx)
c018f646: 10 c0                        	adcb	%al, %al
c018f648: 00 00                        	addb	%al, (%eax)
c018f64a: 00 00                        	addb	%al, (%eax)
c018f64c: 44                           	incl	%esp
c018f64d: 00 05 00 19 11 10            	addb	%al, 269555968
c018f653: c0 00 00                     	rolb	$0, (%eax)
c018f656: 00 00                        	addb	%al, (%eax)
c018f658: 44                           	incl	%esp
c018f659: 00 06                        	addb	%al, (%esi)
c018f65b: 00 1b                        	addb	%bl, (%ebx)
c018f65d: 11 10                        	adcl	%edx, (%eax)
c018f65f: c0 00 00                     	rolb	$0, (%eax)
c018f662: 00 00                        	addb	%al, (%eax)
c018f664: 44                           	incl	%esp
c018f665: 00 07                        	addb	%al, (%edi)
c018f667: 00 1d 11 10 c0 00            	addb	%bl, 12587025
c018f66d: 00 00                        	addb	%al, (%eax)
c018f66f: 00 44 00 04                  	addb	%al, 4(%eax,%eax)
c018f673: 00 1f                        	addb	%bl, (%edi)
c018f675: 11 10                        	adcl	%edx, (%eax)
c018f677: c0 00 00                     	rolb	$0, (%eax)
c018f67a: 00 00                        	addb	%al, (%eax)
c018f67c: 44                           	incl	%esp
c018f67d: 00 05 00 20 11 10            	addb	%al, 269557760
c018f683: c0 00 00                     	rolb	$0, (%eax)
c018f686: 00 00                        	addb	%al, (%eax)
c018f688: 44                           	incl	%esp
c018f689: 00 06                        	addb	%al, (%esi)
c018f68b: 00 22                        	addb	%ah, (%edx)
c018f68d: 11 10                        	adcl	%edx, (%eax)
c018f68f: c0 00 00                     	rolb	$0, (%eax)
c018f692: 00 00                        	addb	%al, (%eax)
c018f694: 44                           	incl	%esp
c018f695: 00 07                        	addb	%al, (%edi)
c018f697: 00 24 11                     	addb	%ah, (%ecx,%edx)
c018f69a: 10 c0                        	adcb	%al, %al
c018f69c: 00 00                        	addb	%al, (%eax)
c018f69e: 00 00                        	addb	%al, (%eax)
c018f6a0: 44                           	incl	%esp
c018f6a1: 00 3b                        	addb	%bh, (%ebx)
c018f6a3: 00 26                        	addb	%ah, (%esi)
c018f6a5: 11 10                        	adcl	%edx, (%eax)
c018f6a7: c0 00 00                     	rolb	$0, (%eax)
c018f6aa: 00 00                        	addb	%al, (%eax)
c018f6ac: 44                           	incl	%esp
c018f6ad: 00 3c 00                     	addb	%bh, (%eax,%eax)
c018f6b0: 27                           	daa
c018f6b1: 11 10                        	adcl	%edx, (%eax)
c018f6b3: c0 00 00                     	rolb	$0, (%eax)
c018f6b6: 00 00                        	addb	%al, (%eax)
c018f6b8: 44                           	incl	%esp
c018f6b9: 00 3d 00 2a 11 10            	addb	%bh, 269560320
c018f6bf: c0 00 00                     	rolb	$0, (%eax)
c018f6c2: 00 00                        	addb	%al, (%eax)
c018f6c4: 44                           	incl	%esp
c018f6c5: 00 3f                        	addb	%bh, (%edi)
c018f6c7: 00 2b                        	addb	%ch, (%ebx)
c018f6c9: 11 10                        	adcl	%edx, (%eax)
c018f6cb: c0 00 00                     	rolb	$0, (%eax)
c018f6ce: 00 00                        	addb	%al, (%eax)
c018f6d0: 44                           	incl	%esp
c018f6d1: 00 40 00                     	addb	%al, (%eax)
c018f6d4: 2f                           	das
c018f6d5: 11 10                        	adcl	%edx, (%eax)
c018f6d7: c0 00 00                     	rolb	$0, (%eax)
c018f6da: 00 00                        	addb	%al, (%eax)
c018f6dc: 44                           	incl	%esp
c018f6dd: 00 41 00                     	addb	%al, (%ecx)
c018f6e0: 31 11                        	xorl	%edx, (%ecx)
c018f6e2: 10 c0                        	adcb	%al, %al
c018f6e4: 00 00                        	addb	%al, (%eax)
c018f6e6: 00 00                        	addb	%al, (%eax)
c018f6e8: 44                           	incl	%esp
c018f6e9: 00 42 00                     	addb	%al, (%edx)
c018f6ec: 33 11                        	xorl	(%ecx), %edx
c018f6ee: 10 c0                        	adcb	%al, %al
c018f6f0: 00 00                        	addb	%al, (%eax)
c018f6f2: 00 00                        	addb	%al, (%eax)
c018f6f4: 44                           	incl	%esp
c018f6f5: 00 43 00                     	addb	%al, (%ebx)
c018f6f8: 35 11 10 c0 00               	xorl	$12587025, %eax
c018f6fd: 00 00                        	addb	%al, (%eax)
c018f6ff: 00 44 00 44                  	addb	%al, 68(%eax,%eax)
c018f703: 00 37                        	addb	%dh, (%edi)
c018f705: 11 10                        	adcl	%edx, (%eax)
c018f707: c0 00 00                     	rolb	$0, (%eax)
c018f70a: 00 00                        	addb	%al, (%eax)
c018f70c: 44                           	incl	%esp
c018f70d: 00 46 00                     	addb	%al, (%esi)
c018f710: 39 11                        	cmpl	%edx, (%ecx)
c018f712: 10 c0                        	adcb	%al, %al
c018f714: 00 00                        	addb	%al, (%eax)
c018f716: 00 00                        	addb	%al, (%eax)
c018f718: 44                           	incl	%esp
c018f719: 00 47 00                     	addb	%al, (%edi)
c018f71c: 3a 11                        	cmpb	(%ecx), %dl
c018f71e: 10 c0                        	adcb	%al, %al
c018f720: 00 00                        	addb	%al, (%eax)
c018f722: 00 00                        	addb	%al, (%eax)
c018f724: 44                           	incl	%esp
c018f725: 00 48 00                     	addb	%cl, (%eax)
c018f728: 3f                           	aas
c018f729: 11 10                        	adcl	%edx, (%eax)
c018f72b: c0 00 00                     	rolb	$0, (%eax)
c018f72e: 00 00                        	addb	%al, (%eax)
c018f730: 44                           	incl	%esp
c018f731: 00 4a 00                     	addb	%cl, (%edx)
c018f734: 42                           	incl	%edx
c018f735: 11 10                        	adcl	%edx, (%eax)
c018f737: c0 00 00                     	rolb	$0, (%eax)
c018f73a: 00 00                        	addb	%al, (%eax)
c018f73c: 44                           	incl	%esp
c018f73d: 00 4b 00                     	addb	%cl, (%ebx)
c018f740: 43                           	incl	%ebx
c018f741: 11 10                        	adcl	%edx, (%eax)
c018f743: c0 00 00                     	rolb	$0, (%eax)
c018f746: 00 00                        	addb	%al, (%eax)
c018f748: 44                           	incl	%esp
c018f749: 00 4c 00 45                  	addb	%cl, 69(%eax,%eax)
c018f74d: 11 10                        	adcl	%edx, (%eax)
c018f74f: c0 00 00                     	rolb	$0, (%eax)
c018f752: 00 00                        	addb	%al, (%eax)
c018f754: 44                           	incl	%esp
c018f755: 00 4d 00                     	addb	%cl, (%ebp)
c018f758: 47                           	incl	%edi
c018f759: 11 10                        	adcl	%edx, (%eax)
c018f75b: c0 00 00                     	rolb	$0, (%eax)
c018f75e: 00 00                        	addb	%al, (%eax)
c018f760: 44                           	incl	%esp
c018f761: 00 4e 00                     	addb	%cl, (%esi)
c018f764: 49                           	decl	%ecx
c018f765: 11 10                        	adcl	%edx, (%eax)
c018f767: c0 00 00                     	rolb	$0, (%eax)
c018f76a: 00 00                        	addb	%al, (%eax)
c018f76c: 44                           	incl	%esp
c018f76d: 00 4f 00                     	addb	%cl, (%edi)
c018f770: 4b                           	decl	%ebx
c018f771: 11 10                        	adcl	%edx, (%eax)
c018f773: c0 00 00                     	rolb	$0, (%eax)
c018f776: 00 00                        	addb	%al, (%eax)
c018f778: 44                           	incl	%esp
c018f779: 00 51 00                     	addb	%dl, (%ecx)
c018f77c: 4d                           	decl	%ebp
c018f77d: 11 10                        	adcl	%edx, (%eax)
c018f77f: c0 00 00                     	rolb	$0, (%eax)
c018f782: 00 00                        	addb	%al, (%eax)
c018f784: 44                           	incl	%esp
c018f785: 00 52 00                     	addb	%dl, (%edx)
c018f788: 4e                           	decl	%esi
c018f789: 11 10                        	adcl	%edx, (%eax)
c018f78b: c0 00 00                     	rolb	$0, (%eax)
c018f78e: 00 00                        	addb	%al, (%eax)
c018f790: 44                           	incl	%esp
c018f791: 00 54 00 51                  	addb	%dl, 81(%eax,%eax)
c018f795: 11 10                        	adcl	%edx, (%eax)
c018f797: c0 00 00                     	rolb	$0, (%eax)
c018f79a: 00 00                        	addb	%al, (%eax)
c018f79c: 44                           	incl	%esp
c018f79d: 00 5a 00                     	addb	%bl, (%edx)
c018f7a0: 52                           	pushl	%edx
c018f7a1: 11 10                        	adcl	%edx, (%eax)
c018f7a3: c0 00 00                     	rolb	$0, (%eax)
c018f7a6: 00 00                        	addb	%al, (%eax)
c018f7a8: 44                           	incl	%esp
c018f7a9: 00 5b 00                     	addb	%bl, (%ebx)
c018f7ac: 53                           	pushl	%ebx
c018f7ad: 11 10                        	adcl	%edx, (%eax)
c018f7af: c0 00 00                     	rolb	$0, (%eax)
c018f7b2: 00 00                        	addb	%al, (%eax)
c018f7b4: 44                           	incl	%esp
c018f7b5: 00 5c 00 55                  	addb	%bl, 85(%eax,%eax)
c018f7b9: 11 10                        	adcl	%edx, (%eax)
c018f7bb: c0 00 00                     	rolb	$0, (%eax)
c018f7be: 00 00                        	addb	%al, (%eax)
c018f7c0: 44                           	incl	%esp
c018f7c1: 00 5d 00                     	addb	%bl, (%ebp)
c018f7c4: 57                           	pushl	%edi
c018f7c5: 11 10                        	adcl	%edx, (%eax)
c018f7c7: c0 00 00                     	rolb	$0, (%eax)
c018f7ca: 00 00                        	addb	%al, (%eax)
c018f7cc: 44                           	incl	%esp
c018f7cd: 00 5a 00                     	addb	%bl, (%edx)
c018f7d0: 59                           	popl	%ecx
c018f7d1: 11 10                        	adcl	%edx, (%eax)
c018f7d3: c0 00 00                     	rolb	$0, (%eax)
c018f7d6: 00 00                        	addb	%al, (%eax)
c018f7d8: 44                           	incl	%esp
c018f7d9: 00 5b 00                     	addb	%bl, (%ebx)
c018f7dc: 5a                           	popl	%edx
c018f7dd: 11 10                        	adcl	%edx, (%eax)
c018f7df: c0 00 00                     	rolb	$0, (%eax)
c018f7e2: 00 00                        	addb	%al, (%eax)
c018f7e4: 44                           	incl	%esp
c018f7e5: 00 5c 00 5c                  	addb	%bl, 92(%eax,%eax)
c018f7e9: 11 10                        	adcl	%edx, (%eax)
c018f7eb: c0 00 00                     	rolb	$0, (%eax)
c018f7ee: 00 00                        	addb	%al, (%eax)
c018f7f0: 44                           	incl	%esp
c018f7f1: 00 5d 00                     	addb	%bl, (%ebp)
c018f7f4: 5e                           	popl	%esi
c018f7f5: 11 10                        	adcl	%edx, (%eax)
c018f7f7: c0 00 00                     	rolb	$0, (%eax)
c018f7fa: 00 00                        	addb	%al, (%eax)
c018f7fc: 44                           	incl	%esp
c018f7fd: 00 5a 00                     	addb	%bl, (%edx)
c018f800: 60                           	pushal
c018f801: 11 10                        	adcl	%edx, (%eax)
c018f803: c0 00 00                     	rolb	$0, (%eax)
c018f806: 00 00                        	addb	%al, (%eax)
c018f808: 44                           	incl	%esp
c018f809: 00 5b 00                     	addb	%bl, (%ebx)
c018f80c: 61                           	popal
c018f80d: 11 10                        	adcl	%edx, (%eax)
c018f80f: c0 00 00                     	rolb	$0, (%eax)
c018f812: 00 00                        	addb	%al, (%eax)
c018f814: 44                           	incl	%esp
c018f815: 00 5c 00 63                  	addb	%bl, 99(%eax,%eax)
c018f819: 11 10                        	adcl	%edx, (%eax)
c018f81b: c0 00 00                     	rolb	$0, (%eax)
c018f81e: 00 00                        	addb	%al, (%eax)
c018f820: 44                           	incl	%esp
c018f821: 00 5d 00                     	addb	%bl, (%ebp)
c018f824: 65 11 10                     	adcl	%edx, %gs:(%eax)
c018f827: c0 00 00                     	rolb	$0, (%eax)
c018f82a: 00 00                        	addb	%al, (%eax)
c018f82c: 44                           	incl	%esp
c018f82d: 00 5a 00                     	addb	%bl, (%edx)
c018f830: 67 11 10                     	adcl	%edx, (%bx,%si)
c018f833: c0 00 00                     	rolb	$0, (%eax)
c018f836: 00 00                        	addb	%al, (%eax)
c018f838: 44                           	incl	%esp
c018f839: 00 5b 00                     	addb	%bl, (%ebx)
c018f83c: 68 11 10 c0 00               	pushl	$12587025
c018f841: 00 00                        	addb	%al, (%eax)
c018f843: 00 44 00 5c                  	addb	%al, 92(%eax,%eax)
c018f847: 00 6a 11                     	addb	%ch, 17(%edx)
c018f84a: 10 c0                        	adcb	%al, %al
c018f84c: 00 00                        	addb	%al, (%eax)
c018f84e: 00 00                        	addb	%al, (%eax)
c018f850: 44                           	incl	%esp
c018f851: 00 5d 00                     	addb	%bl, (%ebp)
c018f854: 6c                           	insb	%dx, %es:(%edi)
c018f855: 11 10                        	adcl	%edx, (%eax)
c018f857: c0 00 00                     	rolb	$0, (%eax)
c018f85a: 00 00                        	addb	%al, (%eax)
c018f85c: 44                           	incl	%esp
c018f85d: 00 5a 00                     	addb	%bl, (%edx)
c018f860: 6e                           	outsb	(%esi), %dx
c018f861: 11 10                        	adcl	%edx, (%eax)
c018f863: c0 00 00                     	rolb	$0, (%eax)
c018f866: 00 00                        	addb	%al, (%eax)
c018f868: 44                           	incl	%esp
c018f869: 00 5b 00                     	addb	%bl, (%ebx)
c018f86c: 6f                           	outsl	(%esi), %dx
c018f86d: 11 10                        	adcl	%edx, (%eax)
c018f86f: c0 00 00                     	rolb	$0, (%eax)
c018f872: 00 00                        	addb	%al, (%eax)
c018f874: 44                           	incl	%esp
c018f875: 00 5c 00 71                  	addb	%bl, 113(%eax,%eax)
c018f879: 11 10                        	adcl	%edx, (%eax)
c018f87b: c0 00 00                     	rolb	$0, (%eax)
c018f87e: 00 00                        	addb	%al, (%eax)
c018f880: 44                           	incl	%esp
c018f881: 00 5d 00                     	addb	%bl, (%ebp)
c018f884: 73 11                        	jae	0xc018f897 <.stab+0x897>
c018f886: 10 c0                        	adcb	%al, %al
c018f888: 00 00                        	addb	%al, (%eax)
c018f88a: 00 00                        	addb	%al, (%eax)
c018f88c: 44                           	incl	%esp
c018f88d: 00 5a 00                     	addb	%bl, (%edx)
c018f890: 75 11                        	jne	0xc018f8a3 <.stab+0x8a3>
c018f892: 10 c0                        	adcb	%al, %al
c018f894: 00 00                        	addb	%al, (%eax)
c018f896: 00 00                        	addb	%al, (%eax)
c018f898: 44                           	incl	%esp
c018f899: 00 5b 00                     	addb	%bl, (%ebx)
c018f89c: 76 11                        	jbe	0xc018f8af <.stab+0x8af>
c018f89e: 10 c0                        	adcb	%al, %al
c018f8a0: 00 00                        	addb	%al, (%eax)
c018f8a2: 00 00                        	addb	%al, (%eax)
c018f8a4: 44                           	incl	%esp
c018f8a5: 00 5c 00 78                  	addb	%bl, 120(%eax,%eax)
c018f8a9: 11 10                        	adcl	%edx, (%eax)
c018f8ab: c0 00 00                     	rolb	$0, (%eax)
c018f8ae: 00 00                        	addb	%al, (%eax)
c018f8b0: 44                           	incl	%esp
c018f8b1: 00 5d 00                     	addb	%bl, (%ebp)
c018f8b4: 7a 11                        	jp	0xc018f8c7 <.stab+0x8c7>
c018f8b6: 10 c0                        	adcb	%al, %al
c018f8b8: 00 00                        	addb	%al, (%eax)
c018f8ba: 00 00                        	addb	%al, (%eax)
c018f8bc: 44                           	incl	%esp
c018f8bd: 00 5a 00                     	addb	%bl, (%edx)
c018f8c0: 7c 11                        	jl	0xc018f8d3 <.stab+0x8d3>
c018f8c2: 10 c0                        	adcb	%al, %al
c018f8c4: 00 00                        	addb	%al, (%eax)
c018f8c6: 00 00                        	addb	%al, (%eax)
c018f8c8: 44                           	incl	%esp
c018f8c9: 00 5b 00                     	addb	%bl, (%ebx)
c018f8cc: 7d 11                        	jge	0xc018f8df <.stab+0x8df>
c018f8ce: 10 c0                        	adcb	%al, %al
c018f8d0: 00 00                        	addb	%al, (%eax)
c018f8d2: 00 00                        	addb	%al, (%eax)
c018f8d4: 44                           	incl	%esp
c018f8d5: 00 5c 00 7f                  	addb	%bl, 127(%eax,%eax)
c018f8d9: 11 10                        	adcl	%edx, (%eax)
c018f8db: c0 00 00                     	rolb	$0, (%eax)
c018f8de: 00 00                        	addb	%al, (%eax)
c018f8e0: 44                           	incl	%esp
c018f8e1: 00 5d 00                     	addb	%bl, (%ebp)
c018f8e4: 81 11 10 c0 00 00            	adcl	$49168, (%ecx)
c018f8ea: 00 00                        	addb	%al, (%eax)
c018f8ec: 44                           	incl	%esp
c018f8ed: 00 5a 00                     	addb	%bl, (%edx)
c018f8f0: 83 11 10                     	adcl	$16, (%ecx)
c018f8f3: c0 00 00                     	rolb	$0, (%eax)
c018f8f6: 00 00                        	addb	%al, (%eax)
c018f8f8: 44                           	incl	%esp
c018f8f9: 00 5b 00                     	addb	%bl, (%ebx)
c018f8fc: 84 11                        	testb	%dl, (%ecx)
c018f8fe: 10 c0                        	adcb	%al, %al
c018f900: 00 00                        	addb	%al, (%eax)
c018f902: 00 00                        	addb	%al, (%eax)
c018f904: 44                           	incl	%esp
c018f905: 00 5c 00 86                  	addb	%bl, -122(%eax,%eax)
c018f909: 11 10                        	adcl	%edx, (%eax)
c018f90b: c0 00 00                     	rolb	$0, (%eax)
c018f90e: 00 00                        	addb	%al, (%eax)
c018f910: 44                           	incl	%esp
c018f911: 00 5d 00                     	addb	%bl, (%ebp)
c018f914: 88 11                        	movb	%dl, (%ecx)
c018f916: 10 c0                        	adcb	%al, %al
c018f918: 00 00                        	addb	%al, (%eax)
c018f91a: 00 00                        	addb	%al, (%eax)
c018f91c: 44                           	incl	%esp
c018f91d: 00 5a 00                     	addb	%bl, (%edx)
c018f920: 8a 11                        	movb	(%ecx), %dl
c018f922: 10 c0                        	adcb	%al, %al
c018f924: 00 00                        	addb	%al, (%eax)
c018f926: 00 00                        	addb	%al, (%eax)
c018f928: 44                           	incl	%esp
c018f929: 00 5b 00                     	addb	%bl, (%ebx)
c018f92c: 8b 11                        	movl	(%ecx), %edx
c018f92e: 10 c0                        	adcb	%al, %al
c018f930: 00 00                        	addb	%al, (%eax)
c018f932: 00 00                        	addb	%al, (%eax)
c018f934: 44                           	incl	%esp
c018f935: 00 5c 00 8d                  	addb	%bl, -115(%eax,%eax)
c018f939: 11 10                        	adcl	%edx, (%eax)
c018f93b: c0 00 00                     	rolb	$0, (%eax)
c018f93e: 00 00                        	addb	%al, (%eax)
c018f940: 44                           	incl	%esp
c018f941: 00 5d 00                     	addb	%bl, (%ebp)
c018f944: 8f 11 10                     	<unknown>
c018f947: c0 00 00                     	rolb	$0, (%eax)
c018f94a: 00 00                        	addb	%al, (%eax)
c018f94c: 44                           	incl	%esp
c018f94d: 00 5a 00                     	addb	%bl, (%edx)
c018f950: 91                           	xchgl	%ecx, %eax
c018f951: 11 10                        	adcl	%edx, (%eax)
c018f953: c0 00 00                     	rolb	$0, (%eax)
c018f956: 00 00                        	addb	%al, (%eax)
c018f958: 44                           	incl	%esp
c018f959: 00 5b 00                     	addb	%bl, (%ebx)
c018f95c: 92                           	xchgl	%edx, %eax
c018f95d: 11 10                        	adcl	%edx, (%eax)
c018f95f: c0 00 00                     	rolb	$0, (%eax)
c018f962: 00 00                        	addb	%al, (%eax)
c018f964: 44                           	incl	%esp
c018f965: 00 5c 00 94                  	addb	%bl, -108(%eax,%eax)
c018f969: 11 10                        	adcl	%edx, (%eax)
c018f96b: c0 00 00                     	rolb	$0, (%eax)
c018f96e: 00 00                        	addb	%al, (%eax)
c018f970: 44                           	incl	%esp
c018f971: 00 5d 00                     	addb	%bl, (%ebp)
c018f974: 96                           	xchgl	%esi, %eax
c018f975: 11 10                        	adcl	%edx, (%eax)
c018f977: c0 00 00                     	rolb	$0, (%eax)
c018f97a: 00 00                        	addb	%al, (%eax)
c018f97c: 44                           	incl	%esp
c018f97d: 00 5a 00                     	addb	%bl, (%edx)
c018f980: 98                           	cwtl
c018f981: 11 10                        	adcl	%edx, (%eax)
c018f983: c0 00 00                     	rolb	$0, (%eax)
c018f986: 00 00                        	addb	%al, (%eax)
c018f988: 44                           	incl	%esp
c018f989: 00 5b 00                     	addb	%bl, (%ebx)
c018f98c: 99                           	cltd
c018f98d: 11 10                        	adcl	%edx, (%eax)
c018f98f: c0 00 00                     	rolb	$0, (%eax)
c018f992: 00 00                        	addb	%al, (%eax)
c018f994: 44                           	incl	%esp
c018f995: 00 5c 00 9b                  	addb	%bl, -101(%eax,%eax)
c018f999: 11 10                        	adcl	%edx, (%eax)
c018f99b: c0 00 00                     	rolb	$0, (%eax)
c018f99e: 00 00                        	addb	%al, (%eax)
c018f9a0: 44                           	incl	%esp
c018f9a1: 00 5d 00                     	addb	%bl, (%ebp)
c018f9a4: 9d                           	popfl
c018f9a5: 11 10                        	adcl	%edx, (%eax)
c018f9a7: c0 00 00                     	rolb	$0, (%eax)
c018f9aa: 00 00                        	addb	%al, (%eax)
c018f9ac: 44                           	incl	%esp
c018f9ad: 00 5a 00                     	addb	%bl, (%edx)
c018f9b0: 9f                           	lahf
c018f9b1: 11 10                        	adcl	%edx, (%eax)
c018f9b3: c0 00 00                     	rolb	$0, (%eax)
c018f9b6: 00 00                        	addb	%al, (%eax)
c018f9b8: 44                           	incl	%esp
c018f9b9: 00 5b 00                     	addb	%bl, (%ebx)
c018f9bc: a0 11 10 c0 00               	movb	12587025, %al
c018f9c1: 00 00                        	addb	%al, (%eax)
c018f9c3: 00 44 00 5c                  	addb	%al, 92(%eax,%eax)
c018f9c7: 00 a2 11 10 c0 00            	addb	%ah, 12587025(%edx)
c018f9cd: 00 00                        	addb	%al, (%eax)
c018f9cf: 00 44 00 5d                  	addb	%al, 93(%eax,%eax)
c018f9d3: 00 a4 11 10 c0 00 00         	addb	%ah, 49168(%ecx,%edx)
c018f9da: 00 00                        	addb	%al, (%eax)
c018f9dc: 44                           	incl	%esp
c018f9dd: 00 5a 00                     	addb	%bl, (%edx)
c018f9e0: a6                           	cmpsb	%es:(%edi), (%esi)
c018f9e1: 11 10                        	adcl	%edx, (%eax)
c018f9e3: c0 00 00                     	rolb	$0, (%eax)
c018f9e6: 00 00                        	addb	%al, (%eax)
c018f9e8: 44                           	incl	%esp
c018f9e9: 00 5b 00                     	addb	%bl, (%ebx)
c018f9ec: a7                           	cmpsl	%es:(%edi), (%esi)
c018f9ed: 11 10                        	adcl	%edx, (%eax)
c018f9ef: c0 00 00                     	rolb	$0, (%eax)
c018f9f2: 00 00                        	addb	%al, (%eax)
c018f9f4: 44                           	incl	%esp
c018f9f5: 00 5c 00 a9                  	addb	%bl, -87(%eax,%eax)
c018f9f9: 11 10                        	adcl	%edx, (%eax)
c018f9fb: c0 00 00                     	rolb	$0, (%eax)
c018f9fe: 00 00                        	addb	%al, (%eax)
c018fa00: 44                           	incl	%esp
c018fa01: 00 5d 00                     	addb	%bl, (%ebp)
c018fa04: ab                           	stosl	%eax, %es:(%edi)
c018fa05: 11 10                        	adcl	%edx, (%eax)
c018fa07: c0 00 00                     	rolb	$0, (%eax)
c018fa0a: 00 00                        	addb	%al, (%eax)
c018fa0c: 44                           	incl	%esp
c018fa0d: 00 5a 00                     	addb	%bl, (%edx)
c018fa10: ad                           	lodsl	(%esi), %eax
c018fa11: 11 10                        	adcl	%edx, (%eax)
c018fa13: c0 00 00                     	rolb	$0, (%eax)
c018fa16: 00 00                        	addb	%al, (%eax)
c018fa18: 44                           	incl	%esp
c018fa19: 00 5b 00                     	addb	%bl, (%ebx)
c018fa1c: ae                           	scasb	%es:(%edi), %al
c018fa1d: 11 10                        	adcl	%edx, (%eax)
c018fa1f: c0 00 00                     	rolb	$0, (%eax)
c018fa22: 00 00                        	addb	%al, (%eax)
c018fa24: 44                           	incl	%esp
c018fa25: 00 5c 00 b0                  	addb	%bl, -80(%eax,%eax)
c018fa29: 11 10                        	adcl	%edx, (%eax)
c018fa2b: c0 00 00                     	rolb	$0, (%eax)
c018fa2e: 00 00                        	addb	%al, (%eax)
c018fa30: 44                           	incl	%esp
c018fa31: 00 5d 00                     	addb	%bl, (%ebp)
c018fa34: b2 11                        	movb	$17, %dl
c018fa36: 10 c0                        	adcb	%al, %al
c018fa38: 00 00                        	addb	%al, (%eax)
c018fa3a: 00 00                        	addb	%al, (%eax)
c018fa3c: 44                           	incl	%esp
c018fa3d: 00 5a 00                     	addb	%bl, (%edx)
c018fa40: b4 11                        	movb	$17, %ah
c018fa42: 10 c0                        	adcb	%al, %al
c018fa44: 00 00                        	addb	%al, (%eax)
c018fa46: 00 00                        	addb	%al, (%eax)
c018fa48: 44                           	incl	%esp
c018fa49: 00 5b 00                     	addb	%bl, (%ebx)
c018fa4c: b5 11                        	movb	$17, %ch
c018fa4e: 10 c0                        	adcb	%al, %al
c018fa50: 00 00                        	addb	%al, (%eax)
c018fa52: 00 00                        	addb	%al, (%eax)
c018fa54: 44                           	incl	%esp
c018fa55: 00 5c 00 b7                  	addb	%bl, -73(%eax,%eax)
c018fa59: 11 10                        	adcl	%edx, (%eax)
c018fa5b: c0 00 00                     	rolb	$0, (%eax)
c018fa5e: 00 00                        	addb	%al, (%eax)
c018fa60: 44                           	incl	%esp
c018fa61: 00 5d 00                     	addb	%bl, (%ebp)
c018fa64: b9 11 10 c0 00               	movl	$12587025, %ecx
c018fa69: 00 00                        	addb	%al, (%eax)
c018fa6b: 00 44 00 5a                  	addb	%al, 90(%eax,%eax)
c018fa6f: 00 bb 11 10 c0 00            	addb	%bh, 12587025(%ebx)
c018fa75: 00 00                        	addb	%al, (%eax)
c018fa77: 00 44 00 5b                  	addb	%al, 91(%eax,%eax)
c018fa7b: 00 bc 11 10 c0 00 00         	addb	%bh, 49168(%ecx,%edx)
c018fa82: 00 00                        	addb	%al, (%eax)
c018fa84: 44                           	incl	%esp
c018fa85: 00 5c 00 be                  	addb	%bl, -66(%eax,%eax)
c018fa89: 11 10                        	adcl	%edx, (%eax)
c018fa8b: c0 00 00                     	rolb	$0, (%eax)
c018fa8e: 00 00                        	addb	%al, (%eax)
c018fa90: 44                           	incl	%esp
c018fa91: 00 5d 00                     	addb	%bl, (%ebp)
c018fa94: c0 11 10                     	rclb	$16, (%ecx)
c018fa97: c0 00 00                     	rolb	$0, (%eax)
c018fa9a: 00 00                        	addb	%al, (%eax)
c018fa9c: 44                           	incl	%esp
c018fa9d: 00 76 00                     	addb	%dh, (%esi)
c018faa0: c2 11 10                     	retl	$4113
c018faa3: c0 00 00                     	rolb	$0, (%eax)
c018faa6: 00 00                        	addb	%al, (%eax)
c018faa8: 44                           	incl	%esp
c018faa9: 00 77 00                     	addb	%dh, (%edi)
c018faac: c3                           	retl
c018faad: 11 10                        	adcl	%edx, (%eax)
c018faaf: c0 00 00                     	rolb	$0, (%eax)
c018fab2: 00 00                        	addb	%al, (%eax)
c018fab4: 44                           	incl	%esp
c018fab5: 00 78 00                     	addb	%bh, (%eax)
c018fab8: c6 11                        	<unknown>
c018faba: 10 c0                        	adcb	%al, %al
c018fabc: 00 00                        	addb	%al, (%eax)
c018fabe: 00 00                        	addb	%al, (%eax)
c018fac0: 44                           	incl	%esp
c018fac1: 00 7a 00                     	addb	%bh, (%edx)
c018fac4: c7 11                        	<unknown>
c018fac6: 10 c0                        	adcb	%al, %al
c018fac8: 00 00                        	addb	%al, (%eax)
c018faca: 00 00                        	addb	%al, (%eax)
c018facc: 44                           	incl	%esp
c018facd: 00 7b 00                     	addb	%bh, (%ebx)
c018fad0: cb                           	lretl
c018fad1: 11 10                        	adcl	%edx, (%eax)
c018fad3: c0 00 00                     	rolb	$0, (%eax)
c018fad6: 00 00                        	addb	%al, (%eax)
c018fad8: 44                           	incl	%esp
c018fad9: 00 7c 00 cd                  	addb	%bh, -51(%eax,%eax)
c018fadd: 11 10                        	adcl	%edx, (%eax)
c018fadf: c0 00 00                     	rolb	$0, (%eax)
c018fae2: 00 00                        	addb	%al, (%eax)
c018fae4: 44                           	incl	%esp
c018fae5: 00 7d 00                     	addb	%bh, (%ebp)
c018fae8: cf                           	iretl
c018fae9: 11 10                        	adcl	%edx, (%eax)
c018faeb: c0 00 00                     	rolb	$0, (%eax)
c018faee: 00 00                        	addb	%al, (%eax)
c018faf0: 44                           	incl	%esp
c018faf1: 00 7e 00                     	addb	%bh, (%esi)
c018faf4: d1 11                        	rcll	(%ecx)
c018faf6: 10 c0                        	adcb	%al, %al
c018faf8: 00 00                        	addb	%al, (%eax)
c018fafa: 00 00                        	addb	%al, (%eax)
c018fafc: 44                           	incl	%esp
c018fafd: 00 7f 00                     	addb	%bh, (%edi)
c018fb00: d3 11                        	rcll	%cl, (%ecx)
c018fb02: 10 c0                        	adcb	%al, %al
c018fb04: 00 00                        	addb	%al, (%eax)
c018fb06: 00 00                        	addb	%al, (%eax)
c018fb08: 44                           	incl	%esp
c018fb09: 00 81 00 d5 11 10            	addb	%al, 269604096(%ecx)
c018fb0f: c0 00 00                     	rolb	$0, (%eax)
c018fb12: 00 00                        	addb	%al, (%eax)
c018fb14: 44                           	incl	%esp
c018fb15: 00 82 00 d6 11 10            	addb	%al, 269604352(%edx)
c018fb1b: c0 00 00                     	rolb	$0, (%eax)
c018fb1e: 00 00                        	addb	%al, (%eax)
c018fb20: 44                           	incl	%esp
c018fb21: 00 83 00 db 11 10            	addb	%al, 269605632(%ebx)
c018fb27: c0 00 00                     	rolb	$0, (%eax)
c018fb2a: 00 00                        	addb	%al, (%eax)
c018fb2c: 44                           	incl	%esp
c018fb2d: 00 85 00 de 11 10            	addb	%al, 269606400(%ebp)
c018fb33: c0 00 00                     	rolb	$0, (%eax)
c018fb36: 00 00                        	addb	%al, (%eax)
c018fb38: 44                           	incl	%esp
c018fb39: 00 86 00 df 11 10            	addb	%al, 269606656(%esi)
c018fb3f: c0 00 00                     	rolb	$0, (%eax)
c018fb42: 00 00                        	addb	%al, (%eax)
c018fb44: 44                           	incl	%esp
c018fb45: 00 87 00 e1 11 10            	addb	%al, 269607168(%edi)
c018fb4b: c0 00 00                     	rolb	$0, (%eax)
c018fb4e: 00 00                        	addb	%al, (%eax)
c018fb50: 44                           	incl	%esp
c018fb51: 00 88 00 e3 11 10            	addb	%cl, 269607680(%eax)
c018fb57: c0 00 00                     	rolb	$0, (%eax)
c018fb5a: 00 00                        	addb	%al, (%eax)
c018fb5c: 44                           	incl	%esp
c018fb5d: 00 89 00 e5 11 10            	addb	%cl, 269608192(%ecx)
c018fb63: c0 00 00                     	rolb	$0, (%eax)
c018fb66: 00 00                        	addb	%al, (%eax)
c018fb68: 44                           	incl	%esp
c018fb69: 00 8a 00 e7 11 10            	addb	%cl, 269608704(%edx)
c018fb6f: c0 00 00                     	rolb	$0, (%eax)
c018fb72: 00 00                        	addb	%al, (%eax)
c018fb74: 44                           	incl	%esp
c018fb75: 00 8c 00 e9 11 10 c0         	addb	%cl, -1072688663(%eax,%eax)
c018fb7c: 00 00                        	addb	%al, (%eax)
c018fb7e: 00 00                        	addb	%al, (%eax)
c018fb80: 44                           	incl	%esp
c018fb81: 00 8d 00 ea 11 10            	addb	%cl, 269609472(%ebp)
c018fb87: c0 00 00                     	rolb	$0, (%eax)
c018fb8a: 00 00                        	addb	%al, (%eax)
c018fb8c: 44                           	incl	%esp
c018fb8d: 00 8f 00 ed 11 10            	addb	%cl, 269610240(%edi)
c018fb93: c0 00 00                     	rolb	$0, (%eax)
c018fb96: 00 00                        	addb	%al, (%eax)
c018fb98: 64 00 00                     	addb	%al, %fs:(%eax)
c018fb9b: 00 00                        	addb	%al, (%eax)
c018fb9d: 00 00                        	addb	%al, (%eax)
c018fb9f: 00 30                        	addb	%dh, (%eax)
c018fba1: 00 00                        	addb	%al, (%eax)
c018fba3: 00 64 00 02                  	addb	%ah, 2(%eax,%eax)
c018fba7: 00 ee                        	addb	%ch, %dh
c018fba9: 11 10                        	adcl	%edx, (%eax)
c018fbab: c0 58 00 00                  	rcrb	$0, (%eax)
c018fbaf: 00 64 00 02                  	addb	%ah, 2(%eax,%eax)
c018fbb3: 00 ee                        	addb	%ch, %dh
c018fbb5: 11 10                        	adcl	%edx, (%eax)
c018fbb7: c0 63 00 00                  	shlb	$0, (%ebx)
c018fbbb: 00 3c 00                     	addb	%bh, (%eax,%eax)
c018fbbe: 00 00                        	addb	%al, (%eax)
c018fbc0: 00 00                        	addb	%al, (%eax)
c018fbc2: 00 00                        	addb	%al, (%eax)
c018fbc4: 72 00                        	jb	0xc018fbc6 <.stab+0xbc6>
c018fbc6: 00 00                        	addb	%al, (%eax)
c018fbc8: 20 00                        	andb	%al, (%eax)
c018fbca: 0b 00                        	orl	(%eax), %eax
c018fbcc: 00 00                        	addb	%al, (%eax)
c018fbce: 00 00                        	addb	%al, (%eax)
c018fbd0: ba 00 00 00 80               	movl	$2147483648, %edx
c018fbd5: 00 00                        	addb	%al, (%eax)
c018fbd7: 00 00                        	addb	%al, (%eax)
c018fbd9: 00 00                        	addb	%al, (%eax)
c018fbdb: 00 82 01 00 00 80            	addb	%al, -2147483647(%edx)
c018fbe1: 00 1d 00 00 00 00            	addb	%bl, 0
c018fbe7: 00 92 01 00 00 80            	addb	%dl, -2147483647(%edx)
c018fbed: 00 00                        	addb	%al, (%eax)
c018fbef: 00 00                        	addb	%al, (%eax)
c018fbf1: 00 00                        	addb	%al, (%eax)
c018fbf3: 00 ac 01 00 00 80 00         	addb	%ch, 8388608(%ecx,%eax)
c018fbfa: 1f                           	popl	%ds
c018fbfb: 00 00                        	addb	%al, (%eax)
c018fbfd: 00 00                        	addb	%al, (%eax)
c018fbff: 00 bb 01 00 00 80            	addb	%bh, -2147483647(%ebx)
c018fc05: 00 00                        	addb	%al, (%eax)
c018fc07: 00 00                        	addb	%al, (%eax)
c018fc09: 00 00                        	addb	%al, (%eax)
c018fc0b: 00 d0                        	addb	%dl, %al
c018fc0d: 01 00                        	addl	%eax, (%eax)
c018fc0f: 00 20                        	addb	%ah, (%eax)
c018fc11: 00 0c 00                     	addb	%cl, (%eax,%eax)
c018fc14: 00 00                        	addb	%al, (%eax)
c018fc16: 00 00                        	addb	%al, (%eax)
c018fc18: ed                           	inl	%dx, %eax
c018fc19: 01 00                        	addl	%eax, (%eax)
c018fc1b: 00 80 00 00 00 00            	addb	%al, (%eax)
c018fc21: 00 00                        	addb	%al, (%eax)
c018fc23: 00 42 02                     	addb	%al, 2(%edx)
c018fc26: 00 00                        	addb	%al, (%eax)
c018fc28: 80 00 16                     	addb	$22, (%eax)
c018fc2b: 00 00                        	addb	%al, (%eax)
c018fc2d: 00 00                        	addb	%al, (%eax)
c018fc2f: 00 50 02                     	addb	%dl, 2(%eax)
c018fc32: 00 00                        	addb	%al, (%eax)
c018fc34: 80 00 1b                     	addb	$27, (%eax)
c018fc37: 00 00                        	addb	%al, (%eax)
c018fc39: 00 00                        	addb	%al, (%eax)
c018fc3b: 00 61 02                     	addb	%ah, 2(%ecx)
c018fc3e: 00 00                        	addb	%al, (%eax)
c018fc40: 80 00 00                     	addb	$0, (%eax)
c018fc43: 00 00                        	addb	%al, (%eax)
c018fc45: 00 00                        	addb	%al, (%eax)
c018fc47: 00 76 02                     	addb	%dh, 2(%esi)
c018fc4a: 00 00                        	addb	%al, (%eax)
c018fc4c: 24 00                        	andb	$0, %al
c018fc4e: 11 00                        	adcl	%eax, (%eax)
c018fc50: ee                           	outb	%al, %dx
c018fc51: 11 10                        	adcl	%edx, (%eax)
c018fc53: c0 92 02 00 00 80 00         	rclb	$0, -2147483646(%edx)
c018fc5a: 00 00                        	addb	%al, (%eax)
c018fc5c: 00 00                        	addb	%al, (%eax)
c018fc5e: 00 00                        	addb	%al, (%eax)
c018fc60: 9f                           	lahf
c018fc61: 02 00                        	addb	(%eax), %al
c018fc63: 00 a0 00 11 00 08            	addb	%ah, 134222080(%eax)
c018fc69: 00 00                        	addb	%al, (%eax)
c018fc6b: 00 d2                        	addb	%dl, %dl
c018fc6d: 02 00                        	addb	(%eax), %al
c018fc6f: 00 a0 00 11 00 0c            	addb	%ah, 201330944(%eax)
c018fc75: 00 00                        	addb	%al, (%eax)
c018fc77: 00 df                        	addb	%bl, %bh
c018fc79: 02 00                        	addb	(%eax), %al
c018fc7b: 00 a0 00 11 00 10            	addb	%ah, 268439808(%eax)
c018fc81: 00 00                        	addb	%al, (%eax)
c018fc83: 00 ed                        	addb	%ch, %ch
c018fc85: 02 00                        	addb	(%eax), %al
c018fc87: 00 a0 00 11 00 14            	addb	%ah, 335548672(%eax)
c018fc8d: 00 00                        	addb	%al, (%eax)
c018fc8f: 00 fc                        	addb	%bh, %ah
c018fc91: 02 00                        	addb	(%eax), %al
c018fc93: 00 a0 00 11 00 18            	addb	%ah, 402657536(%eax)
c018fc99: 00 00                        	addb	%al, (%eax)
c018fc9b: 00 09                        	addb	%cl, (%ecx)
c018fc9d: 03 00                        	addl	(%eax), %eax
c018fc9f: 00 80 00 1c 00 00            	addb	%al, 7168(%eax)
c018fca5: 00 00                        	addb	%al, (%eax)
c018fca7: 00 19                        	addb	%bl, (%ecx)
c018fca9: 03 00                        	addl	(%eax), %eax
c018fcab: 00 80 00 00 00 00            	addb	%al, (%eax)
c018fcb1: 00 00                        	addb	%al, (%eax)
c018fcb3: 00 00                        	addb	%al, (%eax)
c018fcb5: 00 00                        	addb	%al, (%eax)
c018fcb7: 00 44 00 12                  	addb	%al, 18(%eax,%eax)
		...
c018fcc3: 00 44 00 13                  	addb	%al, 19(%eax,%eax)
c018fcc7: 00 12                        	addb	%dl, (%edx)
c018fcc9: 00 00                        	addb	%al, (%eax)
c018fccb: 00 00                        	addb	%al, (%eax)
c018fccd: 00 00                        	addb	%al, (%eax)
c018fccf: 00 44 00 14                  	addb	%al, 20(%eax,%eax)
c018fcd3: 00 22                        	addb	%ah, (%edx)
c018fcd5: 00 00                        	addb	%al, (%eax)
c018fcd7: 00 00                        	addb	%al, (%eax)
c018fcd9: 00 00                        	addb	%al, (%eax)
c018fcdb: 00 44 00 14                  	addb	%al, 20(%eax,%eax)
c018fcdf: 00 28                        	addb	%ch, (%eax)
c018fce1: 00 00                        	addb	%al, (%eax)
c018fce3: 00 00                        	addb	%al, (%eax)
c018fce5: 00 00                        	addb	%al, (%eax)
c018fce7: 00 44 00 15                  	addb	%al, 21(%eax,%eax)
c018fceb: 00 34 00                     	addb	%dh, (%eax,%eax)
c018fcee: 00 00                        	addb	%al, (%eax)
c018fcf0: 00 00                        	addb	%al, (%eax)
c018fcf2: 00 00                        	addb	%al, (%eax)
c018fcf4: 44                           	incl	%esp
c018fcf5: 00 15 00 3a 00 00            	addb	%dl, 14848
c018fcfb: 00 00                        	addb	%al, (%eax)
c018fcfd: 00 00                        	addb	%al, (%eax)
c018fcff: 00 44 00 17                  	addb	%al, 23(%eax,%eax)
c018fd03: 00 46 00                     	addb	%al, (%esi)
c018fd06: 00 00                        	addb	%al, (%eax)
c018fd08: 00 00                        	addb	%al, (%eax)
c018fd0a: 00 00                        	addb	%al, (%eax)
c018fd0c: 44                           	incl	%esp
c018fd0d: 00 18                        	addb	%bl, (%eax)
c018fd0f: 00 56 00                     	addb	%dl, (%esi)
c018fd12: 00 00                        	addb	%al, (%eax)
c018fd14: 00 00                        	addb	%al, (%eax)
c018fd16: 00 00                        	addb	%al, (%eax)
c018fd18: 44                           	incl	%esp
c018fd19: 00 18                        	addb	%bl, (%eax)
c018fd1b: 00 5c 00 00                  	addb	%bl, (%eax,%eax)
c018fd1f: 00 00                        	addb	%al, (%eax)
c018fd21: 00 00                        	addb	%al, (%eax)
c018fd23: 00 44 00 18                  	addb	%al, 24(%eax,%eax)
c018fd27: 00 61 00                     	addb	%ah, (%ecx)
c018fd2a: 00 00                        	addb	%al, (%eax)
c018fd2c: 00 00                        	addb	%al, (%eax)
c018fd2e: 00 00                        	addb	%al, (%eax)
c018fd30: 44                           	incl	%esp
c018fd31: 00 1a                        	addb	%bl, (%edx)
c018fd33: 00 6b 00                     	addb	%ch, (%ebx)
c018fd36: 00 00                        	addb	%al, (%eax)
c018fd38: 00 00                        	addb	%al, (%eax)
c018fd3a: 00 00                        	addb	%al, (%eax)
c018fd3c: 44                           	incl	%esp
c018fd3d: 00 1b                        	addb	%bl, (%ebx)
c018fd3f: 00 79 00                     	addb	%bh, (%ecx)
c018fd42: 00 00                        	addb	%al, (%eax)
c018fd44: 00 00                        	addb	%al, (%eax)
c018fd46: 00 00                        	addb	%al, (%eax)
c018fd48: 44                           	incl	%esp
c018fd49: 00 1b                        	addb	%bl, (%ebx)
c018fd4b: 00 86 00 00 00 00            	addb	%al, (%esi)
c018fd51: 00 00                        	addb	%al, (%eax)
c018fd53: 00 44 00 1b                  	addb	%al, 27(%eax,%eax)
c018fd57: 00 8d 00 00 00 00            	addb	%cl, (%ebp)
c018fd5d: 00 00                        	addb	%al, (%eax)
c018fd5f: 00 44 00 1c                  	addb	%al, 28(%eax,%eax)
c018fd63: 00 9b 00 00 00 25            	addb	%bl, 620756992(%ebx)
c018fd69: 03 00                        	addl	(%eax), %eax
c018fd6b: 00 80 00 11 00 fc            	addb	%al, -67104512(%eax)
c018fd71: ff ff                        	<unknown>
c018fd73: ff 32                        	pushl	(%edx)
c018fd75: 03 00                        	addl	(%eax), %eax
c018fd77: 00 80 00 11 00 f8            	addb	%al, -134213376(%eax)
c018fd7d: ff ff                        	<unknown>
c018fd7f: ff 00                        	incl	(%eax)
c018fd81: 00 00                        	addb	%al, (%eax)
c018fd83: 00 24 00                     	addb	%ah, (%eax,%eax)
c018fd86: 00 00                        	addb	%al, (%eax)
c018fd88: 9e                           	sahf
c018fd89: 00 00                        	addb	%al, (%eax)
c018fd8b: 00 3d 03 00 00 24            	addb	%bh, 603979779
c018fd91: 00 1e                        	addb	%bl, (%esi)
c018fd93: 00 8c 12 10 c0 00 00         	addb	%cl, 49168(%edx,%edx)
c018fd9a: 00 00                        	addb	%al, (%eax)
c018fd9c: 44                           	incl	%esp
c018fd9d: 00 1f                        	addb	%bl, (%edi)
		...
c018fda7: 00 44 00 20                  	addb	%al, 32(%eax,%eax)
c018fdab: 00 06                        	addb	%al, (%esi)
c018fdad: 00 00                        	addb	%al, (%eax)
c018fdaf: 00 00                        	addb	%al, (%eax)
c018fdb1: 00 00                        	addb	%al, (%eax)
c018fdb3: 00 44 00 21                  	addb	%al, 33(%eax,%eax)
c018fdb7: 00 0f                        	addb	%cl, (%edi)
c018fdb9: 00 00                        	addb	%al, (%eax)
c018fdbb: 00 00                        	addb	%al, (%eax)
c018fdbd: 00 00                        	addb	%al, (%eax)
c018fdbf: 00 44 00 21                  	addb	%al, 33(%eax,%eax)
c018fdc3: 00 14 00                     	addb	%dl, (%eax,%eax)
c018fdc6: 00 00                        	addb	%al, (%eax)
c018fdc8: 00 00                        	addb	%al, (%eax)
c018fdca: 00 00                        	addb	%al, (%eax)
c018fdcc: 44                           	incl	%esp
c018fdcd: 00 23                        	addb	%ah, (%ebx)
c018fdcf: 00 19                        	addb	%bl, (%ecx)
c018fdd1: 00 00                        	addb	%al, (%eax)
c018fdd3: 00 00                        	addb	%al, (%eax)
c018fdd5: 00 00                        	addb	%al, (%eax)
c018fdd7: 00 44 00 24                  	addb	%al, 36(%eax,%eax)
c018fddb: 00 2b                        	addb	%ch, (%ebx)
c018fddd: 00 00                        	addb	%al, (%eax)
c018fddf: 00 00                        	addb	%al, (%eax)
c018fde1: 00 00                        	addb	%al, (%eax)
c018fde3: 00 44 00 25                  	addb	%al, 37(%eax,%eax)
c018fde7: 00 43 00                     	addb	%al, (%ebx)
c018fdea: 00 00                        	addb	%al, (%eax)
c018fdec: 00 00                        	addb	%al, (%eax)
c018fdee: 00 00                        	addb	%al, (%eax)
c018fdf0: 44                           	incl	%esp
c018fdf1: 00 26                        	addb	%ah, (%esi)
c018fdf3: 00 5b 00                     	addb	%bl, (%ebx)
c018fdf6: 00 00                        	addb	%al, (%eax)
c018fdf8: 00 00                        	addb	%al, (%eax)
c018fdfa: 00 00                        	addb	%al, (%eax)
c018fdfc: 44                           	incl	%esp
c018fdfd: 00 27                        	addb	%ah, (%edi)
c018fdff: 00 73 00                     	addb	%dh, (%ebx)
c018fe02: 00 00                        	addb	%al, (%eax)
c018fe04: 00 00                        	addb	%al, (%eax)
c018fe06: 00 00                        	addb	%al, (%eax)
c018fe08: 44                           	incl	%esp
c018fe09: 00 29                        	addb	%ch, (%ecx)
c018fe0b: 00 8b 00 00 00 00            	addb	%cl, (%ebx)
c018fe11: 00 00                        	addb	%al, (%eax)
c018fe13: 00 44 00 2a                  	addb	%al, 42(%eax,%eax)
c018fe17: 00 9c 00 00 00 00 00         	addb	%bl, (%eax,%eax)
c018fe1e: 00 00                        	addb	%al, (%eax)
c018fe20: 24 00                        	andb	$0, %al
c018fe22: 00 00                        	addb	%al, (%eax)
c018fe24: 9f                           	lahf
c018fe25: 00 00                        	addb	%al, (%eax)
c018fe27: 00 00                        	addb	%al, (%eax)
c018fe29: 00 00                        	addb	%al, (%eax)
c018fe2b: 00 64 00 00                  	addb	%ah, (%eax,%eax)
c018fe2f: 00 2b                        	addb	%ch, (%ebx)
c018fe31: 13 10                        	adcl	(%eax), %edx
c018fe33: c0 30                        	<unknown>
c018fe35: 00 00                        	addb	%al, (%eax)
c018fe37: 00 64 00 02                  	addb	%ah, 2(%eax,%eax)
c018fe3b: 00 2b                        	addb	%ch, (%ebx)
c018fe3d: 13 10                        	adcl	(%eax), %edx
c018fe3f: c0 4f 03 00                  	rorb	$0, 3(%edi)
c018fe43: 00 64 00 02                  	addb	%ah, 2(%eax,%eax)
c018fe47: 00 2b                        	addb	%ch, (%ebx)
c018fe49: 13 10                        	adcl	(%eax), %edx
c018fe4b: c0 63 00 00                  	shlb	$0, (%ebx)
c018fe4f: 00 3c 00                     	addb	%bh, (%eax,%eax)
c018fe52: 00 00                        	addb	%al, (%eax)
c018fe54: 00 00                        	addb	%al, (%eax)
c018fe56: 00 00                        	addb	%al, (%eax)
c018fe58: 5a                           	popl	%edx
c018fe59: 03 00                        	addl	(%eax), %eax
c018fe5b: 00 20                        	addb	%ah, (%eax)
c018fe5d: 00 08                        	addb	%cl, (%eax)
c018fe5f: 00 00                        	addb	%al, (%eax)
c018fe61: 00 00                        	addb	%al, (%eax)
c018fe63: 00 a5 03 00 00 80            	addb	%ah, -2147483645(%ebp)
c018fe69: 00 00                        	addb	%al, (%eax)
c018fe6b: 00 00                        	addb	%al, (%eax)
c018fe6d: 00 00                        	addb	%al, (%eax)
c018fe6f: 00 82 01 00 00 80            	addb	%al, -2147483647(%edx)
c018fe75: 00 1d 00 00 00 00            	addb	%bl, 0
c018fe7b: 00 92 01 00 00 80            	addb	%dl, -2147483647(%edx)
c018fe81: 00 00                        	addb	%al, (%eax)
c018fe83: 00 00                        	addb	%al, (%eax)
c018fe85: 00 00                        	addb	%al, (%eax)
c018fe87: 00 ac 01 00 00 80 00         	addb	%ch, 8388608(%ecx,%eax)
c018fe8e: 1f                           	popl	%ds
c018fe8f: 00 00                        	addb	%al, (%eax)
c018fe91: 00 00                        	addb	%al, (%eax)
c018fe93: 00 bb 01 00 00 80            	addb	%bh, -2147483647(%ebx)
c018fe99: 00 00                        	addb	%al, (%eax)
c018fe9b: 00 00                        	addb	%al, (%eax)
c018fe9d: 00 00                        	addb	%al, (%eax)
c018fe9f: 00 4d 04                     	addb	%cl, 4(%ebp)
c018fea2: 00 00                        	addb	%al, (%eax)
c018fea4: 20 00                        	andb	%al, (%eax)
c018fea6: 09 00                        	orl	%eax, (%eax)
c018fea8: 00 00                        	addb	%al, (%eax)
c018feaa: 00 00                        	addb	%al, (%eax)
c018feac: 6a 04                        	pushl	$4
c018feae: 00 00                        	addb	%al, (%eax)
c018feb0: 80 00 00                     	addb	$0, (%eax)
c018feb3: 00 00                        	addb	%al, (%eax)
c018feb5: 00 00                        	addb	%al, (%eax)
c018feb7: 00 bf 04 00 00 80            	addb	%bh, -2147483644(%edi)
c018febd: 00 15 00 00 00 00            	addb	%dl, 0
c018fec3: 00 50 02                     	addb	%dl, 2(%eax)
c018fec6: 00 00                        	addb	%al, (%eax)
c018fec8: 80 00 1b                     	addb	$27, (%eax)
c018fecb: 00 00                        	addb	%al, (%eax)
c018fecd: 00 00                        	addb	%al, (%eax)
c018fecf: 00 61 02                     	addb	%ah, 2(%ecx)
c018fed2: 00 00                        	addb	%al, (%eax)
c018fed4: 80 00 00                     	addb	$0, (%eax)
c018fed7: 00 00                        	addb	%al, (%eax)
c018fed9: 00 00                        	addb	%al, (%eax)
c018fedb: 00 cd                        	addb	%cl, %ch
c018fedd: 04 00                        	addb	$0, %al
c018fedf: 00 24 00                     	addb	%ah, (%eax,%eax)
c018fee2: 10 00                        	adcb	%al, (%eax)
c018fee4: 2b 13                        	subl	(%ebx), %edx
c018fee6: 10 c0                        	adcb	%al, %al
c018fee8: 92                           	xchgl	%edx, %eax
c018fee9: 02 00                        	addb	(%eax), %al
c018feeb: 00 80 00 00 00 00            	addb	%al, (%eax)
c018fef1: 00 00                        	addb	%al, (%eax)
c018fef3: 00 e9                        	addb	%ch, %cl
c018fef5: 04 00                        	addb	$0, %al
c018fef7: 00 a0 00 10 00 08            	addb	%ah, 134221824(%eax)
c018fefd: 00 00                        	addb	%al, (%eax)
c018feff: 00 d2                        	addb	%dl, %dl
c018ff01: 02 00                        	addb	(%eax), %al
c018ff03: 00 a0 00 10 00 0c            	addb	%ah, 201330688(%eax)
c018ff09: 00 00                        	addb	%al, (%eax)
c018ff0b: 00 f5                        	addb	%dh, %ch
c018ff0d: 04 00                        	addb	$0, %al
c018ff0f: 00 a0 00 10 00 10            	addb	%ah, 268439552(%eax)
c018ff15: 00 00                        	addb	%al, (%eax)
c018ff17: 00 21                        	addb	%ah, (%ecx)
c018ff19: 05 00 00 a0 00               	addl	$10485760, %eax
c018ff1e: 10 00                        	adcb	%al, (%eax)
c018ff20: 14 00                        	adcb	$0, %al
c018ff22: 00 00                        	addb	%al, (%eax)
c018ff24: 2f                           	das
c018ff25: 05 00 00 80 00               	addl	$8388608, %eax
		...
c018ff32: 00 00                        	addb	%al, (%eax)
c018ff34: 44                           	incl	%esp
c018ff35: 00 11                        	addb	%dl, (%ecx)
		...
c018ff3f: 00 44 00 12                  	addb	%al, 18(%eax,%eax)
c018ff43: 00 15 00 00 00 00            	addb	%dl, 0
c018ff49: 00 00                        	addb	%al, (%eax)
c018ff4b: 00 44 00 13                  	addb	%al, 19(%eax,%eax)
c018ff4f: 00 25 00 00 00 00            	addb	%ah, 0
c018ff55: 00 00                        	addb	%al, (%eax)
c018ff57: 00 44 00 13                  	addb	%al, 19(%eax,%eax)
c018ff5b: 00 2b                        	addb	%ch, (%ebx)
c018ff5d: 00 00                        	addb	%al, (%eax)
c018ff5f: 00 00                        	addb	%al, (%eax)
c018ff61: 00 00                        	addb	%al, (%eax)
c018ff63: 00 44 00 15                  	addb	%al, 21(%eax,%eax)
c018ff67: 00 38                        	addb	%bh, (%eax)
c018ff69: 00 00                        	addb	%al, (%eax)
c018ff6b: 00 00                        	addb	%al, (%eax)
c018ff6d: 00 00                        	addb	%al, (%eax)
c018ff6f: 00 44 00 16                  	addb	%al, 22(%eax,%eax)
c018ff73: 00 47 00                     	addb	%al, (%edi)
c018ff76: 00 00                        	addb	%al, (%eax)
c018ff78: 00 00                        	addb	%al, (%eax)
c018ff7a: 00 00                        	addb	%al, (%eax)
c018ff7c: 44                           	incl	%esp
c018ff7d: 00 17                        	addb	%dl, (%edi)
c018ff7f: 00 52 00                     	addb	%dl, (%edx)
c018ff82: 00 00                        	addb	%al, (%eax)
c018ff84: 00 00                        	addb	%al, (%eax)
c018ff86: 00 00                        	addb	%al, (%eax)
c018ff88: 44                           	incl	%esp
c018ff89: 00 18                        	addb	%bl, (%eax)
c018ff8b: 00 60 00                     	addb	%ah, (%eax)
c018ff8e: 00 00                        	addb	%al, (%eax)
c018ff90: 3b 05 00 00 80 00            	cmpl	8388608, %eax
c018ff96: 10 00                        	adcb	%al, (%eax)
c018ff98: fc                           	cld
c018ff99: ff ff                        	<unknown>
c018ff9b: ff 45 05                     	incl	5(%ebp)
c018ff9e: 00 00                        	addb	%al, (%eax)
c018ffa0: 80 00 10                     	addb	$16, (%eax)
c018ffa3: 00 f8                        	addb	%bh, %al
c018ffa5: ff ff                        	<unknown>
c018ffa7: ff 00                        	incl	(%eax)
c018ffa9: 00 00                        	addb	%al, (%eax)
c018ffab: 00 24 00                     	addb	%ah, (%eax,%eax)
c018ffae: 00 00                        	addb	%al, (%eax)
c018ffb0: 63 00                        	arpl	%ax, (%eax)
c018ffb2: 00 00                        	addb	%al, (%eax)
c018ffb4: 51                           	pushl	%ecx
c018ffb5: 05 00 00 24 00               	addl	$2359296, %eax
c018ffba: 1a 00                        	sbbb	(%eax), %al
c018ffbc: 8e 13                        	movw	(%ebx), %ss
c018ffbe: 10 c0                        	adcb	%al, %al
c018ffc0: 00 00                        	addb	%al, (%eax)
c018ffc2: 00 00                        	addb	%al, (%eax)
c018ffc4: 44                           	incl	%esp
c018ffc5: 00 1b                        	addb	%bl, (%ebx)
		...
c018ffcf: 00 44 00 1c                  	addb	%al, 28(%eax,%eax)
c018ffd3: 00 06                        	addb	%al, (%esi)
c018ffd5: 00 00                        	addb	%al, (%eax)
c018ffd7: 00 00                        	addb	%al, (%eax)
c018ffd9: 00 00                        	addb	%al, (%eax)
c018ffdb: 00 44 00 1d                  	addb	%al, 29(%eax,%eax)
c018ffdf: 00 1b                        	addb	%bl, (%ebx)
c018ffe1: 00 00                        	addb	%al, (%eax)
c018ffe3: 00 00                        	addb	%al, (%eax)
c018ffe5: 00 00                        	addb	%al, (%eax)
c018ffe7: 00 44 00 1f                  	addb	%al, 31(%eax,%eax)
c018ffeb: 00 30                        	addb	%dh, (%eax)
c018ffed: 00 00                        	addb	%al, (%eax)
c018ffef: 00 00                        	addb	%al, (%eax)
c018fff1: 00 00                        	addb	%al, (%eax)
c018fff3: 00 44 00 20                  	addb	%al, 32(%eax,%eax)
c018fff7: 00 39                        	addb	%bh, (%ecx)
c018fff9: 00 00                        	addb	%al, (%eax)
c018fffb: 00 00                        	addb	%al, (%eax)
c018fffd: 00 00                        	addb	%al, (%eax)
c018ffff: 00 44 00 20                  	addb	%al, 32(%eax,%eax)
c0190003: 00 3e                        	addb	%bh, (%esi)
c0190005: 00 00                        	addb	%al, (%eax)
c0190007: 00 00                        	addb	%al, (%eax)
c0190009: 00 00                        	addb	%al, (%eax)
c019000b: 00 44 00 23                  	addb	%al, 35(%eax,%eax)
c019000f: 00 43 00                     	addb	%al, (%ebx)
c0190012: 00 00                        	addb	%al, (%eax)
c0190014: 00 00                        	addb	%al, (%eax)
c0190016: 00 00                        	addb	%al, (%eax)
c0190018: 44                           	incl	%esp
c0190019: 00 26                        	addb	%ah, (%esi)
c019001b: 00 48 00                     	addb	%cl, (%eax)
c019001e: 00 00                        	addb	%al, (%eax)
c0190020: 00 00                        	addb	%al, (%eax)
c0190022: 00 00                        	addb	%al, (%eax)
c0190024: 44                           	incl	%esp
c0190025: 00 27                        	addb	%ah, (%edi)
c0190027: 00 5f 00                     	addb	%bl, (%edi)
c019002a: 00 00                        	addb	%al, (%eax)
c019002c: 00 00                        	addb	%al, (%eax)
c019002e: 00 00                        	addb	%al, (%eax)
c0190030: 44                           	incl	%esp
c0190031: 00 28                        	addb	%ch, (%eax)
c0190033: 00 76 00                     	addb	%dh, (%esi)
c0190036: 00 00                        	addb	%al, (%eax)
c0190038: 00 00                        	addb	%al, (%eax)
c019003a: 00 00                        	addb	%al, (%eax)
c019003c: 44                           	incl	%esp
c019003d: 00 29                        	addb	%ch, (%ecx)
c019003f: 00 8d 00 00 00 00            	addb	%cl, (%ebp)
c0190045: 00 00                        	addb	%al, (%eax)
c0190047: 00 44 00 2a                  	addb	%al, 42(%eax,%eax)
c019004b: 00 a4 00 00 00 00 00         	addb	%ah, (%eax,%eax)
c0190052: 00 00                        	addb	%al, (%eax)
c0190054: 44                           	incl	%esp
c0190055: 00 2b                        	addb	%ch, (%ebx)
c0190057: 00 bb 00 00 00 00            	addb	%bh, (%ebx)
c019005d: 00 00                        	addb	%al, (%eax)
c019005f: 00 44 00 2c                  	addb	%al, 44(%eax,%eax)
c0190063: 00 d2                        	addb	%dl, %dl
c0190065: 00 00                        	addb	%al, (%eax)
c0190067: 00 00                        	addb	%al, (%eax)
c0190069: 00 00                        	addb	%al, (%eax)
c019006b: 00 44 00 2d                  	addb	%al, 45(%eax,%eax)
c019006f: 00 e9                        	addb	%ch, %cl
c0190071: 00 00                        	addb	%al, (%eax)
c0190073: 00 00                        	addb	%al, (%eax)
c0190075: 00 00                        	addb	%al, (%eax)
c0190077: 00 44 00 2e                  	addb	%al, 46(%eax,%eax)
c019007b: 00 00                        	addb	%al, (%eax)
c019007d: 01 00                        	addl	%eax, (%eax)
c019007f: 00 00                        	addb	%al, (%eax)
c0190081: 00 00                        	addb	%al, (%eax)
c0190083: 00 44 00 2f                  	addb	%al, 47(%eax,%eax)
c0190087: 00 17                        	addb	%dl, (%edi)
c0190089: 01 00                        	addl	%eax, (%eax)
c019008b: 00 00                        	addb	%al, (%eax)
c019008d: 00 00                        	addb	%al, (%eax)
c019008f: 00 44 00 30                  	addb	%al, 48(%eax,%eax)
c0190093: 00 2e                        	addb	%ch, (%esi)
c0190095: 01 00                        	addl	%eax, (%eax)
c0190097: 00 00                        	addb	%al, (%eax)
c0190099: 00 00                        	addb	%al, (%eax)
c019009b: 00 44 00 31                  	addb	%al, 49(%eax,%eax)
c019009f: 00 45 01                     	addb	%al, 1(%ebp)
c01900a2: 00 00                        	addb	%al, (%eax)
c01900a4: 00 00                        	addb	%al, (%eax)
c01900a6: 00 00                        	addb	%al, (%eax)
c01900a8: 44                           	incl	%esp
c01900a9: 00 32                        	addb	%dh, (%edx)
c01900ab: 00 5c 01 00                  	addb	%bl, (%ecx,%eax)
c01900af: 00 00                        	addb	%al, (%eax)
c01900b1: 00 00                        	addb	%al, (%eax)
c01900b3: 00 44 00 33                  	addb	%al, 51(%eax,%eax)
c01900b7: 00 73 01                     	addb	%dh, 1(%ebx)
c01900ba: 00 00                        	addb	%al, (%eax)
c01900bc: 00 00                        	addb	%al, (%eax)
c01900be: 00 00                        	addb	%al, (%eax)
c01900c0: 44                           	incl	%esp
c01900c1: 00 34 00                     	addb	%dh, (%eax,%eax)
c01900c4: 8a 01                        	movb	(%ecx), %al
c01900c6: 00 00                        	addb	%al, (%eax)
c01900c8: 00 00                        	addb	%al, (%eax)
c01900ca: 00 00                        	addb	%al, (%eax)
c01900cc: 44                           	incl	%esp
c01900cd: 00 35 00 a1 01 00            	addb	%dh, 106752
c01900d3: 00 00                        	addb	%al, (%eax)
c01900d5: 00 00                        	addb	%al, (%eax)
c01900d7: 00 44 00 36                  	addb	%al, 54(%eax,%eax)
c01900db: 00 b8 01 00 00 00            	addb	%bh, 1(%eax)
c01900e1: 00 00                        	addb	%al, (%eax)
c01900e3: 00 44 00 37                  	addb	%al, 55(%eax,%eax)
c01900e7: 00 cf                        	addb	%cl, %bh
c01900e9: 01 00                        	addl	%eax, (%eax)
c01900eb: 00 00                        	addb	%al, (%eax)
c01900ed: 00 00                        	addb	%al, (%eax)
c01900ef: 00 44 00 38                  	addb	%al, 56(%eax,%eax)
c01900f3: 00 e6                        	addb	%ah, %dh
c01900f5: 01 00                        	addl	%eax, (%eax)
c01900f7: 00 00                        	addb	%al, (%eax)
c01900f9: 00 00                        	addb	%al, (%eax)
c01900fb: 00 44 00 39                  	addb	%al, 57(%eax,%eax)
c01900ff: 00 fd                        	addb	%bh, %ch
c0190101: 01 00                        	addl	%eax, (%eax)
c0190103: 00 00                        	addb	%al, (%eax)
c0190105: 00 00                        	addb	%al, (%eax)
c0190107: 00 44 00 3c                  	addb	%al, 60(%eax,%eax)
c019010b: 00 14 02                     	addb	%dl, (%edx,%eax)
c019010e: 00 00                        	addb	%al, (%eax)
c0190110: 00 00                        	addb	%al, (%eax)
c0190112: 00 00                        	addb	%al, (%eax)
c0190114: 44                           	incl	%esp
c0190115: 00 3d 00 2b 02 00            	addb	%bh, 142080
c019011b: 00 00                        	addb	%al, (%eax)
c019011d: 00 00                        	addb	%al, (%eax)
c019011f: 00 44 00 3e                  	addb	%al, 62(%eax,%eax)
c0190123: 00 42 02                     	addb	%al, 2(%edx)
c0190126: 00 00                        	addb	%al, (%eax)
c0190128: 00 00                        	addb	%al, (%eax)
c019012a: 00 00                        	addb	%al, (%eax)
c019012c: 44                           	incl	%esp
c019012d: 00 3f                        	addb	%bh, (%edi)
c019012f: 00 59 02                     	addb	%bl, 2(%ecx)
c0190132: 00 00                        	addb	%al, (%eax)
c0190134: 00 00                        	addb	%al, (%eax)
c0190136: 00 00                        	addb	%al, (%eax)
c0190138: 44                           	incl	%esp
c0190139: 00 40 00                     	addb	%al, (%eax)
c019013c: 70 02                        	jo	0xc0190140 <.stab+0x1140>
c019013e: 00 00                        	addb	%al, (%eax)
c0190140: 00 00                        	addb	%al, (%eax)
c0190142: 00 00                        	addb	%al, (%eax)
c0190144: 44                           	incl	%esp
c0190145: 00 41 00                     	addb	%al, (%ecx)
c0190148: 87 02                        	xchgl	%eax, (%edx)
c019014a: 00 00                        	addb	%al, (%eax)
c019014c: 00 00                        	addb	%al, (%eax)
c019014e: 00 00                        	addb	%al, (%eax)
c0190150: 44                           	incl	%esp
c0190151: 00 42 00                     	addb	%al, (%edx)
c0190154: 9e                           	sahf
c0190155: 02 00                        	addb	(%eax), %al
c0190157: 00 00                        	addb	%al, (%eax)
c0190159: 00 00                        	addb	%al, (%eax)
c019015b: 00 44 00 43                  	addb	%al, 67(%eax,%eax)
c019015f: 00 b5 02 00 00 00            	addb	%dh, 2(%ebp)
c0190165: 00 00                        	addb	%al, (%eax)
c0190167: 00 44 00 44                  	addb	%al, 68(%eax,%eax)
c019016b: 00 cc                        	addb	%cl, %ah
c019016d: 02 00                        	addb	(%eax), %al
c019016f: 00 00                        	addb	%al, (%eax)
c0190171: 00 00                        	addb	%al, (%eax)
c0190173: 00 44 00 45                  	addb	%al, 69(%eax,%eax)
c0190177: 00 e3                        	addb	%ah, %bl
c0190179: 02 00                        	addb	(%eax), %al
c019017b: 00 00                        	addb	%al, (%eax)
c019017d: 00 00                        	addb	%al, (%eax)
c019017f: 00 44 00 46                  	addb	%al, 70(%eax,%eax)
c0190183: 00 fa                        	addb	%bh, %dl
c0190185: 02 00                        	addb	(%eax), %al
c0190187: 00 00                        	addb	%al, (%eax)
c0190189: 00 00                        	addb	%al, (%eax)
c019018b: 00 44 00 47                  	addb	%al, 71(%eax,%eax)
c019018f: 00 11                        	addb	%dl, (%ecx)
c0190191: 03 00                        	addl	(%eax), %eax
c0190193: 00 00                        	addb	%al, (%eax)
c0190195: 00 00                        	addb	%al, (%eax)
c0190197: 00 44 00 4a                  	addb	%al, 74(%eax,%eax)
c019019b: 00 28                        	addb	%ch, (%eax)
c019019d: 03 00                        	addl	(%eax), %eax
c019019f: 00 00                        	addb	%al, (%eax)
c01901a1: 00 00                        	addb	%al, (%eax)
c01901a3: 00 44 00 4b                  	addb	%al, 75(%eax,%eax)
c01901a7: 00 3f                        	addb	%bh, (%edi)
c01901a9: 03 00                        	addl	(%eax), %eax
c01901ab: 00 00                        	addb	%al, (%eax)
c01901ad: 00 00                        	addb	%al, (%eax)
c01901af: 00 44 00 4c                  	addb	%al, 76(%eax,%eax)
c01901b3: 00 56 03                     	addb	%dl, 3(%esi)
c01901b6: 00 00                        	addb	%al, (%eax)
c01901b8: 00 00                        	addb	%al, (%eax)
c01901ba: 00 00                        	addb	%al, (%eax)
c01901bc: 44                           	incl	%esp
c01901bd: 00 4d 00                     	addb	%cl, (%ebp)
c01901c0: 6d                           	insl	%dx, %es:(%edi)
c01901c1: 03 00                        	addl	(%eax), %eax
c01901c3: 00 00                        	addb	%al, (%eax)
c01901c5: 00 00                        	addb	%al, (%eax)
c01901c7: 00 44 00 4e                  	addb	%al, 78(%eax,%eax)
c01901cb: 00 84 03 00 00 00 00         	addb	%al, (%ebx,%eax)
c01901d2: 00 00                        	addb	%al, (%eax)
c01901d4: 44                           	incl	%esp
c01901d5: 00 4f 00                     	addb	%cl, (%edi)
c01901d8: 9b                           	wait
c01901d9: 03 00                        	addl	(%eax), %eax
c01901db: 00 00                        	addb	%al, (%eax)
c01901dd: 00 00                        	addb	%al, (%eax)
c01901df: 00 44 00 50                  	addb	%al, 80(%eax,%eax)
c01901e3: 00 b2 03 00 00 00            	addb	%dh, 3(%edx)
c01901e9: 00 00                        	addb	%al, (%eax)
c01901eb: 00 44 00 51                  	addb	%al, 81(%eax,%eax)
c01901ef: 00 c9                        	addb	%cl, %cl
c01901f1: 03 00                        	addl	(%eax), %eax
c01901f3: 00 00                        	addb	%al, (%eax)
c01901f5: 00 00                        	addb	%al, (%eax)
c01901f7: 00 44 00 52                  	addb	%al, 82(%eax,%eax)
c01901fb: 00 e0                        	addb	%ah, %al
c01901fd: 03 00                        	addl	(%eax), %eax
c01901ff: 00 00                        	addb	%al, (%eax)
c0190201: 00 00                        	addb	%al, (%eax)
c0190203: 00 44 00 53                  	addb	%al, 83(%eax,%eax)
c0190207: 00 f7                        	addb	%dh, %bh
c0190209: 03 00                        	addl	(%eax), %eax
c019020b: 00 00                        	addb	%al, (%eax)
c019020d: 00 00                        	addb	%al, (%eax)
c019020f: 00 44 00 54                  	addb	%al, 84(%eax,%eax)
c0190213: 00 0e                        	addb	%cl, (%esi)
c0190215: 04 00                        	addb	$0, %al
c0190217: 00 00                        	addb	%al, (%eax)
c0190219: 00 00                        	addb	%al, (%eax)
c019021b: 00 44 00 55                  	addb	%al, 85(%eax,%eax)
c019021f: 00 25 04 00 00 00            	addb	%ah, 4
c0190225: 00 00                        	addb	%al, (%eax)
c0190227: 00 44 00 56                  	addb	%al, 86(%eax,%eax)
c019022b: 00 3c 04                     	addb	%bh, (%esp,%eax)
c019022e: 00 00                        	addb	%al, (%eax)
c0190230: 00 00                        	addb	%al, (%eax)
c0190232: 00 00                        	addb	%al, (%eax)
c0190234: 44                           	incl	%esp
c0190235: 00 57 00                     	addb	%dl, (%edi)
c0190238: 53                           	pushl	%ebx
c0190239: 04 00                        	addb	$0, %al
c019023b: 00 00                        	addb	%al, (%eax)
c019023d: 00 00                        	addb	%al, (%eax)
c019023f: 00 44 00 58                  	addb	%al, 88(%eax,%eax)
c0190243: 00 6a 04                     	addb	%ch, 4(%edx)
c0190246: 00 00                        	addb	%al, (%eax)
c0190248: 00 00                        	addb	%al, (%eax)
c019024a: 00 00                        	addb	%al, (%eax)
c019024c: 44                           	incl	%esp
c019024d: 00 59 00                     	addb	%bl, (%ecx)
c0190250: 81 04 00 00 00 00 00         	addl	$0, (%eax,%eax)
c0190257: 00 44 00 5b                  	addb	%al, 91(%eax,%eax)
c019025b: 00 98 04 00 00 00            	addb	%bl, 4(%eax)
c0190261: 00 00                        	addb	%al, (%eax)
c0190263: 00 44 00 5c                  	addb	%al, 92(%eax,%eax)
c0190267: 00 a9 04 00 00 00            	addb	%ch, 4(%ecx)
c019026d: 00 00                        	addb	%al, (%eax)
c019026f: 00 24 00                     	addb	%ah, (%eax,%eax)
c0190272: 00 00                        	addb	%al, (%eax)
c0190274: ac                           	lodsb	(%esi), %al
c0190275: 04 00                        	addb	$0, %al
c0190277: 00 00                        	addb	%al, (%eax)
c0190279: 00 00                        	addb	%al, (%eax)
c019027b: 00 64 00 00                  	addb	%ah, (%eax,%eax)
c019027f: 00 3a                        	addb	%bh, (%edx)
c0190281: 18 10                        	sbbb	%dl, (%eax)
c0190283: c0 30                        	<unknown>
c0190285: 00 00                        	addb	%al, (%eax)
c0190287: 00 64 00 02                  	addb	%ah, 2(%eax,%eax)
c019028b: 00 3a                        	addb	%bh, (%edx)
c019028d: 18 10                        	sbbb	%dl, (%eax)
c019028f: c0 63 05 00                  	shlb	$0, 5(%ebx)
c0190293: 00 64 00 02                  	addb	%ah, 2(%eax,%eax)
c0190297: 00 3a                        	addb	%bh, (%edx)
c0190299: 18 10                        	sbbb	%dl, (%eax)
c019029b: c0 63 00 00                  	shlb	$0, (%ebx)
c019029f: 00 3c 00                     	addb	%bh, (%eax,%eax)
c01902a2: 00 00                        	addb	%al, (%eax)
c01902a4: 00 00                        	addb	%al, (%eax)
c01902a6: 00 00                        	addb	%al, (%eax)
c01902a8: 70 05                        	jo	0xc01902af <.stab+0x12af>
c01902aa: 00 00                        	addb	%al, (%eax)
c01902ac: 24 00                        	andb	$0, %al
c01902ae: 09 00                        	orl	%eax, (%eax)
c01902b0: 3a 18                        	cmpb	(%eax), %bl
c01902b2: 10 c0                        	adcb	%al, %al
c01902b4: a1 05 00 00 80               	movl	2147483653, %eax
		...
c01902c1: 00 00                        	addb	%al, (%eax)
c01902c3: 00 44 00 0a                  	addb	%al, 10(%eax,%eax)
		...
c01902cf: 00 44 00 0b                  	addb	%al, 11(%eax,%eax)
c01902d3: 00 06                        	addb	%al, (%esi)
c01902d5: 00 00                        	addb	%al, (%eax)
c01902d7: 00 00                        	addb	%al, (%eax)
c01902d9: 00 00                        	addb	%al, (%eax)
c01902db: 00 44 00 0d                  	addb	%al, 13(%eax,%eax)
c01902df: 00 0b                        	addb	%cl, (%ebx)
c01902e1: 00 00                        	addb	%al, (%eax)
c01902e3: 00 00                        	addb	%al, (%eax)
c01902e5: 00 00                        	addb	%al, (%eax)
c01902e7: 00 44 00 0e                  	addb	%al, 14(%eax,%eax)
c01902eb: 00 10                        	addb	%dl, (%eax)
c01902ed: 00 00                        	addb	%al, (%eax)
c01902ef: 00 00                        	addb	%al, (%eax)
c01902f1: 00 00                        	addb	%al, (%eax)
c01902f3: 00 44 00 10                  	addb	%al, 16(%eax,%eax)
c01902f7: 00 15 00 00 00 00            	addb	%dl, 0
c01902fd: 00 00                        	addb	%al, (%eax)
c01902ff: 00 44 00 11                  	addb	%al, 17(%eax,%eax)
c0190303: 00 1a                        	addb	%bl, (%edx)
c0190305: 00 00                        	addb	%al, (%eax)
c0190307: 00 00                        	addb	%al, (%eax)
c0190309: 00 00                        	addb	%al, (%eax)
c019030b: 00 44 00 12                  	addb	%al, 18(%eax,%eax)
c019030f: 00 1f                        	addb	%bl, (%edi)
c0190311: 00 00                        	addb	%al, (%eax)
c0190313: 00 00                        	addb	%al, (%eax)
c0190315: 00 00                        	addb	%al, (%eax)
c0190317: 00 44 00 14                  	addb	%al, 20(%eax,%eax)
c019031b: 00 24 00                     	addb	%ah, (%eax,%eax)
c019031e: 00 00                        	addb	%al, (%eax)
c0190320: 00 00                        	addb	%al, (%eax)
c0190322: 00 00                        	addb	%al, (%eax)
c0190324: 44                           	incl	%esp
c0190325: 00 16                        	addb	%dl, (%esi)
c0190327: 00 25 00 00 00 00            	addb	%ah, 0
c019032d: 00 00                        	addb	%al, (%eax)
c019032f: 00 44 00 18                  	addb	%al, 24(%eax,%eax)
c0190333: 00 35 00 00 00 00            	addb	%dh, 0
c0190339: 00 00                        	addb	%al, (%eax)
c019033b: 00 44 00 19                  	addb	%al, 25(%eax,%eax)
c019033f: 00 3a                        	addb	%bh, (%edx)
c0190341: 00 00                        	addb	%al, (%eax)
c0190343: 00 00                        	addb	%al, (%eax)
c0190345: 00 00                        	addb	%al, (%eax)
c0190347: 00 24 00                     	addb	%ah, (%eax,%eax)
c019034a: 00 00                        	addb	%al, (%eax)
c019034c: 3c 00                        	cmpb	$0, %al
c019034e: 00 00                        	addb	%al, (%eax)
c0190350: 00 00                        	addb	%al, (%eax)
c0190352: 00 00                        	addb	%al, (%eax)
c0190354: 64 00 00                     	addb	%al, %fs:(%eax)
c0190357: 00 76 18                     	addb	%dh, 24(%esi)
c019035a: 10 c0                        	adcb	%al, %al
c019035c: 30 00                        	xorb	%al, (%eax)
c019035e: 00 00                        	addb	%al, (%eax)
c0190360: 64 00 02                     	addb	%al, %fs:(%edx)
c0190363: 00 76 18                     	addb	%dh, 24(%esi)
c0190366: 10 c0                        	adcb	%al, %al
c0190368: ac                           	lodsb	(%esi), %al
c0190369: 05 00 00 64 00               	addl	$6553600, %eax
c019036e: 02 00                        	addb	(%eax), %al
c0190370: 76 18                        	jbe	0xc019038a <.stab+0x138a>
c0190372: 10 c0                        	adcb	%al, %al
c0190374: 63 00                        	arpl	%ax, (%eax)
c0190376: 00 00                        	addb	%al, (%eax)
c0190378: 3c 00                        	cmpb	$0, %al
c019037a: 00 00                        	addb	%al, (%eax)
c019037c: 00 00                        	addb	%al, (%eax)
c019037e: 00 00                        	addb	%al, (%eax)
c0190380: ba 05 00 00 24               	movl	$603979781, %edx
c0190385: 00 0b                        	addb	%cl, (%ebx)
c0190387: 00 76 18                     	addb	%dh, 24(%esi)
c019038a: 10 c0                        	adcb	%al, %al
c019038c: d0 05 00 00 80 00            	rolb	8388608
		...
c019039a: 00 00                        	addb	%al, (%eax)
c019039c: 44                           	incl	%esp
c019039d: 00 0c 00                     	addb	%cl, (%eax,%eax)
		...
c01903a8: 44                           	incl	%esp
c01903a9: 00 0e                        	addb	%cl, (%esi)
c01903ab: 00 06                        	addb	%al, (%esi)
c01903ad: 00 00                        	addb	%al, (%eax)
c01903af: 00 00                        	addb	%al, (%eax)
c01903b1: 00 00                        	addb	%al, (%eax)
c01903b3: 00 44 00 0f                  	addb	%al, 15(%eax,%eax)
c01903b7: 00 15 00 00 00 00            	addb	%dl, 0
c01903bd: 00 00                        	addb	%al, (%eax)
c01903bf: 00 44 00 12                  	addb	%al, 18(%eax,%eax)
c01903c3: 00 27                        	addb	%ah, (%edi)
c01903c5: 00 00                        	addb	%al, (%eax)
c01903c7: 00 00                        	addb	%al, (%eax)
c01903c9: 00 00                        	addb	%al, (%eax)
c01903cb: 00 44 00 13                  	addb	%al, 19(%eax,%eax)
c01903cf: 00 36                        	addb	%dh, (%esi)
c01903d1: 00 00                        	addb	%al, (%eax)
c01903d3: 00 00                        	addb	%al, (%eax)
c01903d5: 00 00                        	addb	%al, (%eax)
c01903d7: 00 44 00 16                  	addb	%al, 22(%eax,%eax)
c01903db: 00 48 00                     	addb	%cl, (%eax)
c01903de: 00 00                        	addb	%al, (%eax)
c01903e0: 00 00                        	addb	%al, (%eax)
c01903e2: 00 00                        	addb	%al, (%eax)
c01903e4: 44                           	incl	%esp
c01903e5: 00 17                        	addb	%dl, (%edi)
c01903e7: 00 57 00                     	addb	%dl, (%edi)
c01903ea: 00 00                        	addb	%al, (%eax)
c01903ec: 00 00                        	addb	%al, (%eax)
c01903ee: 00 00                        	addb	%al, (%eax)
c01903f0: 44                           	incl	%esp
c01903f1: 00 1a                        	addb	%bl, (%edx)
c01903f3: 00 69 00                     	addb	%ch, (%ecx)
c01903f6: 00 00                        	addb	%al, (%eax)
c01903f8: 00 00                        	addb	%al, (%eax)
c01903fa: 00 00                        	addb	%al, (%eax)
c01903fc: 44                           	incl	%esp
c01903fd: 00 1b                        	addb	%bl, (%ebx)
c01903ff: 00 78 00                     	addb	%bh, (%eax)
c0190402: 00 00                        	addb	%al, (%eax)
c0190404: 00 00                        	addb	%al, (%eax)
c0190406: 00 00                        	addb	%al, (%eax)
c0190408: 44                           	incl	%esp
c0190409: 00 1e                        	addb	%bl, (%esi)
c019040b: 00 8a 00 00 00 00            	addb	%cl, (%edx)
c0190411: 00 00                        	addb	%al, (%eax)
c0190413: 00 44 00 1f                  	addb	%al, 31(%eax,%eax)
c0190417: 00 99 00 00 00 00            	addb	%bl, (%ecx)
c019041d: 00 00                        	addb	%al, (%eax)
c019041f: 00 44 00 20                  	addb	%al, 32(%eax,%eax)
c0190423: 00 ab 00 00 00 00            	addb	%ch, (%ebx)
c0190429: 00 00                        	addb	%al, (%eax)
c019042b: 00 24 00                     	addb	%ah, (%eax,%eax)
c019042e: 00 00                        	addb	%al, (%eax)
c0190430: ae                           	scasb	%es:(%edi), %al
c0190431: 00 00                        	addb	%al, (%eax)
c0190433: 00 dc                        	addb	%bl, %ah
c0190435: 05 00 00 24 00               	addl	$2359296, %eax
c019043a: 22 00                        	andb	(%eax), %al
c019043c: 24 19                        	andb	$25, %al
c019043e: 10 c0                        	adcb	%al, %al
c0190440: ed                           	inl	%dx, %eax
c0190441: 05 00 00 a0 00               	addl	$10485760, %eax
c0190446: 22 00                        	andb	(%eax), %al
c0190448: 08 00                        	orb	%al, (%eax)
c019044a: 00 00                        	addb	%al, (%eax)
c019044c: 19 06                        	sbbl	%eax, (%esi)
c019044e: 00 00                        	addb	%al, (%eax)
c0190450: 80 00 1b                     	addb	$27, (%eax)
c0190453: 00 00                        	addb	%al, (%eax)
c0190455: 00 00                        	addb	%al, (%eax)
c0190457: 00 29                        	addb	%ch, (%ecx)
c0190459: 06                           	pushl	%es
c019045a: 00 00                        	addb	%al, (%eax)
c019045c: 80 00 00                     	addb	$0, (%eax)
		...
c0190467: 00 44 00 22                  	addb	%al, 34(%eax,%eax)
		...
c0190473: 00 44 00 24                  	addb	%al, 36(%eax,%eax)
c0190477: 00 06                        	addb	%al, (%esi)
c0190479: 00 00                        	addb	%al, (%eax)
c019047b: 00 00                        	addb	%al, (%eax)
c019047d: 00 00                        	addb	%al, (%eax)
c019047f: 00 44 00 25                  	addb	%al, 37(%eax,%eax)
c0190483: 00 0c 00                     	addb	%cl, (%eax,%eax)
c0190486: 00 00                        	addb	%al, (%eax)
c0190488: 00 00                        	addb	%al, (%eax)
c019048a: 00 00                        	addb	%al, (%eax)
c019048c: 44                           	incl	%esp
c019048d: 00 27                        	addb	%ah, (%edi)
c019048f: 00 1e                        	addb	%bl, (%esi)
c0190491: 00 00                        	addb	%al, (%eax)
c0190493: 00 00                        	addb	%al, (%eax)
c0190495: 00 00                        	addb	%al, (%eax)
c0190497: 00 44 00 28                  	addb	%al, 40(%eax,%eax)
c019049b: 00 2d 00 00 00 00            	addb	%ch, 0
c01904a1: 00 00                        	addb	%al, (%eax)
c01904a3: 00 24 00                     	addb	%ah, (%eax,%eax)
c01904a6: 00 00                        	addb	%al, (%eax)
c01904a8: 30 00                        	xorb	%al, (%eax)
c01904aa: 00 00                        	addb	%al, (%eax)
c01904ac: 00 00                        	addb	%al, (%eax)
c01904ae: 00 00                        	addb	%al, (%eax)
c01904b0: 64 00 00                     	addb	%al, %fs:(%eax)
c01904b3: 00 54 19 10                  	addb	%dl, 16(%ecx,%ebx)
c01904b7: c0 30                        	<unknown>
c01904b9: 00 00                        	addb	%al, (%eax)
c01904bb: 00 64 00 02                  	addb	%ah, 2(%eax,%eax)
c01904bf: 00 54 19 10                  	addb	%dl, 16(%ecx,%ebx)
c01904c3: c0 3d 06 00 00 64 00         	sarb	$0, 1677721606
c01904ca: 02 00                        	addb	(%eax), %al
c01904cc: 54                           	pushl	%esp
c01904cd: 19 10                        	sbbl	%edx, (%eax)
c01904cf: c0 63 00 00                  	shlb	$0, (%ebx)
c01904d3: 00 3c 00                     	addb	%bh, (%eax,%eax)
c01904d6: 00 00                        	addb	%al, (%eax)
c01904d8: 00 00                        	addb	%al, (%eax)
c01904da: 00 00                        	addb	%al, (%eax)
c01904dc: 4d                           	decl	%ebp
c01904dd: 06                           	pushl	%es
c01904de: 00 00                        	addb	%al, (%eax)
c01904e0: 24 00                        	andb	$0, %al
c01904e2: 0e                           	pushl	%cs
c01904e3: 00 54 19 10                  	addb	%dl, 16(%ecx,%ebx)
c01904e7: c0 d0 05                     	rclb	$5, %al
c01904ea: 00 00                        	addb	%al, (%eax)
c01904ec: 80 00 00                     	addb	$0, (%eax)
c01904ef: 00 00                        	addb	%al, (%eax)
c01904f1: 00 00                        	addb	%al, (%eax)
c01904f3: 00 63 06                     	addb	%ah, 6(%ebx)
c01904f6: 00 00                        	addb	%al, (%eax)
c01904f8: a0 00 0e 00 08               	movb	134221312, %al
c01904fd: 00 00                        	addb	%al, (%eax)
c01904ff: 00 89 06 00 00 80            	addb	%cl, -2147483642(%ecx)
c0190505: 00 00                        	addb	%al, (%eax)
c0190507: 00 00                        	addb	%al, (%eax)
c0190509: 00 00                        	addb	%al, (%eax)
c019050b: 00 d4                        	addb	%dl, %ah
c019050d: 07                           	popl	%es
c019050e: 00 00                        	addb	%al, (%eax)
c0190510: 80 00 1b                     	addb	$27, (%eax)
c0190513: 00 00                        	addb	%al, (%eax)
c0190515: 00 00                        	addb	%al, (%eax)
c0190517: 00 e4                        	addb	%ah, %ah
c0190519: 07                           	popl	%es
c019051a: 00 00                        	addb	%al, (%eax)
c019051c: 80 00 00                     	addb	$0, (%eax)
		...
c0190527: 00 44 00 0f                  	addb	%al, 15(%eax,%eax)
		...
c0190533: 00 44 00 11                  	addb	%al, 17(%eax,%eax)
c0190537: 00 03                        	addb	%al, (%ebx)
c0190539: 00 00                        	addb	%al, (%eax)
c019053b: 00 00                        	addb	%al, (%eax)
c019053d: 00 00                        	addb	%al, (%eax)
c019053f: 00 44 00 13                  	addb	%al, 19(%eax,%eax)
c0190543: 00 10                        	addb	%dl, (%eax)
c0190545: 00 00                        	addb	%al, (%eax)
c0190547: 00 f8                        	addb	%bh, %al
c0190549: 07                           	popl	%es
c019054a: 00 00                        	addb	%al, (%eax)
c019054c: 26 00 10                     	addb	%dl, %es:(%eax)
c019054f: 00 68 d8                     	addb	%ch, -40(%eax)
c0190552: 10 c0                        	adcb	%al, %al
c0190554: 00 00                        	addb	%al, (%eax)
c0190556: 00 00                        	addb	%al, (%eax)
c0190558: c0 00 00                     	rolb	$0, (%eax)
		...
c0190563: 00 e0                        	addb	%ah, %al
c0190565: 00 00                        	addb	%al, (%eax)
c0190567: 00 13                        	addb	%dl, (%ebx)
c0190569: 00 00                        	addb	%al, (%eax)
c019056b: 00 00                        	addb	%al, (%eax)
c019056d: 00 00                        	addb	%al, (%eax)
c019056f: 00 24 00                     	addb	%ah, (%eax,%eax)
c0190572: 00 00                        	addb	%al, (%eax)
c0190574: 13 00                        	adcl	(%eax), %eax
c0190576: 00 00                        	addb	%al, (%eax)
c0190578: 04 08                        	addb	$8, %al
c019057a: 00 00                        	addb	%al, (%eax)
c019057c: 24 00                        	andb	$0, %al
c019057e: 15 00 67 19 10               	adcl	$270100224, %eax
c0190583: c0 14 08 00                  	rclb	$0, (%eax,%ecx)
c0190587: 00 80 00 1f 00 00            	addb	%al, 7936(%eax)
c019058d: 00 00                        	addb	%al, (%eax)
c019058f: 00 bb 01 00 00 80            	addb	%bh, -2147483647(%ebx)
		...
c019059d: 00 00                        	addb	%al, (%eax)
c019059f: 00 44 00 16                  	addb	%al, 22(%eax,%eax)
		...
c01905ab: 00 44 00 17                  	addb	%al, 23(%eax,%eax)
c01905af: 00 06                        	addb	%al, (%esi)
c01905b1: 00 00                        	addb	%al, (%eax)
c01905b3: 00 00                        	addb	%al, (%eax)
c01905b5: 00 00                        	addb	%al, (%eax)
c01905b7: 00 44 00 18                  	addb	%al, 24(%eax,%eax)
c01905bb: 00 18                        	addb	%bl, (%eax)
c01905bd: 00 00                        	addb	%al, (%eax)
c01905bf: 00 00                        	addb	%al, (%eax)
c01905c1: 00 00                        	addb	%al, (%eax)
c01905c3: 00 44 00 1b                  	addb	%al, 27(%eax,%eax)
c01905c7: 00 1f                        	addb	%bl, (%edi)
c01905c9: 00 00                        	addb	%al, (%eax)
c01905cb: 00 00                        	addb	%al, (%eax)
c01905cd: 00 00                        	addb	%al, (%eax)
c01905cf: 00 44 00 1d                  	addb	%al, 29(%eax,%eax)
c01905d3: 00 2e                        	addb	%ch, (%esi)
c01905d5: 00 00                        	addb	%al, (%eax)
c01905d7: 00 00                        	addb	%al, (%eax)
c01905d9: 00 00                        	addb	%al, (%eax)
c01905db: 00 44 00 1e                  	addb	%al, 30(%eax,%eax)
c01905df: 00 34 00                     	addb	%dh, (%eax,%eax)
c01905e2: 00 00                        	addb	%al, (%eax)
c01905e4: 00 00                        	addb	%al, (%eax)
c01905e6: 00 00                        	addb	%al, (%eax)
c01905e8: 44                           	incl	%esp
c01905e9: 00 1e                        	addb	%bl, (%esi)
c01905eb: 00 3a                        	addb	%bh, (%edx)
c01905ed: 00 00                        	addb	%al, (%eax)
c01905ef: 00 00                        	addb	%al, (%eax)
c01905f1: 00 00                        	addb	%al, (%eax)
c01905f3: 00 44 00 21                  	addb	%al, 33(%eax,%eax)
c01905f7: 00 3d 00 00 00 00            	addb	%bh, 0
c01905fd: 00 00                        	addb	%al, (%eax)
c01905ff: 00 44 00 22                  	addb	%al, 34(%eax,%eax)
c0190603: 00 4f 00                     	addb	%cl, (%edi)
c0190606: 00 00                        	addb	%al, (%eax)
c0190608: 00 00                        	addb	%al, (%eax)
c019060a: 00 00                        	addb	%al, (%eax)
c019060c: 44                           	incl	%esp
c019060d: 00 23                        	addb	%ah, (%ebx)
c019060f: 00 61 00                     	addb	%ah, (%ecx)
c0190612: 00 00                        	addb	%al, (%eax)
c0190614: 3b 08                        	cmpl	(%eax), %ecx
c0190616: 00 00                        	addb	%al, (%eax)
c0190618: 80 00 18                     	addb	$24, (%eax)
c019061b: 00 f4                        	addb	%dh, %ah
c019061d: ff ff                        	<unknown>
c019061f: ff 49 08                     	decl	8(%ecx)
c0190622: 00 00                        	addb	%al, (%eax)
c0190624: 80 00 1d                     	addb	$29, (%eax)
c0190627: 00 f3                        	addb	%dh, %bl
c0190629: ff ff                        	<unknown>
c019062b: ff 53 08                     	calll	*8(%ebx)
c019062e: 00 00                        	addb	%al, (%eax)
c0190630: 80 00 1e                     	addb	$30, (%eax)
c0190633: 00 f2                        	addb	%dh, %dl
c0190635: ff ff                        	<unknown>
c0190637: ff 00                        	incl	(%eax)
c0190639: 00 00                        	addb	%al, (%eax)
c019063b: 00 c0                        	addb	%al, %al
		...
c0190645: 00 00                        	addb	%al, (%eax)
c0190647: 00 e0                        	addb	%ah, %al
c0190649: 00 00                        	addb	%al, (%eax)
c019064b: 00 64 00 00                  	addb	%ah, (%eax,%eax)
c019064f: 00 00                        	addb	%al, (%eax)
c0190651: 00 00                        	addb	%al, (%eax)
c0190653: 00 24 00                     	addb	%ah, (%eax,%eax)
c0190656: 00 00                        	addb	%al, (%eax)
c0190658: 64 00 00                     	addb	%al, %fs:(%eax)
c019065b: 00 f8                        	addb	%bh, %al
c019065d: 07                           	popl	%es
c019065e: 00 00                        	addb	%al, (%eax)
c0190660: 26 00 10                     	addb	%dl, %es:(%eax)
c0190663: 00 68 d8                     	addb	%ch, -40(%eax)
c0190666: 10 c0                        	adcb	%al, %al
c0190668: 00 00                        	addb	%al, (%eax)
c019066a: 00 00                        	addb	%al, (%eax)
c019066c: 64 00 00                     	addb	%al, %fs:(%eax)
c019066f: 00 cb                        	addb	%cl, %bl
c0190671: 19 10                        	sbbl	%edx, (%eax)
c0190673: c0 30                        	<unknown>
c0190675: 00 00                        	addb	%al, (%eax)
c0190677: 00 64 00 02                  	addb	%ah, 2(%eax,%eax)
c019067b: 00 cb                        	addb	%cl, %bl
c019067d: 19 10                        	sbbl	%edx, (%eax)
c019067f: c0 5e 08 00                  	rcrb	$0, 8(%esi)
c0190683: 00 64 00 02                  	addb	%ah, 2(%eax,%eax)
c0190687: 00 cb                        	addb	%cl, %bl
c0190689: 19 10                        	sbbl	%edx, (%eax)
c019068b: c0 63 00 00                  	shlb	$0, (%ebx)
c019068f: 00 3c 00                     	addb	%bh, (%eax,%eax)
c0190692: 00 00                        	addb	%al, (%eax)
c0190694: 00 00                        	addb	%al, (%eax)
c0190696: 00 00                        	addb	%al, (%eax)
c0190698: 70 08                        	jo	0xc01906a2 <.stab+0x16a2>
c019069a: 00 00                        	addb	%al, (%eax)
c019069c: 26 00 07                     	addb	%al, %es:(%edi)
c019069f: 00 00                        	addb	%al, (%eax)
c01906a1: 40                           	incl	%eax
c01906a2: 10 c0                        	adcb	%al, %al
c01906a4: a6                           	cmpsb	%es:(%edi), (%esi)
c01906a5: 08 00                        	orb	%al, (%eax)
c01906a7: 00 80 00 1d 00 00            	addb	%al, 7424(%eax)
c01906ad: 00 00                        	addb	%al, (%eax)
c01906af: 00 b6 08 00 00 80            	addb	%dh, -2147483640(%esi)
c01906b5: 00 00                        	addb	%al, (%eax)
c01906b7: 00 00                        	addb	%al, (%eax)
c01906b9: 00 00                        	addb	%al, (%eax)
c01906bb: 00 d0                        	addb	%dl, %al
c01906bd: 08 00                        	orb	%al, (%eax)
c01906bf: 00 26                        	addb	%ah, (%esi)
c01906c1: 00 09                        	addb	%cl, (%ecx)
c01906c3: 00 6c d8 10                  	addb	%ch, 16(%eax,%ebx,8)
c01906c7: c0 f8 08                     	sarb	$8, %al
c01906ca: 00 00                        	addb	%al, (%eax)
c01906cc: 80 00 1f                     	addb	$31, (%eax)
c01906cf: 00 00                        	addb	%al, (%eax)
c01906d1: 00 00                        	addb	%al, (%eax)
c01906d3: 00 07                        	addb	%al, (%edi)
c01906d5: 09 00                        	orl	%eax, (%eax)
c01906d7: 00 80 00 00 00 00            	addb	%al, (%eax)
c01906dd: 00 00                        	addb	%al, (%eax)
c01906df: 00 1c 09                     	addb	%bl, (%ecx,%ecx)
c01906e2: 00 00                        	addb	%al, (%eax)
c01906e4: 26 00 0a                     	addb	%cl, %es:(%edx)
c01906e7: 00 6d d8                     	addb	%ch, -40(%ebp)
c01906ea: 10 c0                        	adcb	%al, %al
c01906ec: 2c 09                        	subb	$9, %al
c01906ee: 00 00                        	addb	%al, (%eax)
c01906f0: 24 00                        	andb	$0, %al
c01906f2: 0c 00                        	orb	$0, %al
c01906f4: cb                           	lretl
c01906f5: 19 10                        	sbbl	%edx, (%eax)
c01906f7: c0 45 09 00                  	rolb	$0, 9(%ebp)
c01906fb: 00 80 00 00 00 00            	addb	%al, (%eax)
c0190701: 00 00                        	addb	%al, (%eax)
c0190703: 00 00                        	addb	%al, (%eax)
c0190705: 00 00                        	addb	%al, (%eax)
c0190707: 00 44 00 0d                  	addb	%al, 13(%eax,%eax)
		...
c0190713: 00 44 00 0e                  	addb	%al, 14(%eax,%eax)
c0190717: 00 06                        	addb	%al, (%esi)
c0190719: 00 00                        	addb	%al, (%eax)
c019071b: 00 00                        	addb	%al, (%eax)
c019071d: 00 00                        	addb	%al, (%eax)
c019071f: 00 44 00 0e                  	addb	%al, 14(%eax,%eax)
c0190723: 00 26                        	addb	%ah, (%esi)
c0190725: 00 00                        	addb	%al, (%eax)
c0190727: 00 00                        	addb	%al, (%eax)
c0190729: 00 00                        	addb	%al, (%eax)
c019072b: 00 44 00 13                  	addb	%al, 19(%eax,%eax)
c019072f: 00 2c 00                     	addb	%ch, (%eax,%eax)
c0190732: 00 00                        	addb	%al, (%eax)
c0190734: 00 00                        	addb	%al, (%eax)
c0190736: 00 00                        	addb	%al, (%eax)
c0190738: 44                           	incl	%esp
c0190739: 00 14 00                     	addb	%dl, (%eax,%eax)
c019073c: 3e 00 00                     	addb	%al, %ds:(%eax)
c019073f: 00 00                        	addb	%al, (%eax)
c0190741: 00 00                        	addb	%al, (%eax)
c0190743: 00 44 00 15                  	addb	%al, 21(%eax,%eax)
c0190747: 00 5a 00                     	addb	%bl, (%edx)
c019074a: 00 00                        	addb	%al, (%eax)
c019074c: 00 00                        	addb	%al, (%eax)
c019074e: 00 00                        	addb	%al, (%eax)
c0190750: 44                           	incl	%esp
c0190751: 00 16                        	addb	%dl, (%esi)
c0190753: 00 6c 00 00                  	addb	%ch, (%eax,%eax)
c0190757: 00 00                        	addb	%al, (%eax)
c0190759: 00 00                        	addb	%al, (%eax)
c019075b: 00 44 00 17                  	addb	%al, 23(%eax,%eax)
c019075f: 00 84 00 00 00 51 09         	addb	%al, 156303360(%eax,%eax)
c0190766: 00 00                        	addb	%al, (%eax)
c0190768: 80 00 0e                     	addb	$14, (%eax)
c019076b: 00 f6                        	addb	%dh, %dh
c019076d: ff ff                        	<unknown>
c019076f: ff 00                        	incl	(%eax)
c0190771: 00 00                        	addb	%al, (%eax)
c0190773: 00 c0                        	addb	%al, %al
		...
c019077d: 00 00                        	addb	%al, (%eax)
c019077f: 00 e0                        	addb	%ah, %al
c0190781: 00 00                        	addb	%al, (%eax)
c0190783: 00 87 00 00 00 00            	addb	%al, (%edi)
c0190789: 00 00                        	addb	%al, (%eax)
c019078b: 00 24 00                     	addb	%ah, (%eax,%eax)
c019078e: 00 00                        	addb	%al, (%eax)
c0190790: 87 00                        	xchgl	%eax, (%eax)
c0190792: 00 00                        	addb	%al, (%eax)
c0190794: 67 09 00                     	orl	%eax, (%bx,%si)
c0190797: 00 24 00                     	addb	%ah, (%eax,%eax)
c019079a: 19 00                        	sbbl	%eax, (%eax)
c019079c: 52                           	pushl	%edx
c019079d: 1a 10                        	sbbb	(%eax), %dl
c019079f: c0 00 00                     	rolb	$0, (%eax)
c01907a2: 00 00                        	addb	%al, (%eax)
c01907a4: 44                           	incl	%esp
c01907a5: 00 1a                        	addb	%bl, (%edx)
		...
c01907af: 00 44 00 1b                  	addb	%al, 27(%eax,%eax)
c01907b3: 00 06                        	addb	%al, (%esi)
c01907b5: 00 00                        	addb	%al, (%eax)
c01907b7: 00 00                        	addb	%al, (%eax)
c01907b9: 00 00                        	addb	%al, (%eax)
c01907bb: 00 44 00 1c                  	addb	%al, 28(%eax,%eax)
c01907bf: 00 0a                        	addb	%cl, (%edx)
c01907c1: 00 00                        	addb	%al, (%eax)
c01907c3: 00 00                        	addb	%al, (%eax)
c01907c5: 00 00                        	addb	%al, (%eax)
c01907c7: 00 44 00 1c                  	addb	%al, 28(%eax,%eax)
c01907cb: 00 11                        	addb	%dl, (%ecx)
c01907cd: 00 00                        	addb	%al, (%eax)
c01907cf: 00 00                        	addb	%al, (%eax)
c01907d1: 00 00                        	addb	%al, (%eax)
c01907d3: 00 44 00 1c                  	addb	%al, 28(%eax,%eax)
c01907d7: 00 14 00                     	addb	%dl, (%eax,%eax)
c01907da: 00 00                        	addb	%al, (%eax)
c01907dc: 00 00                        	addb	%al, (%eax)
c01907de: 00 00                        	addb	%al, (%eax)
c01907e0: 44                           	incl	%esp
c01907e1: 00 1e                        	addb	%bl, (%esi)
c01907e3: 00 18                        	addb	%bl, (%eax)
c01907e5: 00 00                        	addb	%al, (%eax)
c01907e7: 00 00                        	addb	%al, (%eax)
c01907e9: 00 00                        	addb	%al, (%eax)
c01907eb: 00 44 00 1e                  	addb	%al, 30(%eax,%eax)
c01907ef: 00 1f                        	addb	%bl, (%edi)
c01907f1: 00 00                        	addb	%al, (%eax)
c01907f3: 00 00                        	addb	%al, (%eax)
c01907f5: 00 00                        	addb	%al, (%eax)
c01907f7: 00 44 00 21                  	addb	%al, 33(%eax,%eax)
c01907fb: 00 23                        	addb	%ah, (%ebx)
c01907fd: 00 00                        	addb	%al, (%eax)
c01907ff: 00 00                        	addb	%al, (%eax)
c0190801: 00 00                        	addb	%al, (%eax)
c0190803: 00 44 00 21                  	addb	%al, 33(%eax,%eax)
c0190807: 00 2a                        	addb	%ch, (%edx)
c0190809: 00 00                        	addb	%al, (%eax)
c019080b: 00 00                        	addb	%al, (%eax)
c019080d: 00 00                        	addb	%al, (%eax)
c019080f: 00 44 00 22                  	addb	%al, 34(%eax,%eax)
c0190813: 00 2c 00                     	addb	%ch, (%eax,%eax)
c0190816: 00 00                        	addb	%al, (%eax)
c0190818: 00 00                        	addb	%al, (%eax)
c019081a: 00 00                        	addb	%al, (%eax)
c019081c: 44                           	incl	%esp
c019081d: 00 22                        	addb	%ah, (%edx)
c019081f: 00 3c 00                     	addb	%bh, (%eax,%eax)
c0190822: 00 00                        	addb	%al, (%eax)
c0190824: 00 00                        	addb	%al, (%eax)
c0190826: 00 00                        	addb	%al, (%eax)
c0190828: 44                           	incl	%esp
c0190829: 00 22                        	addb	%ah, (%edx)
c019082b: 00 49 00                     	addb	%cl, (%ecx)
c019082e: 00 00                        	addb	%al, (%eax)
c0190830: 00 00                        	addb	%al, (%eax)
c0190832: 00 00                        	addb	%al, (%eax)
c0190834: 44                           	incl	%esp
c0190835: 00 22                        	addb	%ah, (%edx)
c0190837: 00 4c 00 00                  	addb	%cl, (%eax,%eax)
c019083b: 00 00                        	addb	%al, (%eax)
c019083d: 00 00                        	addb	%al, (%eax)
c019083f: 00 44 00 21                  	addb	%al, 33(%eax,%eax)
c0190843: 00 4f 00                     	addb	%cl, (%edi)
c0190846: 00 00                        	addb	%al, (%eax)
c0190848: 00 00                        	addb	%al, (%eax)
c019084a: 00 00                        	addb	%al, (%eax)
c019084c: 44                           	incl	%esp
c019084d: 00 21                        	addb	%ah, (%ecx)
c019084f: 00 53 00                     	addb	%dl, (%ebx)
c0190852: 00 00                        	addb	%al, (%eax)
c0190854: 00 00                        	addb	%al, (%eax)
c0190856: 00 00                        	addb	%al, (%eax)
c0190858: 44                           	incl	%esp
c0190859: 00 25 00 5c 00 00            	addb	%ah, 23552
c019085f: 00 00                        	addb	%al, (%eax)
c0190861: 00 00                        	addb	%al, (%eax)
c0190863: 00 44 00 26                  	addb	%al, 38(%eax,%eax)
c0190867: 00 5e 00                     	addb	%bl, (%esi)
c019086a: 00 00                        	addb	%al, (%eax)
c019086c: 00 00                        	addb	%al, (%eax)
c019086e: 00 00                        	addb	%al, (%eax)
c0190870: 44                           	incl	%esp
c0190871: 00 26                        	addb	%ah, (%esi)
c0190873: 00 6b 00                     	addb	%ch, (%ebx)
c0190876: 00 00                        	addb	%al, (%eax)
c0190878: 00 00                        	addb	%al, (%eax)
c019087a: 00 00                        	addb	%al, (%eax)
c019087c: 44                           	incl	%esp
c019087d: 00 25 00 72 00 00            	addb	%ah, 29184
c0190883: 00 00                        	addb	%al, (%eax)
c0190885: 00 00                        	addb	%al, (%eax)
c0190887: 00 44 00 25                  	addb	%al, 37(%eax,%eax)
c019088b: 00 76 00                     	addb	%dh, (%esi)
c019088e: 00 00                        	addb	%al, (%eax)
c0190890: 00 00                        	addb	%al, (%eax)
c0190892: 00 00                        	addb	%al, (%eax)
c0190894: 44                           	incl	%esp
c0190895: 00 29                        	addb	%ch, (%ecx)
c0190897: 00 7f 00                     	addb	%bh, (%edi)
c019089a: 00 00                        	addb	%al, (%eax)
c019089c: 00 00                        	addb	%al, (%eax)
c019089e: 00 00                        	addb	%al, (%eax)
c01908a0: 44                           	incl	%esp
c01908a1: 00 2b                        	addb	%ch, (%ebx)
c01908a3: 00 86 00 00 00 75            	addb	%al, 1962934272(%esi)
c01908a9: 09 00                        	orl	%eax, (%eax)
c01908ab: 00 80 00 1b 00 fb            	addb	%al, -83879168(%eax)
c01908b1: ff ff                        	<unknown>
c01908b3: ff 8a 09 00 00 80            	decl	-2147483639(%edx)
c01908b9: 00 1c 00                     	addb	%bl, (%eax,%eax)
c01908bc: f8                           	clc
c01908bd: ff ff                        	<unknown>
c01908bf: ff 00                        	incl	(%eax)
c01908c1: 00 00                        	addb	%al, (%eax)
c01908c3: 00 c0                        	addb	%al, %al
c01908c5: 00 00                        	addb	%al, (%eax)
c01908c7: 00 00                        	addb	%al, (%eax)
c01908c9: 00 00                        	addb	%al, (%eax)
c01908cb: 00 96 09 00 00 80            	addb	%dl, -2147483639(%esi)
c01908d1: 00 1f                        	addb	%bl, (%edi)
c01908d3: 00 fc                        	addb	%bh, %ah
c01908d5: ff ff                        	<unknown>
c01908d7: ff bd 09 00 00 80            	<unknown>
		...
c01908e5: 00 00                        	addb	%al, (%eax)
c01908e7: 00 c0                        	addb	%al, %al
c01908e9: 00 00                        	addb	%al, (%eax)
c01908eb: 00 23                        	addb	%ah, (%ebx)
c01908ed: 00 00                        	addb	%al, (%eax)
c01908ef: 00 00                        	addb	%al, (%eax)
c01908f1: 00 00                        	addb	%al, (%eax)
c01908f3: 00 e0                        	addb	%ah, %al
c01908f5: 00 00                        	addb	%al, (%eax)
c01908f7: 00 86 00 00 00 00            	addb	%al, (%esi)
c01908fd: 00 00                        	addb	%al, (%eax)
c01908ff: 00 e0                        	addb	%ah, %al
c0190901: 00 00                        	addb	%al, (%eax)
c0190903: 00 89 00 00 00 00            	addb	%cl, (%ecx)
c0190909: 00 00                        	addb	%al, (%eax)
c019090b: 00 24 00                     	addb	%ah, (%eax,%eax)
c019090e: 00 00                        	addb	%al, (%eax)
c0190910: 89 00                        	movl	%eax, (%eax)
c0190912: 00 00                        	addb	%al, (%eax)
c0190914: c8 09 00 00                  	enter	$9, $0
c0190918: 24 00                        	andb	$0, %al
c019091a: 2d 00 db 1a 10               	subl	$270195456, %eax
c019091f: c0 00 00                     	rolb	$0, (%eax)
c0190922: 00 00                        	addb	%al, (%eax)
c0190924: 44                           	incl	%esp
c0190925: 00 2e                        	addb	%ch, (%esi)
		...
c019092f: 00 44 00 2f                  	addb	%al, 47(%eax,%eax)
c0190933: 00 06                        	addb	%al, (%esi)
c0190935: 00 00                        	addb	%al, (%eax)
c0190937: 00 00                        	addb	%al, (%eax)
c0190939: 00 00                        	addb	%al, (%eax)
c019093b: 00 44 00 30                  	addb	%al, 48(%eax,%eax)
c019093f: 00 0b                        	addb	%cl, (%ebx)
c0190941: 00 00                        	addb	%al, (%eax)
c0190943: 00 00                        	addb	%al, (%eax)
c0190945: 00 00                        	addb	%al, (%eax)
c0190947: 00 24 00                     	addb	%ah, (%eax,%eax)
c019094a: 00 00                        	addb	%al, (%eax)
c019094c: 0e                           	pushl	%cs
c019094d: 00 00                        	addb	%al, (%eax)
c019094f: 00 dc                        	addb	%bl, %ah
c0190951: 09 00                        	orl	%eax, (%eax)
c0190953: 00 24 00                     	addb	%ah, (%eax,%eax)
c0190956: 32 00                        	xorb	(%eax), %al
c0190958: e9 1a 10 c0 00               	jmp	0xc0d91977 <kern_end+0xbfa977>
c019095d: 00 00                        	addb	%al, (%eax)
c019095f: 00 44 00 33                  	addb	%al, 51(%eax,%eax)
		...
c019096b: 00 44 00 34                  	addb	%al, 52(%eax,%eax)
c019096f: 00 06                        	addb	%al, (%esi)
c0190971: 00 00                        	addb	%al, (%eax)
c0190973: 00 00                        	addb	%al, (%eax)
c0190975: 00 00                        	addb	%al, (%eax)
c0190977: 00 44 00 35                  	addb	%al, 53(%eax,%eax)
c019097b: 00 0a                        	addb	%cl, (%edx)
c019097d: 00 00                        	addb	%al, (%eax)
c019097f: 00 00                        	addb	%al, (%eax)
c0190981: 00 00                        	addb	%al, (%eax)
c0190983: 00 44 00 35                  	addb	%al, 53(%eax,%eax)
c0190987: 00 11                        	addb	%dl, (%ecx)
c0190989: 00 00                        	addb	%al, (%eax)
c019098b: 00 00                        	addb	%al, (%eax)
c019098d: 00 00                        	addb	%al, (%eax)
c019098f: 00 44 00 35                  	addb	%al, 53(%eax,%eax)
c0190993: 00 14 00                     	addb	%dl, (%eax,%eax)
c0190996: 00 00                        	addb	%al, (%eax)
c0190998: 00 00                        	addb	%al, (%eax)
c019099a: 00 00                        	addb	%al, (%eax)
c019099c: 44                           	incl	%esp
c019099d: 00 37                        	addb	%dh, (%edi)
c019099f: 00 18                        	addb	%bl, (%eax)
c01909a1: 00 00                        	addb	%al, (%eax)
c01909a3: 00 00                        	addb	%al, (%eax)
c01909a5: 00 00                        	addb	%al, (%eax)
c01909a7: 00 44 00 37                  	addb	%al, 55(%eax,%eax)
c01909ab: 00 1f                        	addb	%bl, (%edi)
c01909ad: 00 00                        	addb	%al, (%eax)
c01909af: 00 00                        	addb	%al, (%eax)
c01909b1: 00 00                        	addb	%al, (%eax)
c01909b3: 00 44 00 38                  	addb	%al, 56(%eax,%eax)
c01909b7: 00 21                        	addb	%ah, (%ecx)
c01909b9: 00 00                        	addb	%al, (%eax)
c01909bb: 00 00                        	addb	%al, (%eax)
c01909bd: 00 00                        	addb	%al, (%eax)
c01909bf: 00 44 00 38                  	addb	%al, 56(%eax,%eax)
c01909c3: 00 2e                        	addb	%ch, (%esi)
c01909c5: 00 00                        	addb	%al, (%eax)
c01909c7: 00 00                        	addb	%al, (%eax)
c01909c9: 00 00                        	addb	%al, (%eax)
c01909cb: 00 44 00 37                  	addb	%al, 55(%eax,%eax)
c01909cf: 00 35 00 00 00 00            	addb	%dh, 0
c01909d5: 00 00                        	addb	%al, (%eax)
c01909d7: 00 44 00 37                  	addb	%al, 55(%eax,%eax)
c01909db: 00 39                        	addb	%bh, (%ecx)
c01909dd: 00 00                        	addb	%al, (%eax)
c01909df: 00 00                        	addb	%al, (%eax)
c01909e1: 00 00                        	addb	%al, (%eax)
c01909e3: 00 44 00 3b                  	addb	%al, 59(%eax,%eax)
c01909e7: 00 42 00                     	addb	%al, (%edx)
c01909ea: 00 00                        	addb	%al, (%eax)
c01909ec: 00 00                        	addb	%al, (%eax)
c01909ee: 00 00                        	addb	%al, (%eax)
c01909f0: 44                           	incl	%esp
c01909f1: 00 3c 00                     	addb	%bh, (%eax,%eax)
c01909f4: 49                           	decl	%ecx
c01909f5: 00 00                        	addb	%al, (%eax)
c01909f7: 00 00                        	addb	%al, (%eax)
c01909f9: 00 00                        	addb	%al, (%eax)
c01909fb: 00 44 00 3d                  	addb	%al, 61(%eax,%eax)
c01909ff: 00 50 00                     	addb	%dl, (%eax)
c0190a02: 00 00                        	addb	%al, (%eax)
c0190a04: 00 00                        	addb	%al, (%eax)
c0190a06: 00 00                        	addb	%al, (%eax)
c0190a08: 44                           	incl	%esp
c0190a09: 00 3e                        	addb	%bh, (%esi)
c0190a0b: 00 55 00                     	addb	%dl, (%ebp)
c0190a0e: 00 00                        	addb	%al, (%eax)
c0190a10: 75 09                        	jne	0xc0190a1b <.stab+0x1a1b>
c0190a12: 00 00                        	addb	%al, (%eax)
c0190a14: 80 00 34                     	addb	$52, (%eax)
c0190a17: 00 f3                        	addb	%dh, %bl
c0190a19: ff ff                        	<unknown>
c0190a1b: ff 8a 09 00 00 80            	decl	-2147483639(%edx)
c0190a21: 00 35 00 f0 ff ff            	addb	%dh, -4096
c0190a27: ff 00                        	incl	(%eax)
c0190a29: 00 00                        	addb	%al, (%eax)
c0190a2b: 00 c0                        	addb	%al, %al
c0190a2d: 00 00                        	addb	%al, (%eax)
c0190a2f: 00 00                        	addb	%al, (%eax)
c0190a31: 00 00                        	addb	%al, (%eax)
c0190a33: 00 f1                        	addb	%dh, %cl
c0190a35: 09 00                        	orl	%eax, (%eax)
c0190a37: 00 80 00 37 00 f4            	addb	%al, -201312512(%eax)
c0190a3d: ff ff                        	<unknown>
c0190a3f: ff 00                        	incl	(%eax)
c0190a41: 00 00                        	addb	%al, (%eax)
c0190a43: 00 c0                        	addb	%al, %al
c0190a45: 00 00                        	addb	%al, (%eax)
c0190a47: 00 18                        	addb	%bl, (%eax)
c0190a49: 00 00                        	addb	%al, (%eax)
c0190a4b: 00 00                        	addb	%al, (%eax)
c0190a4d: 00 00                        	addb	%al, (%eax)
c0190a4f: 00 e0                        	addb	%ah, %al
c0190a51: 00 00                        	addb	%al, (%eax)
c0190a53: 00 42 00                     	addb	%al, (%edx)
c0190a56: 00 00                        	addb	%al, (%eax)
c0190a58: 00 00                        	addb	%al, (%eax)
c0190a5a: 00 00                        	addb	%al, (%eax)
c0190a5c: e0 00                        	loopne	0xc0190a5e <.stab+0x1a5e>
c0190a5e: 00 00                        	addb	%al, (%eax)
c0190a60: 58                           	popl	%eax
c0190a61: 00 00                        	addb	%al, (%eax)
c0190a63: 00 00                        	addb	%al, (%eax)
c0190a65: 00 00                        	addb	%al, (%eax)
c0190a67: 00 24 00                     	addb	%ah, (%eax,%eax)
c0190a6a: 00 00                        	addb	%al, (%eax)
c0190a6c: 58                           	popl	%eax
c0190a6d: 00 00                        	addb	%al, (%eax)
c0190a6f: 00 f9                        	addb	%bh, %cl
c0190a71: 09 00                        	orl	%eax, (%eax)
c0190a73: 00 24 00                     	addb	%ah, (%eax,%eax)
c0190a76: 40                           	incl	%eax
c0190a77: 00 41 1b                     	addb	%al, 27(%ecx)
c0190a7a: 10 c0                        	adcb	%al, %al
c0190a7c: 13 0a                        	adcl	(%edx), %ecx
c0190a7e: 00 00                        	addb	%al, (%eax)
c0190a80: a0 00 40 00 08               	movb	134234112, %al
c0190a85: 00 00                        	addb	%al, (%eax)
c0190a87: 00 1c 0a                     	addb	%bl, (%edx,%ecx)
c0190a8a: 00 00                        	addb	%al, (%eax)
c0190a8c: a0 00 40 00 0c               	movb	201342976, %al
c0190a91: 00 00                        	addb	%al, (%eax)
c0190a93: 00 3c 0a                     	addb	%bh, (%edx,%ecx)
c0190a96: 00 00                        	addb	%al, (%eax)
c0190a98: a0 00 40 00 10               	movb	268451840, %al
c0190a9d: 00 00                        	addb	%al, (%eax)
c0190a9f: 00 48 0a                     	addb	%cl, 10(%eax)
c0190aa2: 00 00                        	addb	%al, (%eax)
c0190aa4: 80 00 00                     	addb	$0, (%eax)
		...
c0190aaf: 00 44 00 41                  	addb	%al, 65(%eax,%eax)
		...
c0190abb: 00 44 00 42                  	addb	%al, 66(%eax,%eax)
c0190abf: 00 0d 00 00 00 00            	addb	%cl, 0
c0190ac5: 00 00                        	addb	%al, (%eax)
c0190ac7: 00 44 00 43                  	addb	%al, 67(%eax,%eax)
c0190acb: 00 13                        	addb	%dl, (%ebx)
c0190acd: 00 00                        	addb	%al, (%eax)
c0190acf: 00 00                        	addb	%al, (%eax)
c0190ad1: 00 00                        	addb	%al, (%eax)
c0190ad3: 00 44 00 45                  	addb	%al, 69(%eax,%eax)
c0190ad7: 00 19                        	addb	%bl, (%ecx)
c0190ad9: 00 00                        	addb	%al, (%eax)
c0190adb: 00 00                        	addb	%al, (%eax)
c0190add: 00 00                        	addb	%al, (%eax)
c0190adf: 00 44 00 45                  	addb	%al, 69(%eax,%eax)
c0190ae3: 00 20                        	addb	%ah, (%eax)
c0190ae5: 00 00                        	addb	%al, (%eax)
c0190ae7: 00 00                        	addb	%al, (%eax)
c0190ae9: 00 00                        	addb	%al, (%eax)
c0190aeb: 00 44 00 45                  	addb	%al, 69(%eax,%eax)
c0190aef: 00 22                        	addb	%ah, (%edx)
c0190af1: 00 00                        	addb	%al, (%eax)
c0190af3: 00 00                        	addb	%al, (%eax)
c0190af5: 00 00                        	addb	%al, (%eax)
c0190af7: 00 44 00 45                  	addb	%al, 69(%eax,%eax)
c0190afb: 00 29                        	addb	%ch, (%ecx)
c0190afd: 00 00                        	addb	%al, (%eax)
c0190aff: 00 00                        	addb	%al, (%eax)
c0190b01: 00 00                        	addb	%al, (%eax)
c0190b03: 00 44 00 45                  	addb	%al, 69(%eax,%eax)
c0190b07: 00 2b                        	addb	%ch, (%ebx)
c0190b09: 00 00                        	addb	%al, (%eax)
c0190b0b: 00 00                        	addb	%al, (%eax)
c0190b0d: 00 00                        	addb	%al, (%eax)
c0190b0f: 00 44 00 46                  	addb	%al, 70(%eax,%eax)
c0190b13: 00 2e                        	addb	%ch, (%esi)
c0190b15: 00 00                        	addb	%al, (%eax)
c0190b17: 00 00                        	addb	%al, (%eax)
c0190b19: 00 00                        	addb	%al, (%eax)
c0190b1b: 00 44 00 46                  	addb	%al, 70(%eax,%eax)
c0190b1f: 00 32                        	addb	%dh, (%edx)
c0190b21: 00 00                        	addb	%al, (%eax)
c0190b23: 00 00                        	addb	%al, (%eax)
c0190b25: 00 00                        	addb	%al, (%eax)
c0190b27: 00 44 00 48                  	addb	%al, 72(%eax,%eax)
c0190b2b: 00 39                        	addb	%bh, (%ecx)
c0190b2d: 00 00                        	addb	%al, (%eax)
c0190b2f: 00 00                        	addb	%al, (%eax)
c0190b31: 00 00                        	addb	%al, (%eax)
c0190b33: 00 44 00 48                  	addb	%al, 72(%eax,%eax)
c0190b37: 00 3f                        	addb	%bh, (%edi)
c0190b39: 00 00                        	addb	%al, (%eax)
c0190b3b: 00 00                        	addb	%al, (%eax)
c0190b3d: 00 00                        	addb	%al, (%eax)
c0190b3f: 00 44 00 49                  	addb	%al, 73(%eax,%eax)
c0190b43: 00 4a 00                     	addb	%cl, (%edx)
c0190b46: 00 00                        	addb	%al, (%eax)
c0190b48: 00 00                        	addb	%al, (%eax)
c0190b4a: 00 00                        	addb	%al, (%eax)
c0190b4c: 44                           	incl	%esp
c0190b4d: 00 4b 00                     	addb	%cl, (%ebx)
c0190b50: 5e                           	popl	%esi
c0190b51: 00 00                        	addb	%al, (%eax)
c0190b53: 00 00                        	addb	%al, (%eax)
c0190b55: 00 00                        	addb	%al, (%eax)
c0190b57: 00 44 00 4c                  	addb	%al, 76(%eax,%eax)
c0190b5b: 00 64 00 00                  	addb	%ah, (%eax,%eax)
c0190b5f: 00 00                        	addb	%al, (%eax)
c0190b61: 00 00                        	addb	%al, (%eax)
c0190b63: 00 44 00 4c                  	addb	%al, 76(%eax,%eax)
c0190b67: 00 6b 00                     	addb	%ch, (%ebx)
c0190b6a: 00 00                        	addb	%al, (%eax)
c0190b6c: 00 00                        	addb	%al, (%eax)
c0190b6e: 00 00                        	addb	%al, (%eax)
c0190b70: 44                           	incl	%esp
c0190b71: 00 4c 00 6e                  	addb	%cl, 110(%eax,%eax)
c0190b75: 00 00                        	addb	%al, (%eax)
c0190b77: 00 00                        	addb	%al, (%eax)
c0190b79: 00 00                        	addb	%al, (%eax)
c0190b7b: 00 44 00 4c                  	addb	%al, 76(%eax,%eax)
c0190b7f: 00 71 00                     	addb	%dh, (%ecx)
c0190b82: 00 00                        	addb	%al, (%eax)
c0190b84: 00 00                        	addb	%al, (%eax)
c0190b86: 00 00                        	addb	%al, (%eax)
c0190b88: 44                           	incl	%esp
c0190b89: 00 4e 00                     	addb	%cl, (%esi)
c0190b8c: 7b 00                        	jnp	0xc0190b8e <.stab+0x1b8e>
c0190b8e: 00 00                        	addb	%al, (%eax)
c0190b90: 00 00                        	addb	%al, (%eax)
c0190b92: 00 00                        	addb	%al, (%eax)
c0190b94: 44                           	incl	%esp
c0190b95: 00 4f 00                     	addb	%cl, (%edi)
c0190b98: 81 00 00 00 00 00            	addl	$0, (%eax)
c0190b9e: 00 00                        	addb	%al, (%eax)
c0190ba0: 44                           	incl	%esp
c0190ba1: 00 51 00                     	addb	%dl, (%ecx)
c0190ba4: 8a 00                        	movb	(%eax), %al
c0190ba6: 00 00                        	addb	%al, (%eax)
c0190ba8: 00 00                        	addb	%al, (%eax)
c0190baa: 00 00                        	addb	%al, (%eax)
c0190bac: 44                           	incl	%esp
c0190bad: 00 52 00                     	addb	%dl, (%edx)
c0190bb0: 90                           	nop
c0190bb1: 00 00                        	addb	%al, (%eax)
c0190bb3: 00 00                        	addb	%al, (%eax)
c0190bb5: 00 00                        	addb	%al, (%eax)
c0190bb7: 00 44 00 53                  	addb	%al, 83(%eax,%eax)
c0190bbb: 00 97 00 00 00 00            	addb	%dl, (%edi)
c0190bc1: 00 00                        	addb	%al, (%eax)
c0190bc3: 00 44 00 55                  	addb	%al, 85(%eax,%eax)
c0190bc7: 00 a8 00 00 00 00            	addb	%ch, (%eax)
c0190bcd: 00 00                        	addb	%al, (%eax)
c0190bcf: 00 44 00 56                  	addb	%al, 86(%eax,%eax)
c0190bd3: 00 ae 00 00 00 00            	addb	%ch, (%esi)
c0190bd9: 00 00                        	addb	%al, (%eax)
c0190bdb: 00 44 00 56                  	addb	%al, 86(%eax,%eax)
c0190bdf: 00 bb 00 00 00 00            	addb	%bh, (%ebx)
c0190be5: 00 00                        	addb	%al, (%eax)
c0190be7: 00 44 00 56                  	addb	%al, 86(%eax,%eax)
c0190beb: 00 c1                        	addb	%al, %cl
c0190bed: 00 00                        	addb	%al, (%eax)
c0190bef: 00 00                        	addb	%al, (%eax)
c0190bf1: 00 00                        	addb	%al, (%eax)
c0190bf3: 00 44 00 56                  	addb	%al, 86(%eax,%eax)
c0190bf7: 00 d7                        	addb	%dl, %bh
c0190bf9: 00 00                        	addb	%al, (%eax)
c0190bfb: 00 00                        	addb	%al, (%eax)
c0190bfd: 00 00                        	addb	%al, (%eax)
c0190bff: 00 44 00 56                  	addb	%al, 86(%eax,%eax)
c0190c03: 00 e3                        	addb	%ah, %bl
c0190c05: 00 00                        	addb	%al, (%eax)
c0190c07: 00 00                        	addb	%al, (%eax)
c0190c09: 00 00                        	addb	%al, (%eax)
c0190c0b: 00 44 00 56                  	addb	%al, 86(%eax,%eax)
c0190c0f: 00 e7                        	addb	%ah, %bh
c0190c11: 00 00                        	addb	%al, (%eax)
c0190c13: 00 00                        	addb	%al, (%eax)
c0190c15: 00 00                        	addb	%al, (%eax)
c0190c17: 00 44 00 56                  	addb	%al, 86(%eax,%eax)
c0190c1b: 00 e9                        	addb	%ch, %cl
c0190c1d: 00 00                        	addb	%al, (%eax)
c0190c1f: 00 00                        	addb	%al, (%eax)
c0190c21: 00 00                        	addb	%al, (%eax)
c0190c23: 00 44 00 57                  	addb	%al, 87(%eax,%eax)
c0190c27: 00 ec                        	addb	%ch, %ah
c0190c29: 00 00                        	addb	%al, (%eax)
c0190c2b: 00 00                        	addb	%al, (%eax)
c0190c2d: 00 00                        	addb	%al, (%eax)
c0190c2f: 00 44 00 5a                  	addb	%al, 90(%eax,%eax)
c0190c33: 00 fb                        	addb	%bh, %bl
c0190c35: 00 00                        	addb	%al, (%eax)
c0190c37: 00 00                        	addb	%al, (%eax)
c0190c39: 00 00                        	addb	%al, (%eax)
c0190c3b: 00 44 00 5a                  	addb	%al, 90(%eax,%eax)
c0190c3f: 00 02                        	addb	%al, (%edx)
c0190c41: 01 00                        	addl	%eax, (%eax)
c0190c43: 00 00                        	addb	%al, (%eax)
c0190c45: 00 00                        	addb	%al, (%eax)
c0190c47: 00 44 00 5b                  	addb	%al, 91(%eax,%eax)
c0190c4b: 00 06                        	addb	%al, (%esi)
c0190c4d: 01 00                        	addl	%eax, (%eax)
c0190c4f: 00 00                        	addb	%al, (%eax)
c0190c51: 00 00                        	addb	%al, (%eax)
c0190c53: 00 44 00 5c                  	addb	%al, 92(%eax,%eax)
c0190c57: 00 0d 01 00 00 00            	addb	%cl, 1
c0190c5d: 00 00                        	addb	%al, (%eax)
c0190c5f: 00 44 00 5f                  	addb	%al, 95(%eax,%eax)
c0190c63: 00 1c 01                     	addb	%bl, (%ecx,%eax)
c0190c66: 00 00                        	addb	%al, (%eax)
c0190c68: 00 00                        	addb	%al, (%eax)
c0190c6a: 00 00                        	addb	%al, (%eax)
c0190c6c: 44                           	incl	%esp
c0190c6d: 00 61 00                     	addb	%ah, (%ecx)
c0190c70: 21 01                        	andl	%eax, (%ecx)
c0190c72: 00 00                        	addb	%al, (%eax)
c0190c74: 00 00                        	addb	%al, (%eax)
c0190c76: 00 00                        	addb	%al, (%eax)
c0190c78: 44                           	incl	%esp
c0190c79: 00 62 00                     	addb	%ah, (%edx)
c0190c7c: 26 01 00                     	addl	%eax, %es:(%eax)
c0190c7f: 00 3c 0b                     	addb	%bh, (%ebx,%ecx)
c0190c82: 00 00                        	addb	%al, (%eax)
c0190c84: 80 00 42                     	addb	$66, (%eax)
c0190c87: 00 f7                        	addb	%dh, %bh
c0190c89: ff ff                        	<unknown>
c0190c8b: ff 4d 0b                     	decl	11(%ebp)
c0190c8e: 00 00                        	addb	%al, (%eax)
c0190c90: 80 00 43                     	addb	$67, (%eax)
c0190c93: 00 f6                        	addb	%dh, %dh
c0190c95: ff ff                        	<unknown>
c0190c97: ff 75 09                     	pushl	9(%ebp)
c0190c9a: 00 00                        	addb	%al, (%eax)
c0190c9c: 80 00 45                     	addb	$69, (%eax)
c0190c9f: 00 f5                        	addb	%dh, %ch
c0190ca1: ff ff                        	<unknown>
c0190ca3: ff 5e 0b                     	lcalll	*11(%esi)
c0190ca6: 00 00                        	addb	%al, (%eax)
c0190ca8: 80 00 46                     	addb	$70, (%eax)
c0190cab: 00 f2                        	addb	%dh, %dl
c0190cad: ff ff                        	<unknown>
c0190caf: ff 6e 0b                     	ljmpl	*11(%esi)
c0190cb2: 00 00                        	addb	%al, (%eax)
c0190cb4: 80 00 40                     	addb	$64, (%eax)
c0190cb7: 00 e4                        	addb	%ah, %ah
c0190cb9: ff ff                        	<unknown>
c0190cbb: ff 86 0b 00 00 80            	incl	-2147483637(%esi)
		...
c0190cc9: 00 00                        	addb	%al, (%eax)
c0190ccb: 00 c0                        	addb	%al, %al
		...
c0190cd5: 00 00                        	addb	%al, (%eax)
c0190cd7: 00 e0                        	addb	%ah, %al
c0190cd9: 00 00                        	addb	%al, (%eax)
c0190cdb: 00 2c 01                     	addb	%ch, (%ecx,%eax)
c0190cde: 00 00                        	addb	%al, (%eax)
c0190ce0: 00 00                        	addb	%al, (%eax)
c0190ce2: 00 00                        	addb	%al, (%eax)
c0190ce4: 24 00                        	andb	$0, %al
c0190ce6: 00 00                        	addb	%al, (%eax)
c0190ce8: 2c 01                        	subb	$1, %al
c0190cea: 00 00                        	addb	%al, (%eax)
c0190cec: 93                           	xchgl	%ebx, %eax
c0190ced: 0b 00                        	orl	(%eax), %eax
c0190cef: 00 24 00                     	addb	%ah, (%eax,%eax)
c0190cf2: 64 00 6d 1c                  	addb	%ch, %fs:28(%ebp)
c0190cf6: 10 c0                        	adcb	%al, %al
c0190cf8: a8 0b                        	testb	$11, %al
c0190cfa: 00 00                        	addb	%al, (%eax)
c0190cfc: a0 00 64 00 08               	movb	134243328, %al
c0190d01: 00 00                        	addb	%al, (%eax)
c0190d03: 00 00                        	addb	%al, (%eax)
c0190d05: 00 00                        	addb	%al, (%eax)
c0190d07: 00 44 00 65                  	addb	%al, 101(%eax,%eax)
		...
c0190d13: 00 44 00 66                  	addb	%al, 102(%eax,%eax)
c0190d17: 00 06                        	addb	%al, (%esi)
c0190d19: 00 00                        	addb	%al, (%eax)
c0190d1b: 00 00                        	addb	%al, (%eax)
c0190d1d: 00 00                        	addb	%al, (%eax)
c0190d1f: 00 44 00 67                  	addb	%al, 103(%eax,%eax)
c0190d23: 00 08                        	addb	%cl, (%eax)
c0190d25: 00 00                        	addb	%al, (%eax)
c0190d27: 00 00                        	addb	%al, (%eax)
c0190d29: 00 00                        	addb	%al, (%eax)
c0190d2b: 00 44 00 67                  	addb	%al, 103(%eax,%eax)
c0190d2f: 00 11                        	addb	%dl, (%ecx)
c0190d31: 00 00                        	addb	%al, (%eax)
c0190d33: 00 00                        	addb	%al, (%eax)
c0190d35: 00 00                        	addb	%al, (%eax)
c0190d37: 00 44 00 67                  	addb	%al, 103(%eax,%eax)
c0190d3b: 00 14 00                     	addb	%dl, (%eax,%eax)
c0190d3e: 00 00                        	addb	%al, (%eax)
c0190d40: 00 00                        	addb	%al, (%eax)
c0190d42: 00 00                        	addb	%al, (%eax)
c0190d44: 44                           	incl	%esp
c0190d45: 00 66 00                     	addb	%ah, (%esi)
c0190d48: 27                           	daa
c0190d49: 00 00                        	addb	%al, (%eax)
c0190d4b: 00 00                        	addb	%al, (%eax)
c0190d4d: 00 00                        	addb	%al, (%eax)
c0190d4f: 00 44 00 66                  	addb	%al, 102(%eax,%eax)
c0190d53: 00 2d 00 00 00 00            	addb	%ch, 0
c0190d59: 00 00                        	addb	%al, (%eax)
c0190d5b: 00 44 00 69                  	addb	%al, 105(%eax,%eax)
c0190d5f: 00 31                        	addb	%dh, (%ecx)
c0190d61: 00 00                        	addb	%al, (%eax)
c0190d63: 00 00                        	addb	%al, (%eax)
c0190d65: 00 00                        	addb	%al, (%eax)
c0190d67: 00 24 00                     	addb	%ah, (%eax,%eax)
c0190d6a: 00 00                        	addb	%al, (%eax)
c0190d6c: 35 00 00 00 bd               	xorl	$3170893824, %eax
c0190d71: 0b 00                        	orl	(%eax), %eax
c0190d73: 00 24 00                     	addb	%ah, (%eax,%eax)
c0190d76: 6b 00 a2                     	imull	$-94, (%eax), %eax
c0190d79: 1c 10                        	sbbb	$16, %al
c0190d7b: c0 d8 0b                     	rcrb	$11, %al
c0190d7e: 00 00                        	addb	%al, (%eax)
c0190d80: a0 00 6b 00 08               	movb	134245120, %al
c0190d85: 00 00                        	addb	%al, (%eax)
c0190d87: 00 e5                        	addb	%ah, %ch
c0190d89: 0b 00                        	orl	(%eax), %eax
c0190d8b: 00 a0 00 6b 00 0c            	addb	%ah, 201353984(%eax)
c0190d91: 00 00                        	addb	%al, (%eax)
c0190d93: 00 3c 0a                     	addb	%bh, (%edx,%ecx)
c0190d96: 00 00                        	addb	%al, (%eax)
c0190d98: a0 00 6b 00 10               	movb	268462848, %al
c0190d9d: 00 00                        	addb	%al, (%eax)
c0190d9f: 00 00                        	addb	%al, (%eax)
c0190da1: 00 00                        	addb	%al, (%eax)
c0190da3: 00 44 00 6c                  	addb	%al, 108(%eax,%eax)
		...
c0190daf: 00 44 00 6d                  	addb	%al, 109(%eax,%eax)
c0190db3: 00 06                        	addb	%al, (%esi)
c0190db5: 00 00                        	addb	%al, (%eax)
c0190db7: 00 00                        	addb	%al, (%eax)
c0190db9: 00 00                        	addb	%al, (%eax)
c0190dbb: 00 44 00 6e                  	addb	%al, 110(%eax,%eax)
c0190dbf: 00 08                        	addb	%cl, (%eax)
c0190dc1: 00 00                        	addb	%al, (%eax)
c0190dc3: 00 00                        	addb	%al, (%eax)
c0190dc5: 00 00                        	addb	%al, (%eax)
c0190dc7: 00 44 00 6e                  	addb	%al, 110(%eax,%eax)
c0190dcb: 00 11                        	addb	%dl, (%ecx)
c0190dcd: 00 00                        	addb	%al, (%eax)
c0190dcf: 00 00                        	addb	%al, (%eax)
c0190dd1: 00 00                        	addb	%al, (%eax)
c0190dd3: 00 44 00 6e                  	addb	%al, 110(%eax,%eax)
c0190dd7: 00 14 00                     	addb	%dl, (%eax,%eax)
c0190dda: 00 00                        	addb	%al, (%eax)
c0190ddc: 00 00                        	addb	%al, (%eax)
c0190dde: 00 00                        	addb	%al, (%eax)
c0190de0: 44                           	incl	%esp
c0190de1: 00 6d 00                     	addb	%ch, (%ebp)
c0190de4: 29 00                        	subl	%eax, (%eax)
c0190de6: 00 00                        	addb	%al, (%eax)
c0190de8: 00 00                        	addb	%al, (%eax)
c0190dea: 00 00                        	addb	%al, (%eax)
c0190dec: 44                           	incl	%esp
c0190ded: 00 6d 00                     	addb	%ch, (%ebp)
c0190df0: 2f                           	das
c0190df1: 00 00                        	addb	%al, (%eax)
c0190df3: 00 00                        	addb	%al, (%eax)
c0190df5: 00 00                        	addb	%al, (%eax)
c0190df7: 00 44 00 70                  	addb	%al, 112(%eax,%eax)
c0190dfb: 00 33                        	addb	%dh, (%ebx)
c0190dfd: 00 00                        	addb	%al, (%eax)
c0190dff: 00 00                        	addb	%al, (%eax)
c0190e01: 00 00                        	addb	%al, (%eax)
c0190e03: 00 24 00                     	addb	%ah, (%eax,%eax)
c0190e06: 00 00                        	addb	%al, (%eax)
c0190e08: 37                           	aaa
c0190e09: 00 00                        	addb	%al, (%eax)
c0190e0b: 00 00                        	addb	%al, (%eax)
c0190e0d: 00 00                        	addb	%al, (%eax)
c0190e0f: 00 64 00 00                  	addb	%ah, (%eax,%eax)
c0190e13: 00 d9                        	addb	%bl, %cl
c0190e15: 1c 10                        	sbbb	$16, %al
c0190e17: c0 30                        	<unknown>
c0190e19: 00 00                        	addb	%al, (%eax)
c0190e1b: 00 64 00 02                  	addb	%ah, 2(%eax,%eax)
c0190e1f: 00 d9                        	addb	%bl, %cl
c0190e21: 1c 10                        	sbbb	$16, %al
c0190e23: c0 f1                        	<unknown>
c0190e25: 0b 00                        	orl	(%eax), %eax
c0190e27: 00 64 00 02                  	addb	%ah, 2(%eax,%eax)
c0190e2b: 00 d9                        	addb	%bl, %cl
c0190e2d: 1c 10                        	sbbb	$16, %al
c0190e2f: c0 63 00 00                  	shlb	$0, (%ebx)
c0190e33: 00 3c 00                     	addb	%bh, (%eax,%eax)
c0190e36: 00 00                        	addb	%al, (%eax)
c0190e38: 00 00                        	addb	%al, (%eax)
c0190e3a: 00 00                        	addb	%al, (%eax)
c0190e3c: fe 0b                        	decb	(%ebx)
c0190e3e: 00 00                        	addb	%al, (%eax)
c0190e40: 24 00                        	andb	$0, %al
c0190e42: 03 00                        	addl	(%eax), %eax
c0190e44: d9 1c 10                     	fstps	(%eax,%edx)
c0190e47: c0 d0 05                     	rclb	$5, %al
c0190e4a: 00 00                        	addb	%al, (%eax)
c0190e4c: 80 00 00                     	addb	$0, (%eax)
c0190e4f: 00 00                        	addb	%al, (%eax)
c0190e51: 00 00                        	addb	%al, (%eax)
c0190e53: 00 10                        	addb	%dl, (%eax)
c0190e55: 0c 00                        	orb	$0, %al
c0190e57: 00 a0 00 03 00 08            	addb	%ah, 134218496(%eax)
c0190e5d: 00 00                        	addb	%al, (%eax)
c0190e5f: 00 3b                        	addb	%bh, (%ebx)
c0190e61: 0c 00                        	orb	$0, %al
c0190e63: 00 a0 00 03 00 0c            	addb	%ah, 201327360(%eax)
c0190e69: 00 00                        	addb	%al, (%eax)
c0190e6b: 00 48 0c                     	addb	%cl, 12(%eax)
c0190e6e: 00 00                        	addb	%al, (%eax)
c0190e70: 80 00 00                     	addb	$0, (%eax)
		...
c0190e7b: 00 44 00 04                  	addb	%al, 4(%eax,%eax)
		...
c0190e87: 00 44 00 05                  	addb	%al, 5(%eax,%eax)
c0190e8b: 00 15 00 00 00 00            	addb	%dl, 0
c0190e91: 00 00                        	addb	%al, (%eax)
c0190e93: 00 44 00 06                  	addb	%al, 6(%eax,%eax)
c0190e97: 00 1e                        	addb	%bl, (%esi)
c0190e99: 00 00                        	addb	%al, (%eax)
c0190e9b: 00 53 0c                     	addb	%dl, 12(%ebx)
c0190e9e: 00 00                        	addb	%al, (%eax)
c0190ea0: 80 00 03                     	addb	$3, (%eax)
c0190ea3: 00 fc                        	addb	%bh, %ah
c0190ea5: ff ff                        	<unknown>
c0190ea7: ff 79 0c                     	<unknown>
c0190eaa: 00 00                        	addb	%al, (%eax)
c0190eac: 80 00 03                     	addb	$3, (%eax)
c0190eaf: 00 f8                        	addb	%bh, %al
c0190eb1: ff ff                        	<unknown>
c0190eb3: ff 9d 0c 00 00 80            	lcalll	*-2147483636(%ebp)
c0190eb9: 00 1d 00 00 00 00            	addb	%bl, 0
c0190ebf: 00 ad 0c 00 00 80            	addb	%ch, -2147483636(%ebp)
c0190ec5: 00 00                        	addb	%al, (%eax)
c0190ec7: 00 00                        	addb	%al, (%eax)
c0190ec9: 00 00                        	addb	%al, (%eax)
c0190ecb: 00 c7                        	addb	%al, %bh
c0190ecd: 0c 00                        	orb	$0, %al
c0190ecf: 00 80 00 1f 00 00            	addb	%al, 7936(%eax)
c0190ed5: 00 00                        	addb	%al, (%eax)
c0190ed7: 00 d6                        	addb	%dl, %dh
c0190ed9: 0c 00                        	orb	$0, %al
c0190edb: 00 80 00 00 00 00            	addb	%al, (%eax)
c0190ee1: 00 00                        	addb	%al, (%eax)
c0190ee3: 00 00                        	addb	%al, (%eax)
c0190ee5: 00 00                        	addb	%al, (%eax)
c0190ee7: 00 24 00                     	addb	%ah, (%eax,%eax)
c0190eea: 00 00                        	addb	%al, (%eax)
c0190eec: 21 00                        	andl	%eax, (%eax)
c0190eee: 00 00                        	addb	%al, (%eax)
c0190ef0: eb 0c                        	jmp	0xc0190efe <.stab+0x1efe>
c0190ef2: 00 00                        	addb	%al, (%eax)
c0190ef4: 24 00                        	andb	$0, %al
c0190ef6: 08 00                        	orb	%al, (%eax)
c0190ef8: fa                           	cli
c0190ef9: 1c 10                        	sbbb	$16, %al
c0190efb: c0 f6                        	<unknown>
c0190efd: 0c 00                        	orb	$0, %al
c0190eff: 00 a0 00 08 00 08            	addb	%ah, 134219776(%eax)
c0190f05: 00 00                        	addb	%al, (%eax)
c0190f07: 00 00                        	addb	%al, (%eax)
c0190f09: 00 00                        	addb	%al, (%eax)
c0190f0b: 00 44 00 09                  	addb	%al, 9(%eax,%eax)
		...
c0190f17: 00 44 00 0b                  	addb	%al, 11(%eax,%eax)
c0190f1b: 00 0d 00 00 00 00            	addb	%cl, 0
c0190f21: 00 00                        	addb	%al, (%eax)
c0190f23: 00 44 00 0c                  	addb	%al, 12(%eax,%eax)
c0190f27: 00 17                        	addb	%dl, (%edi)
c0190f29: 00 00                        	addb	%al, (%eax)
c0190f2b: 00 00                        	addb	%al, (%eax)
c0190f2d: 00 00                        	addb	%al, (%eax)
c0190f2f: 00 44 00 0d                  	addb	%al, 13(%eax,%eax)
c0190f33: 00 1b                        	addb	%bl, (%ebx)
c0190f35: 00 00                        	addb	%al, (%eax)
c0190f37: 00 02                        	addb	%al, (%edx)
c0190f39: 0d 00 00 80 00               	orl	$8388608, %eax
c0190f3e: 0a 00                        	orb	(%eax), %al
c0190f40: ff ff                        	<unknown>
c0190f42: ff ff                        	<unknown>
c0190f44: 0c 0d                        	orb	$13, %al
c0190f46: 00 00                        	addb	%al, (%eax)
c0190f48: 80 00 08                     	addb	$8, (%eax)
c0190f4b: 00 ec                        	addb	%ch, %ah
c0190f4d: ff ff                        	<unknown>
c0190f4f: ff 00                        	incl	(%eax)
c0190f51: 00 00                        	addb	%al, (%eax)
c0190f53: 00 c0                        	addb	%al, %al
		...
c0190f5d: 00 00                        	addb	%al, (%eax)
c0190f5f: 00 e0                        	addb	%ah, %al
c0190f61: 00 00                        	addb	%al, (%eax)
c0190f63: 00 1d 00 00 00 00            	addb	%bl, 0
c0190f69: 00 00                        	addb	%al, (%eax)
c0190f6b: 00 24 00                     	addb	%ah, (%eax,%eax)
c0190f6e: 00 00                        	addb	%al, (%eax)
c0190f70: 1d 00 00 00 17               	sbbl	$385875968, %eax
c0190f75: 0d 00 00 24 00               	orl	$2359296, %eax
c0190f7a: 0f 00 17                     	lldtw	(%edi)
c0190f7d: 1d 10 c0 f6 0c               	sbbl	$217497616, %eax
c0190f82: 00 00                        	addb	%al, (%eax)
c0190f84: a0 00 0f 00 08               	movb	134221568, %al
c0190f89: 00 00                        	addb	%al, (%eax)
c0190f8b: 00 00                        	addb	%al, (%eax)
c0190f8d: 00 00                        	addb	%al, (%eax)
c0190f8f: 00 44 00 10                  	addb	%al, 16(%eax,%eax)
		...
c0190f9b: 00 44 00 12                  	addb	%al, 18(%eax,%eax)
c0190f9f: 00 0d 00 00 00 00            	addb	%cl, 0
c0190fa5: 00 00                        	addb	%al, (%eax)
c0190fa7: 00 44 00 13                  	addb	%al, 19(%eax,%eax)
c0190fab: 00 19                        	addb	%bl, (%ecx)
c0190fad: 00 00                        	addb	%al, (%eax)
c0190faf: 00 00                        	addb	%al, (%eax)
c0190fb1: 00 00                        	addb	%al, (%eax)
c0190fb3: 00 44 00 14                  	addb	%al, 20(%eax,%eax)
c0190fb7: 00 1d 00 00 00 22            	addb	%bl, 570425344
c0190fbd: 0d 00 00 80 00               	orl	$8388608, %eax
c0190fc2: 11 00                        	adcl	%eax, (%eax)
c0190fc4: fe ff                        	<unknown>
c0190fc6: ff ff                        	<unknown>
c0190fc8: 0c 0d                        	orb	$13, %al
c0190fca: 00 00                        	addb	%al, (%eax)
c0190fcc: 80 00 0f                     	addb	$15, (%eax)
c0190fcf: 00 ec                        	addb	%ch, %ah
c0190fd1: ff ff                        	<unknown>
c0190fd3: ff 00                        	incl	(%eax)
c0190fd5: 00 00                        	addb	%al, (%eax)
c0190fd7: 00 c0                        	addb	%al, %al
		...
c0190fe1: 00 00                        	addb	%al, (%eax)
c0190fe3: 00 e0                        	addb	%ah, %al
c0190fe5: 00 00                        	addb	%al, (%eax)
c0190fe7: 00 1f                        	addb	%bl, (%edi)
c0190fe9: 00 00                        	addb	%al, (%eax)
c0190feb: 00 00                        	addb	%al, (%eax)
c0190fed: 00 00                        	addb	%al, (%eax)
c0190fef: 00 24 00                     	addb	%ah, (%eax,%eax)
c0190ff2: 00 00                        	addb	%al, (%eax)
c0190ff4: 1f                           	popl	%ds
c0190ff5: 00 00                        	addb	%al, (%eax)
c0190ff7: 00 00                        	addb	%al, (%eax)
c0190ff9: 00 00                        	addb	%al, (%eax)
c0190ffb: 00 64 00 00                  	addb	%ah, (%eax,%eax)
c0190fff: 00 36                        	addb	%dh, (%esi)
c0191001: 1d 10 c0 30 00               	sbbl	$3194896, %eax
c0191006: 00 00                        	addb	%al, (%eax)
c0191008: 64 00 02                     	addb	%al, %fs:(%edx)
c019100b: 00 36                        	addb	%dh, (%esi)
c019100d: 1d 10 c0 2c 0d               	sbbl	$221036560, %eax
c0191012: 00 00                        	addb	%al, (%eax)
c0191014: 64 00 02                     	addb	%al, %fs:(%edx)
c0191017: 00 36                        	addb	%dh, (%esi)
c0191019: 1d 10 c0 63 00               	sbbl	$6537232, %eax
c019101e: 00 00                        	addb	%al, (%eax)
c0191020: 3c 00                        	cmpb	$0, %al
c0191022: 00 00                        	addb	%al, (%eax)
c0191024: 00 00                        	addb	%al, (%eax)
c0191026: 00 00                        	addb	%al, (%eax)
c0191028: 39 0d 00 00 24 00            	cmpl	%ecx, 2359296
c019102e: 03 00                        	addl	(%eax), %eax
c0191030: 36 1d 10 c0 4d 0d            	sbbl	$223199248, %eax
c0191036: 00 00                        	addb	%al, (%eax)
c0191038: 80 00 00                     	addb	$0, (%eax)
c019103b: 00 00                        	addb	%al, (%eax)
c019103d: 00 00                        	addb	%al, (%eax)
c019103f: 00 67 0d                     	addb	%ah, 13(%edi)
c0191042: 00 00                        	addb	%al, (%eax)
c0191044: 80 00 00                     	addb	$0, (%eax)
c0191047: 00 00                        	addb	%al, (%eax)
c0191049: 00 00                        	addb	%al, (%eax)
c019104b: 00 97 0d 00 00 80            	addb	%dl, -2147483635(%edi)
c0191051: 00 1b                        	addb	%bl, (%ebx)
c0191053: 00 00                        	addb	%al, (%eax)
c0191055: 00 00                        	addb	%al, (%eax)
c0191057: 00 d0                        	addb	%dl, %al
c0191059: 05 00 00 80 00               	addl	$8388608, %eax
c019105e: 00 00                        	addb	%al, (%eax)
c0191060: 00 00                        	addb	%al, (%eax)
c0191062: 00 00                        	addb	%al, (%eax)
c0191064: c4 0d 00 00 80 00            	lesl	8388608, %ecx
c019106a: 00 00                        	addb	%al, (%eax)
c019106c: 00 00                        	addb	%al, (%eax)
c019106e: 00 00                        	addb	%al, (%eax)
c0191070: d8 0d 00 00 a0 00            	fmuls	10485760
c0191076: 03 00                        	addl	(%eax), %eax
c0191078: 08 00                        	orb	%al, (%eax)
c019107a: 00 00                        	addb	%al, (%eax)
c019107c: eb 0d                        	jmp	0xc019108b <.stab+0x208b>
c019107e: 00 00                        	addb	%al, (%eax)
c0191080: a0 00 03 00 0c               	movb	201327360, %al
c0191085: 00 00                        	addb	%al, (%eax)
c0191087: 00 04 0e                     	addb	%al, (%esi,%ecx)
c019108a: 00 00                        	addb	%al, (%eax)
c019108c: a0 00 03 00 10               	movb	268436224, %al
c0191091: 00 00                        	addb	%al, (%eax)
c0191093: 00 15 0e 00 00 80            	addb	%dl, -2147483634
c0191099: 00 22                        	addb	%ah, (%edx)
		...
c01910a3: 00 44 00 04                  	addb	%al, 4(%eax,%eax)
		...
c01910af: 00 44 00 05                  	addb	%al, 5(%eax,%eax)
c01910b3: 00 06                        	addb	%al, (%esi)
c01910b5: 00 00                        	addb	%al, (%eax)
c01910b7: 00 00                        	addb	%al, (%eax)
c01910b9: 00 00                        	addb	%al, (%eax)
c01910bb: 00 44 00 06                  	addb	%al, 6(%eax,%eax)
c01910bf: 00 0c 00                     	addb	%cl, (%eax,%eax)
c01910c2: 00 00                        	addb	%al, (%eax)
c01910c4: 00 00                        	addb	%al, (%eax)
c01910c6: 00 00                        	addb	%al, (%eax)
c01910c8: 44                           	incl	%esp
c01910c9: 00 08                        	addb	%cl, (%eax)
c01910cb: 00 12                        	addb	%dl, (%edx)
c01910cd: 00 00                        	addb	%al, (%eax)
c01910cf: 00 00                        	addb	%al, (%eax)
c01910d1: 00 00                        	addb	%al, (%eax)
c01910d3: 00 44 00 08                  	addb	%al, 8(%eax,%eax)
c01910d7: 00 15 00 00 00 00            	addb	%dl, 0
c01910dd: 00 00                        	addb	%al, (%eax)
c01910df: 00 44 00 08                  	addb	%al, 8(%eax,%eax)
c01910e3: 00 18                        	addb	%bl, (%eax)
c01910e5: 00 00                        	addb	%al, (%eax)
c01910e7: 00 00                        	addb	%al, (%eax)
c01910e9: 00 00                        	addb	%al, (%eax)
c01910eb: 00 44 00 08                  	addb	%al, 8(%eax,%eax)
c01910ef: 00 1a                        	addb	%bl, (%edx)
c01910f1: 00 00                        	addb	%al, (%eax)
c01910f3: 00 00                        	addb	%al, (%eax)
c01910f5: 00 00                        	addb	%al, (%eax)
c01910f7: 00 44 00 08                  	addb	%al, 8(%eax,%eax)
c01910fb: 00 1d 00 00 00 00            	addb	%bl, 0
c0191101: 00 00                        	addb	%al, (%eax)
c0191103: 00 44 00 09                  	addb	%al, 9(%eax,%eax)
c0191107: 00 21                        	addb	%ah, (%ecx)
c0191109: 00 00                        	addb	%al, (%eax)
c019110b: 00 00                        	addb	%al, (%eax)
c019110d: 00 00                        	addb	%al, (%eax)
c019110f: 00 44 00 0a                  	addb	%al, 10(%eax,%eax)
c0191113: 00 27                        	addb	%ah, (%edi)
c0191115: 00 00                        	addb	%al, (%eax)
c0191117: 00 00                        	addb	%al, (%eax)
c0191119: 00 00                        	addb	%al, (%eax)
c019111b: 00 44 00 0b                  	addb	%al, 11(%eax,%eax)
c019111f: 00 2d 00 00 00 00            	addb	%ch, 0
c0191125: 00 00                        	addb	%al, (%eax)
c0191127: 00 44 00 0c                  	addb	%al, 12(%eax,%eax)
c019112b: 00 2f                        	addb	%ch, (%edi)
c019112d: 00 00                        	addb	%al, (%eax)
c019112f: 00 00                        	addb	%al, (%eax)
c0191131: 00 00                        	addb	%al, (%eax)
c0191133: 00 44 00 0c                  	addb	%al, 12(%eax,%eax)
c0191137: 00 38                        	addb	%bh, (%eax)
c0191139: 00 00                        	addb	%al, (%eax)
c019113b: 00 00                        	addb	%al, (%eax)
c019113d: 00 00                        	addb	%al, (%eax)
c019113f: 00 44 00 0c                  	addb	%al, 12(%eax,%eax)
c0191143: 00 41 00                     	addb	%al, (%ecx)
c0191146: 00 00                        	addb	%al, (%eax)
c0191148: 00 00                        	addb	%al, (%eax)
c019114a: 00 00                        	addb	%al, (%eax)
c019114c: 44                           	incl	%esp
c019114d: 00 0c 00                     	addb	%cl, (%eax,%eax)
c0191150: 43                           	incl	%ebx
c0191151: 00 00                        	addb	%al, (%eax)
c0191153: 00 00                        	addb	%al, (%eax)
c0191155: 00 00                        	addb	%al, (%eax)
c0191157: 00 44 00 0d                  	addb	%al, 13(%eax,%eax)
c019115b: 00 45 00                     	addb	%al, (%ebp)
c019115e: 00 00                        	addb	%al, (%eax)
c0191160: 00 00                        	addb	%al, (%eax)
c0191162: 00 00                        	addb	%al, (%eax)
c0191164: 44                           	incl	%esp
c0191165: 00 0b                        	addb	%cl, (%ebx)
c0191167: 00 49 00                     	addb	%cl, (%ecx)
c019116a: 00 00                        	addb	%al, (%eax)
c019116c: 00 00                        	addb	%al, (%eax)
c019116e: 00 00                        	addb	%al, (%eax)
c0191170: 44                           	incl	%esp
c0191171: 00 11                        	addb	%dl, (%ecx)
c0191173: 00 4f 00                     	addb	%cl, (%edi)
c0191176: 00 00                        	addb	%al, (%eax)
c0191178: 00 00                        	addb	%al, (%eax)
c019117a: 00 00                        	addb	%al, (%eax)
c019117c: 44                           	incl	%esp
c019117d: 00 12                        	addb	%dl, (%edx)
c019117f: 00 51 00                     	addb	%dl, (%ecx)
c0191182: 00 00                        	addb	%al, (%eax)
c0191184: 00 00                        	addb	%al, (%eax)
c0191186: 00 00                        	addb	%al, (%eax)
c0191188: 44                           	incl	%esp
c0191189: 00 12                        	addb	%dl, (%edx)
c019118b: 00 5a 00                     	addb	%bl, (%edx)
c019118e: 00 00                        	addb	%al, (%eax)
c0191190: 00 00                        	addb	%al, (%eax)
c0191192: 00 00                        	addb	%al, (%eax)
c0191194: 44                           	incl	%esp
c0191195: 00 12                        	addb	%dl, (%edx)
c0191197: 00 63 00                     	addb	%ah, (%ebx)
c019119a: 00 00                        	addb	%al, (%eax)
c019119c: 00 00                        	addb	%al, (%eax)
c019119e: 00 00                        	addb	%al, (%eax)
c01911a0: 44                           	incl	%esp
c01911a1: 00 12                        	addb	%dl, (%edx)
c01911a3: 00 66 00                     	addb	%ah, (%esi)
c01911a6: 00 00                        	addb	%al, (%eax)
c01911a8: 00 00                        	addb	%al, (%eax)
c01911aa: 00 00                        	addb	%al, (%eax)
c01911ac: 44                           	incl	%esp
c01911ad: 00 11                        	addb	%dl, (%ecx)
c01911af: 00 68 00                     	addb	%ch, (%eax)
c01911b2: 00 00                        	addb	%al, (%eax)
c01911b4: 00 00                        	addb	%al, (%eax)
c01911b6: 00 00                        	addb	%al, (%eax)
c01911b8: 44                           	incl	%esp
c01911b9: 00 11                        	addb	%dl, (%ecx)
c01911bb: 00 71 00                     	addb	%dh, (%ecx)
c01911be: 00 00                        	addb	%al, (%eax)
c01911c0: 00 00                        	addb	%al, (%eax)
c01911c2: 00 00                        	addb	%al, (%eax)
c01911c4: 44                           	incl	%esp
c01911c5: 00 14 00                     	addb	%dl, (%eax,%eax)
c01911c8: 75 00                        	jne	0xc01911ca <.stab+0x21ca>
c01911ca: 00 00                        	addb	%al, (%eax)
c01911cc: 23 0e                        	andl	(%esi), %ecx
c01911ce: 00 00                        	addb	%al, (%eax)
c01911d0: 80 00 05                     	addb	$5, (%eax)
c01911d3: 00 fc                        	addb	%bh, %ah
c01911d5: ff ff                        	<unknown>
c01911d7: ff 38                        	<unknown>
c01911d9: 0e                           	pushl	%cs
c01911da: 00 00                        	addb	%al, (%eax)
c01911dc: 80 00 06                     	addb	$6, (%eax)
c01911df: 00 f8                        	addb	%bh, %al
c01911e1: ff ff                        	<unknown>
c01911e3: ff 00                        	incl	(%eax)
c01911e5: 00 00                        	addb	%al, (%eax)
c01911e7: 00 c0                        	addb	%al, %al
c01911e9: 00 00                        	addb	%al, (%eax)
c01911eb: 00 00                        	addb	%al, (%eax)
c01911ed: 00 00                        	addb	%al, (%eax)
c01911ef: 00 45 0e                     	addb	%al, 14(%ebp)
c01911f2: 00 00                        	addb	%al, (%eax)
c01911f4: 80 00 09                     	addb	$9, (%eax)
c01911f7: 00 f4                        	addb	%dh, %ah
c01911f9: ff ff                        	<unknown>
c01911fb: ff 5a 0e                     	lcalll	*14(%edx)
c01911fe: 00 00                        	addb	%al, (%eax)
c0191200: 80 00 0a                     	addb	$10, (%eax)
c0191203: 00 f0                        	addb	%dh, %al
c0191205: ff ff                        	<unknown>
c0191207: ff 00                        	incl	(%eax)
c0191209: 00 00                        	addb	%al, (%eax)
c019120b: 00 c0                        	addb	%al, %al
c019120d: 00 00                        	addb	%al, (%eax)
c019120f: 00 21                        	addb	%ah, (%ecx)
c0191211: 00 00                        	addb	%al, (%eax)
c0191213: 00 00                        	addb	%al, (%eax)
c0191215: 00 00                        	addb	%al, (%eax)
c0191217: 00 e0                        	addb	%ah, %al
c0191219: 00 00                        	addb	%al, (%eax)
c019121b: 00 4f 00                     	addb	%cl, (%edi)
c019121e: 00 00                        	addb	%al, (%eax)
c0191220: 00 00                        	addb	%al, (%eax)
c0191222: 00 00                        	addb	%al, (%eax)
c0191224: e0 00                        	loopne	0xc0191226 <.stab+0x2226>
c0191226: 00 00                        	addb	%al, (%eax)
c0191228: 79 00                        	jns	0xc019122a <.stab+0x222a>
c019122a: 00 00                        	addb	%al, (%eax)
c019122c: 00 00                        	addb	%al, (%eax)
c019122e: 00 00                        	addb	%al, (%eax)
c0191230: 24 00                        	andb	$0, %al
c0191232: 00 00                        	addb	%al, (%eax)
c0191234: 79 00                        	jns	0xc0191236 <.stab+0x2236>
c0191236: 00 00                        	addb	%al, (%eax)
c0191238: 67 0e                        	pushl	%cs
c019123a: 00 00                        	addb	%al, (%eax)
c019123c: 24 00                        	andb	$0, %al
c019123e: 16                           	pushl	%ss
c019123f: 00 af 1d 10 c0 75            	addb	%ch, 1975521309(%edi)
c0191245: 0e                           	pushl	%cs
c0191246: 00 00                        	addb	%al, (%eax)
c0191248: a0 00 16 00 08               	movb	134223360, %al
c019124d: 00 00                        	addb	%al, (%eax)
c019124f: 00 81 0e 00 00 a0            	addb	%al, -1610612722(%ecx)
c0191255: 00 16                        	addb	%dl, (%esi)
c0191257: 00 0c 00                     	addb	%cl, (%eax,%eax)
c019125a: 00 00                        	addb	%al, (%eax)
c019125c: ad                           	lodsl	(%esi), %eax
c019125d: 0e                           	pushl	%cs
c019125e: 00 00                        	addb	%al, (%eax)
c0191260: a0 00 16 00 10               	movb	268441088, %al
c0191265: 00 00                        	addb	%al, (%eax)
c0191267: 00 b8 0e 00 00 80            	addb	%bh, -2147483634(%eax)
		...
c0191275: 00 00                        	addb	%al, (%eax)
c0191277: 00 44 00 17                  	addb	%al, 23(%eax,%eax)
		...
c0191283: 00 44 00 18                  	addb	%al, 24(%eax,%eax)
c0191287: 00 0c 00                     	addb	%cl, (%eax,%eax)
c019128a: 00 00                        	addb	%al, (%eax)
c019128c: 00 00                        	addb	%al, (%eax)
c019128e: 00 00                        	addb	%al, (%eax)
c0191290: 44                           	incl	%esp
c0191291: 00 1a                        	addb	%bl, (%edx)
c0191293: 00 12                        	addb	%dl, (%edx)
c0191295: 00 00                        	addb	%al, (%eax)
c0191297: 00 00                        	addb	%al, (%eax)
c0191299: 00 00                        	addb	%al, (%eax)
c019129b: 00 44 00 1b                  	addb	%al, 27(%eax,%eax)
c019129f: 00 14 00                     	addb	%dl, (%eax,%eax)
c01912a2: 00 00                        	addb	%al, (%eax)
c01912a4: 00 00                        	addb	%al, (%eax)
c01912a6: 00 00                        	addb	%al, (%eax)
c01912a8: 44                           	incl	%esp
c01912a9: 00 1b                        	addb	%bl, (%ebx)
c01912ab: 00 1d 00 00 00 00            	addb	%bl, 0
c01912b1: 00 00                        	addb	%al, (%eax)
c01912b3: 00 44 00 1a                  	addb	%al, 26(%eax,%eax)
c01912b7: 00 23                        	addb	%ah, (%ebx)
c01912b9: 00 00                        	addb	%al, (%eax)
c01912bb: 00 00                        	addb	%al, (%eax)
c01912bd: 00 00                        	addb	%al, (%eax)
c01912bf: 00 44 00 1a                  	addb	%al, 26(%eax,%eax)
c01912c3: 00 2c 00                     	addb	%ch, (%eax,%eax)
c01912c6: 00 00                        	addb	%al, (%eax)
c01912c8: 00 00                        	addb	%al, (%eax)
c01912ca: 00 00                        	addb	%al, (%eax)
c01912cc: 44                           	incl	%esp
c01912cd: 00 1d 00 30 00 00            	addb	%bl, 12288
c01912d3: 00 c4                        	addb	%al, %ah
c01912d5: 0e                           	pushl	%cs
c01912d6: 00 00                        	addb	%al, (%eax)
c01912d8: 80 00 18                     	addb	$24, (%eax)
c01912db: 00 fc                        	addb	%bh, %ah
c01912dd: ff ff                        	<unknown>
c01912df: ff d2                        	calll	*%edx
c01912e1: 0e                           	pushl	%cs
c01912e2: 00 00                        	addb	%al, (%eax)
c01912e4: 80 00 16                     	addb	$22, (%eax)
c01912e7: 00 ec                        	addb	%ch, %ah
c01912e9: ff ff                        	<unknown>
c01912eb: ff f7                        	pushl	%edi
c01912ed: 0e                           	pushl	%cs
c01912ee: 00 00                        	addb	%al, (%eax)
c01912f0: 80 00 1f                     	addb	$31, (%eax)
c01912f3: 00 00                        	addb	%al, (%eax)
c01912f5: 00 00                        	addb	%al, (%eax)
c01912f7: 00 07                        	addb	%al, (%edi)
c01912f9: 0f 00 00                     	sldtw	(%eax)
c01912fc: 80 00 00                     	addb	$0, (%eax)
		...
c0191307: 00 c0                        	addb	%al, %al
		...
c0191311: 00 00                        	addb	%al, (%eax)
c0191313: 00 e0                        	addb	%ah, %al
c0191315: 00 00                        	addb	%al, (%eax)
c0191317: 00 34 00                     	addb	%dh, (%eax,%eax)
c019131a: 00 00                        	addb	%al, (%eax)
c019131c: 00 00                        	addb	%al, (%eax)
c019131e: 00 00                        	addb	%al, (%eax)
c0191320: 24 00                        	andb	$0, %al
c0191322: 00 00                        	addb	%al, (%eax)
c0191324: 34 00                        	xorb	$0, %al
c0191326: 00 00                        	addb	%al, (%eax)
c0191328: 1d 0f 00 00 24               	sbbl	$603979791, %eax
c019132d: 00 1f                        	addb	%bl, (%edi)
c019132f: 00 e3                        	addb	%ah, %bl
c0191331: 1d 10 c0 75 0e               	sbbl	$242597904, %eax
c0191336: 00 00                        	addb	%al, (%eax)
c0191338: a0 00 1f 00 08               	movb	134225664, %al
c019133d: 00 00                        	addb	%al, (%eax)
c019133f: 00 ad 0e 00 00 a0            	addb	%ch, -1610612722(%ebp)
c0191345: 00 1f                        	addb	%bl, (%edi)
c0191347: 00 0c 00                     	addb	%cl, (%eax,%eax)
c019134a: 00 00                        	addb	%al, (%eax)
c019134c: 00 00                        	addb	%al, (%eax)
c019134e: 00 00                        	addb	%al, (%eax)
c0191350: 44                           	incl	%esp
c0191351: 00 20                        	addb	%ah, (%eax)
		...
c019135b: 00 44 00 21                  	addb	%al, 33(%eax,%eax)
c019135f: 00 03                        	addb	%al, (%ebx)
c0191361: 00 00                        	addb	%al, (%eax)
c0191363: 00 00                        	addb	%al, (%eax)
c0191365: 00 00                        	addb	%al, (%eax)
c0191367: 00 44 00 22                  	addb	%al, 34(%eax,%eax)
c019136b: 00 13                        	addb	%dl, (%ebx)
c019136d: 00 00                        	addb	%al, (%eax)
c019136f: 00 00                        	addb	%al, (%eax)
c0191371: 00 00                        	addb	%al, (%eax)
c0191373: 00 24 00                     	addb	%ah, (%eax,%eax)
c0191376: 00 00                        	addb	%al, (%eax)
c0191378: 16                           	pushl	%ss
c0191379: 00 00                        	addb	%al, (%eax)
c019137b: 00 2a                        	addb	%ch, (%edx)
c019137d: 0f 00 00                     	sldtw	(%eax)
c0191380: 24 00                        	andb	$0, %al
c0191382: 24 00                        	andb	$0, %al
c0191384: f9                           	stc
c0191385: 1d 10 c0 39 0f               	sbbl	$255442960, %eax
c019138a: 00 00                        	addb	%al, (%eax)
c019138c: a0 00 24 00 08               	movb	134226944, %al
c0191391: 00 00                        	addb	%al, (%eax)
c0191393: 00 55 0f                     	addb	%dl, 15(%ebp)
c0191396: 00 00                        	addb	%al, (%eax)
c0191398: a0 00 24 00 0c               	movb	201335808, %al
c019139d: 00 00                        	addb	%al, (%eax)
c019139f: 00 00                        	addb	%al, (%eax)
c01913a1: 00 00                        	addb	%al, (%eax)
c01913a3: 00 44 00 25                  	addb	%al, 37(%eax,%eax)
		...
c01913af: 00 44 00 26                  	addb	%al, 38(%eax,%eax)
c01913b3: 00 06                        	addb	%al, (%esi)
c01913b5: 00 00                        	addb	%al, (%eax)
c01913b7: 00 00                        	addb	%al, (%eax)
c01913b9: 00 00                        	addb	%al, (%eax)
c01913bb: 00 44 00 28                  	addb	%al, 40(%eax,%eax)
c01913bf: 00 0d 00 00 00 00            	addb	%cl, 0
c01913c5: 00 00                        	addb	%al, (%eax)
c01913c7: 00 44 00 28                  	addb	%al, 40(%eax,%eax)
c01913cb: 00 16                        	addb	%dl, (%esi)
c01913cd: 00 00                        	addb	%al, (%eax)
c01913cf: 00 00                        	addb	%al, (%eax)
c01913d1: 00 00                        	addb	%al, (%eax)
c01913d3: 00 44 00 28                  	addb	%al, 40(%eax,%eax)
c01913d7: 00 1f                        	addb	%bl, (%edi)
c01913d9: 00 00                        	addb	%al, (%eax)
c01913db: 00 00                        	addb	%al, (%eax)
c01913dd: 00 00                        	addb	%al, (%eax)
c01913df: 00 44 00 29                  	addb	%al, 41(%eax,%eax)
c01913e3: 00 26                        	addb	%ah, (%esi)
c01913e5: 00 00                        	addb	%al, (%eax)
c01913e7: 00 00                        	addb	%al, (%eax)
c01913e9: 00 00                        	addb	%al, (%eax)
c01913eb: 00 44 00 29                  	addb	%al, 41(%eax,%eax)
c01913ef: 00 2c 00                     	addb	%ch, (%eax,%eax)
c01913f2: 00 00                        	addb	%al, (%eax)
c01913f4: 00 00                        	addb	%al, (%eax)
c01913f6: 00 00                        	addb	%al, (%eax)
c01913f8: 44                           	incl	%esp
c01913f9: 00 29                        	addb	%ch, (%ecx)
c01913fb: 00 32                        	addb	%dh, (%edx)
c01913fd: 00 00                        	addb	%al, (%eax)
c01913ff: 00 00                        	addb	%al, (%eax)
c0191401: 00 00                        	addb	%al, (%eax)
c0191403: 00 44 00 2c                  	addb	%al, 44(%eax,%eax)
c0191407: 00 36                        	addb	%dh, (%esi)
c0191409: 00 00                        	addb	%al, (%eax)
c019140b: 00 00                        	addb	%al, (%eax)
c019140d: 00 00                        	addb	%al, (%eax)
c019140f: 00 44 00 2d                  	addb	%al, 45(%eax,%eax)
c0191413: 00 3a                        	addb	%bh, (%edx)
c0191415: 00 00                        	addb	%al, (%eax)
c0191417: 00 00                        	addb	%al, (%eax)
c0191419: 00 00                        	addb	%al, (%eax)
c019141b: 00 44 00 28                  	addb	%al, 40(%eax,%eax)
c019141f: 00 3e                        	addb	%bh, (%esi)
c0191421: 00 00                        	addb	%al, (%eax)
c0191423: 00 00                        	addb	%al, (%eax)
c0191425: 00 00                        	addb	%al, (%eax)
c0191427: 00 44 00 30                  	addb	%al, 48(%eax,%eax)
c019142b: 00 40 00                     	addb	%al, (%eax)
c019142e: 00 00                        	addb	%al, (%eax)
c0191430: 00 00                        	addb	%al, (%eax)
c0191432: 00 00                        	addb	%al, (%eax)
c0191434: 44                           	incl	%esp
c0191435: 00 31                        	addb	%dh, (%ecx)
c0191437: 00 43 00                     	addb	%al, (%ebx)
c019143a: 00 00                        	addb	%al, (%eax)
c019143c: 62 0f                        	bound	%ecx, (%edi)
c019143e: 00 00                        	addb	%al, (%eax)
c0191440: 80 00 26                     	addb	$38, (%eax)
c0191443: 00 fc                        	addb	%bh, %ah
c0191445: ff ff                        	<unknown>
c0191447: ff 00                        	incl	(%eax)
c0191449: 00 00                        	addb	%al, (%eax)
c019144b: 00 c0                        	addb	%al, %al
		...
c0191455: 00 00                        	addb	%al, (%eax)
c0191457: 00 e0                        	addb	%ah, %al
c0191459: 00 00                        	addb	%al, (%eax)
c019145b: 00 45 00                     	addb	%al, (%ebp)
c019145e: 00 00                        	addb	%al, (%eax)
c0191460: 00 00                        	addb	%al, (%eax)
c0191462: 00 00                        	addb	%al, (%eax)
c0191464: 24 00                        	andb	$0, %al
c0191466: 00 00                        	addb	%al, (%eax)
c0191468: 45                           	incl	%ebp
c0191469: 00 00                        	addb	%al, (%eax)
c019146b: 00 6d 0f                     	addb	%ch, 15(%ebp)
c019146e: 00 00                        	addb	%al, (%eax)
c0191470: 24 00                        	andb	$0, %al
c0191472: 33 00                        	xorl	(%eax), %eax
c0191474: 3e 1e                        	pushl	%ds
c0191476: 10 c0                        	adcb	%al, %al
c0191478: 7b 0f                        	jnp	0xc0191489 <.stab+0x2489>
c019147a: 00 00                        	addb	%al, (%eax)
c019147c: a0 00 33 00 08               	movb	134230784, %al
c0191481: 00 00                        	addb	%al, (%eax)
c0191483: 00 88 0f 00 00 a0            	addb	%cl, -1610612721(%eax)
c0191489: 00 33                        	addb	%dh, (%ebx)
c019148b: 00 0c 00                     	addb	%cl, (%eax,%eax)
c019148e: 00 00                        	addb	%al, (%eax)
c0191490: 00 00                        	addb	%al, (%eax)
c0191492: 00 00                        	addb	%al, (%eax)
c0191494: 44                           	incl	%esp
c0191495: 00 34 00                     	addb	%dh, (%eax,%eax)
		...
c01914a0: 44                           	incl	%esp
c01914a1: 00 35 00 03 00 00            	addb	%dh, 768
c01914a7: 00 00                        	addb	%al, (%eax)
c01914a9: 00 00                        	addb	%al, (%eax)
c01914ab: 00 44 00 35                  	addb	%al, 53(%eax,%eax)
c01914af: 00 04 00                     	addb	%al, (%eax,%eax)
c01914b2: 00 00                        	addb	%al, (%eax)
c01914b4: 00 00                        	addb	%al, (%eax)
c01914b6: 00 00                        	addb	%al, (%eax)
c01914b8: 44                           	incl	%esp
c01914b9: 00 35 00 0d 00 00            	addb	%dh, 3328
c01914bf: 00 00                        	addb	%al, (%eax)
c01914c1: 00 00                        	addb	%al, (%eax)
c01914c3: 00 44 00 35                  	addb	%al, 53(%eax,%eax)
c01914c7: 00 16                        	addb	%dl, (%esi)
c01914c9: 00 00                        	addb	%al, (%eax)
c01914cb: 00 00                        	addb	%al, (%eax)
c01914cd: 00 00                        	addb	%al, (%eax)
c01914cf: 00 44 00 35                  	addb	%al, 53(%eax,%eax)
c01914d3: 00 19                        	addb	%bl, (%ecx)
c01914d5: 00 00                        	addb	%al, (%eax)
c01914d7: 00 00                        	addb	%al, (%eax)
c01914d9: 00 00                        	addb	%al, (%eax)
c01914db: 00 44 00 35                  	addb	%al, 53(%eax,%eax)
c01914df: 00 1b                        	addb	%bl, (%ebx)
c01914e1: 00 00                        	addb	%al, (%eax)
c01914e3: 00 00                        	addb	%al, (%eax)
c01914e5: 00 00                        	addb	%al, (%eax)
c01914e7: 00 44 00 35                  	addb	%al, 53(%eax,%eax)
c01914eb: 00 1e                        	addb	%bl, (%esi)
c01914ed: 00 00                        	addb	%al, (%eax)
c01914ef: 00 00                        	addb	%al, (%eax)
c01914f1: 00 00                        	addb	%al, (%eax)
c01914f3: 00 44 00 36                  	addb	%al, 54(%eax,%eax)
c01914f7: 00 22                        	addb	%ah, (%edx)
c01914f9: 00 00                        	addb	%al, (%eax)
c01914fb: 00 00                        	addb	%al, (%eax)
c01914fd: 00 00                        	addb	%al, (%eax)
c01914ff: 00 24 00                     	addb	%ah, (%eax,%eax)
c0191502: 00 00                        	addb	%al, (%eax)
c0191504: 26 00 00                     	addb	%al, %es:(%eax)
c0191507: 00 94 0f 00 00 24 00         	addb	%dl, 2359296(%edi,%ecx)
c019150e: 38 00                        	cmpb	%al, (%eax)
c0191510: 64 1e                        	pushl	%ds
c0191512: 10 c0                        	adcb	%al, %al
c0191514: 7b 0f                        	jnp	0xc0191525 <.stab+0x2525>
c0191516: 00 00                        	addb	%al, (%eax)
c0191518: a0 00 38 00 08               	movb	134232064, %al
c019151d: 00 00                        	addb	%al, (%eax)
c019151f: 00 88 0f 00 00 a0            	addb	%cl, -1610612721(%eax)
c0191525: 00 38                        	addb	%bh, (%eax)
c0191527: 00 0c 00                     	addb	%cl, (%eax,%eax)
c019152a: 00 00                        	addb	%al, (%eax)
c019152c: 00 00                        	addb	%al, (%eax)
c019152e: 00 00                        	addb	%al, (%eax)
c0191530: 44                           	incl	%esp
c0191531: 00 39                        	addb	%bh, (%ecx)
		...
c019153b: 00 44 00 3a                  	addb	%al, 58(%eax,%eax)
c019153f: 00 03                        	addb	%al, (%ebx)
c0191541: 00 00                        	addb	%al, (%eax)
c0191543: 00 00                        	addb	%al, (%eax)
c0191545: 00 00                        	addb	%al, (%eax)
c0191547: 00 44 00 3b                  	addb	%al, 59(%eax,%eax)
c019154b: 00 05 00 00 00 00            	addb	%al, 0
c0191551: 00 00                        	addb	%al, (%eax)
c0191553: 00 44 00 3a                  	addb	%al, 58(%eax,%eax)
c0191557: 00 09                        	addb	%cl, (%ecx)
c0191559: 00 00                        	addb	%al, (%eax)
c019155b: 00 00                        	addb	%al, (%eax)
c019155d: 00 00                        	addb	%al, (%eax)
c019155f: 00 44 00 3a                  	addb	%al, 58(%eax,%eax)
c0191563: 00 0f                        	addb	%cl, (%edi)
c0191565: 00 00                        	addb	%al, (%eax)
c0191567: 00 00                        	addb	%al, (%eax)
c0191569: 00 00                        	addb	%al, (%eax)
c019156b: 00 44 00 3e                  	addb	%al, 62(%eax,%eax)
c019156f: 00 13                        	addb	%dl, (%ebx)
c0191571: 00 00                        	addb	%al, (%eax)
c0191573: 00 00                        	addb	%al, (%eax)
c0191575: 00 00                        	addb	%al, (%eax)
c0191577: 00 44 00 3e                  	addb	%al, 62(%eax,%eax)
c019157b: 00 14 00                     	addb	%dl, (%eax,%eax)
c019157e: 00 00                        	addb	%al, (%eax)
c0191580: 00 00                        	addb	%al, (%eax)
c0191582: 00 00                        	addb	%al, (%eax)
c0191584: 44                           	incl	%esp
c0191585: 00 3e                        	addb	%bh, (%esi)
c0191587: 00 1d 00 00 00 00            	addb	%bl, 0
c019158d: 00 00                        	addb	%al, (%eax)
c019158f: 00 44 00 3e                  	addb	%al, 62(%eax,%eax)
c0191593: 00 26                        	addb	%ah, (%esi)
c0191595: 00 00                        	addb	%al, (%eax)
c0191597: 00 00                        	addb	%al, (%eax)
c0191599: 00 00                        	addb	%al, (%eax)
c019159b: 00 44 00 3e                  	addb	%al, 62(%eax,%eax)
c019159f: 00 29                        	addb	%ch, (%ecx)
c01915a1: 00 00                        	addb	%al, (%eax)
c01915a3: 00 00                        	addb	%al, (%eax)
c01915a5: 00 00                        	addb	%al, (%eax)
c01915a7: 00 44 00 3e                  	addb	%al, 62(%eax,%eax)
c01915ab: 00 2b                        	addb	%ch, (%ebx)
c01915ad: 00 00                        	addb	%al, (%eax)
c01915af: 00 00                        	addb	%al, (%eax)
c01915b1: 00 00                        	addb	%al, (%eax)
c01915b3: 00 44 00 3e                  	addb	%al, 62(%eax,%eax)
c01915b7: 00 2e                        	addb	%ch, (%esi)
c01915b9: 00 00                        	addb	%al, (%eax)
c01915bb: 00 00                        	addb	%al, (%eax)
c01915bd: 00 00                        	addb	%al, (%eax)
c01915bf: 00 44 00 3f                  	addb	%al, 63(%eax,%eax)
c01915c3: 00 32                        	addb	%dh, (%edx)
c01915c5: 00 00                        	addb	%al, (%eax)
c01915c7: 00 00                        	addb	%al, (%eax)
c01915c9: 00 00                        	addb	%al, (%eax)
c01915cb: 00 24 00                     	addb	%ah, (%eax,%eax)
c01915ce: 00 00                        	addb	%al, (%eax)
c01915d0: 36 00 00                     	addb	%al, %ss:(%eax)
c01915d3: 00 a2 0f 00 00 24            	addb	%ah, 603979791(%edx)
c01915d9: 00 41 00                     	addb	%al, (%ecx)
c01915dc: 9a 1e 10 c0 88 0f 00         	lcalll	$15, $2294288414
c01915e3: 00 a0 00 41 00 08            	addb	%ah, 134234368(%eax)
c01915e9: 00 00                        	addb	%al, (%eax)
c01915eb: 00 00                        	addb	%al, (%eax)
c01915ed: 00 00                        	addb	%al, (%eax)
c01915ef: 00 44 00 42                  	addb	%al, 66(%eax,%eax)
		...
c01915fb: 00 44 00 43                  	addb	%al, 67(%eax,%eax)
c01915ff: 00 06                        	addb	%al, (%esi)
c0191601: 00 00                        	addb	%al, (%eax)
c0191603: 00 00                        	addb	%al, (%eax)
c0191605: 00 00                        	addb	%al, (%eax)
c0191607: 00 44 00 44                  	addb	%al, 68(%eax,%eax)
c019160b: 00 0d 00 00 00 00            	addb	%cl, 0
c0191611: 00 00                        	addb	%al, (%eax)
c0191613: 00 44 00 45                  	addb	%al, 69(%eax,%eax)
c0191617: 00 0f                        	addb	%cl, (%edi)
c0191619: 00 00                        	addb	%al, (%eax)
c019161b: 00 00                        	addb	%al, (%eax)
c019161d: 00 00                        	addb	%al, (%eax)
c019161f: 00 44 00 46                  	addb	%al, 70(%eax,%eax)
c0191623: 00 13                        	addb	%dl, (%ebx)
c0191625: 00 00                        	addb	%al, (%eax)
c0191627: 00 00                        	addb	%al, (%eax)
c0191629: 00 00                        	addb	%al, (%eax)
c019162b: 00 44 00 44                  	addb	%al, 68(%eax,%eax)
c019162f: 00 17                        	addb	%dl, (%edi)
c0191631: 00 00                        	addb	%al, (%eax)
c0191633: 00 00                        	addb	%al, (%eax)
c0191635: 00 00                        	addb	%al, (%eax)
c0191637: 00 44 00 44                  	addb	%al, 68(%eax,%eax)
c019163b: 00 1d 00 00 00 00            	addb	%bl, 0
c0191641: 00 00                        	addb	%al, (%eax)
c0191643: 00 44 00 49                  	addb	%al, 73(%eax,%eax)
c0191647: 00 21                        	addb	%ah, (%ecx)
c0191649: 00 00                        	addb	%al, (%eax)
c019164b: 00 00                        	addb	%al, (%eax)
c019164d: 00 00                        	addb	%al, (%eax)
c019164f: 00 44 00 4a                  	addb	%al, 74(%eax,%eax)
c0191653: 00 24 00                     	addb	%ah, (%eax,%eax)
c0191656: 00 00                        	addb	%al, (%eax)
c0191658: b0 0f                        	movb	$15, %al
c019165a: 00 00                        	addb	%al, (%eax)
c019165c: 80 00 43                     	addb	$67, (%eax)
c019165f: 00 fc                        	addb	%bh, %ah
c0191661: ff ff                        	<unknown>
c0191663: ff 00                        	incl	(%eax)
c0191665: 00 00                        	addb	%al, (%eax)
c0191667: 00 c0                        	addb	%al, %al
		...
c0191671: 00 00                        	addb	%al, (%eax)
c0191673: 00 e0                        	addb	%ah, %al
c0191675: 00 00                        	addb	%al, (%eax)
c0191677: 00 26                        	addb	%ah, (%esi)
c0191679: 00 00                        	addb	%al, (%eax)
c019167b: 00 00                        	addb	%al, (%eax)
c019167d: 00 00                        	addb	%al, (%eax)
c019167f: 00 24 00                     	addb	%ah, (%eax,%eax)
c0191682: 00 00                        	addb	%al, (%eax)
c0191684: 26 00 00                     	addb	%al, %es:(%eax)
c0191687: 00 00                        	addb	%al, (%eax)
c0191689: 00 00                        	addb	%al, (%eax)
c019168b: 00 64 00 00                  	addb	%ah, (%eax,%eax)
c019168f: 00 c0                        	addb	%al, %al
c0191691: 1e                           	pushl	%ds
c0191692: 10 c0                        	adcb	%al, %al
c0191694: 30 00                        	xorb	%al, (%eax)
c0191696: 00 00                        	addb	%al, (%eax)
c0191698: 64 00 02                     	addb	%al, %fs:(%edx)
c019169b: 00 c0                        	addb	%al, %al
c019169d: 1e                           	pushl	%ds
c019169e: 10 c0                        	adcb	%al, %al
c01916a0: ba 0f 00 00 64               	movl	$1677721615, %edx
c01916a5: 00 02                        	addb	%al, (%edx)
c01916a7: 00 c0                        	addb	%al, %al
c01916a9: 1e                           	pushl	%ds
c01916aa: 10 c0                        	adcb	%al, %al
c01916ac: 63 00                        	arpl	%ax, (%eax)
c01916ae: 00 00                        	addb	%al, (%eax)
c01916b0: 3c 00                        	cmpb	$0, %al
c01916b2: 00 00                        	addb	%al, (%eax)
c01916b4: 00 00                        	addb	%al, (%eax)
c01916b6: 00 00                        	addb	%al, (%eax)
c01916b8: c2 0f 00                     	retl	$15
c01916bb: 00 26                        	addb	%ah, (%esi)
c01916bd: 00 17                        	addb	%dl, (%edi)
c01916bf: 00 80 d8 10 c0 f0            	addb	%al, -255848232(%eax)
c01916c5: 0f 00 00                     	sldtw	(%eax)
c01916c8: 80 00 1b                     	addb	$27, (%eax)
c01916cb: 00 00                        	addb	%al, (%eax)
c01916cd: 00 00                        	addb	%al, (%eax)
c01916cf: 00 00                        	addb	%al, (%eax)
c01916d1: 10 00                        	adcb	%al, (%eax)
c01916d3: 00 80 00 00 00 00            	addb	%al, (%eax)
c01916d9: 00 00                        	addb	%al, (%eax)
c01916db: 00 14 10                     	addb	%dl, (%eax,%edx)
c01916de: 00 00                        	addb	%al, (%eax)
c01916e0: 28 00                        	subb	%al, (%eax)
c01916e2: 1a 00                        	sbbb	(%eax), %al
c01916e4: a0 d8 10 c0 55               	movb	1438650584, %al
c01916e9: 10 00                        	adcb	%al, (%eax)
c01916eb: 00 26                        	addb	%ah, (%esi)
c01916ed: 00 1b                        	addb	%bl, (%ebx)
c01916ef: 00 04 40                     	addb	%al, (%eax,%eax,2)
c01916f2: 10 c0                        	adcb	%al, %al
c01916f4: 6c                           	insb	%dx, %es:(%edi)
c01916f5: 10 00                        	adcb	%al, (%eax)
c01916f7: 00 24 00                     	addb	%ah, (%eax,%eax)
c01916fa: 1d 00 c0 1e 10               	sbbl	$270450688, %eax
c01916ff: c0 81 10 00 00 80 00         	rolb	$0, -2147483632(%ecx)
c0191706: 00 00                        	addb	%al, (%eax)
c0191708: 00 00                        	addb	%al, (%eax)
c019170a: 00 00                        	addb	%al, (%eax)
c019170c: 21 11                        	andl	%edx, (%ecx)
c019170e: 00 00                        	addb	%al, (%eax)
c0191710: 80 00 00                     	addb	$0, (%eax)
		...
c019171b: 00 44 00 1e                  	addb	%al, 30(%eax,%eax)
		...
c0191727: 00 44 00 1f                  	addb	%al, 31(%eax,%eax)
c019172b: 00 06                        	addb	%al, (%esi)
c019172d: 00 00                        	addb	%al, (%eax)
c019172f: 00 00                        	addb	%al, (%eax)
c0191731: 00 00                        	addb	%al, (%eax)
c0191733: 00 44 00 1f                  	addb	%al, 31(%eax,%eax)
c0191737: 00 0e                        	addb	%cl, (%esi)
c0191739: 00 00                        	addb	%al, (%eax)
c019173b: 00 00                        	addb	%al, (%eax)
c019173d: 00 00                        	addb	%al, (%eax)
c019173f: 00 44 00 20                  	addb	%al, 32(%eax,%eax)
c0191743: 00 11                        	addb	%dl, (%ecx)
c0191745: 00 00                        	addb	%al, (%eax)
c0191747: 00 00                        	addb	%al, (%eax)
c0191749: 00 00                        	addb	%al, (%eax)
c019174b: 00 44 00 20                  	addb	%al, 32(%eax,%eax)
c019174f: 00 19                        	addb	%bl, (%ecx)
c0191751: 00 00                        	addb	%al, (%eax)
c0191753: 00 00                        	addb	%al, (%eax)
c0191755: 00 00                        	addb	%al, (%eax)
c0191757: 00 44 00 20                  	addb	%al, 32(%eax,%eax)
c019175b: 00 24 00                     	addb	%ah, (%eax,%eax)
c019175e: 00 00                        	addb	%al, (%eax)
c0191760: 00 00                        	addb	%al, (%eax)
c0191762: 00 00                        	addb	%al, (%eax)
c0191764: 44                           	incl	%esp
c0191765: 00 25 00 2c 00 00            	addb	%ah, 11264
c019176b: 00 00                        	addb	%al, (%eax)
c019176d: 00 00                        	addb	%al, (%eax)
c019176f: 00 44 00 25                  	addb	%al, 37(%eax,%eax)
c0191773: 00 32                        	addb	%dh, (%edx)
c0191775: 00 00                        	addb	%al, (%eax)
c0191777: 00 00                        	addb	%al, (%eax)
c0191779: 00 00                        	addb	%al, (%eax)
c019177b: 00 44 00 27                  	addb	%al, 39(%eax,%eax)
c019177f: 00 37                        	addb	%dh, (%edi)
c0191781: 00 00                        	addb	%al, (%eax)
c0191783: 00 00                        	addb	%al, (%eax)
c0191785: 00 00                        	addb	%al, (%eax)
c0191787: 00 44 00 27                  	addb	%al, 39(%eax,%eax)
c019178b: 00 3d 00 00 00 00            	addb	%bh, 0
c0191791: 00 00                        	addb	%al, (%eax)
c0191793: 00 44 00 27                  	addb	%al, 39(%eax,%eax)
c0191797: 00 46 00                     	addb	%al, (%esi)
c019179a: 00 00                        	addb	%al, (%eax)
c019179c: 00 00                        	addb	%al, (%eax)
c019179e: 00 00                        	addb	%al, (%eax)
c01917a0: 44                           	incl	%esp
c01917a1: 00 27                        	addb	%ah, (%edi)
c01917a3: 00 4c 00 00                  	addb	%cl, (%eax,%eax)
c01917a7: 00 00                        	addb	%al, (%eax)
c01917a9: 00 00                        	addb	%al, (%eax)
c01917ab: 00 44 00 28                  	addb	%al, 40(%eax,%eax)
c01917af: 00 53 00                     	addb	%dl, (%ebx)
c01917b2: 00 00                        	addb	%al, (%eax)
c01917b4: 00 00                        	addb	%al, (%eax)
c01917b6: 00 00                        	addb	%al, (%eax)
c01917b8: 44                           	incl	%esp
c01917b9: 00 28                        	addb	%ch, (%eax)
c01917bb: 00 59 00                     	addb	%bl, (%ecx)
c01917be: 00 00                        	addb	%al, (%eax)
c01917c0: 00 00                        	addb	%al, (%eax)
c01917c2: 00 00                        	addb	%al, (%eax)
c01917c4: 44                           	incl	%esp
c01917c5: 00 28                        	addb	%ch, (%eax)
c01917c7: 00 63 00                     	addb	%ah, (%ebx)
c01917ca: 00 00                        	addb	%al, (%eax)
c01917cc: 00 00                        	addb	%al, (%eax)
c01917ce: 00 00                        	addb	%al, (%eax)
c01917d0: 44                           	incl	%esp
c01917d1: 00 29                        	addb	%ch, (%ecx)
c01917d3: 00 68 00                     	addb	%ch, (%eax)
c01917d6: 00 00                        	addb	%al, (%eax)
c01917d8: 00 00                        	addb	%al, (%eax)
c01917da: 00 00                        	addb	%al, (%eax)
c01917dc: 44                           	incl	%esp
c01917dd: 00 29                        	addb	%ch, (%ecx)
c01917df: 00 70 00                     	addb	%dh, (%eax)
c01917e2: 00 00                        	addb	%al, (%eax)
c01917e4: 00 00                        	addb	%al, (%eax)
c01917e6: 00 00                        	addb	%al, (%eax)
c01917e8: 44                           	incl	%esp
c01917e9: 00 2a                        	addb	%ch, (%edx)
c01917eb: 00 78 00                     	addb	%bh, (%eax)
c01917ee: 00 00                        	addb	%al, (%eax)
c01917f0: 00 00                        	addb	%al, (%eax)
c01917f2: 00 00                        	addb	%al, (%eax)
c01917f4: 44                           	incl	%esp
c01917f5: 00 2a                        	addb	%ch, (%edx)
c01917f7: 00 7e 00                     	addb	%bh, (%esi)
c01917fa: 00 00                        	addb	%al, (%eax)
c01917fc: 00 00                        	addb	%al, (%eax)
c01917fe: 00 00                        	addb	%al, (%eax)
c0191800: 44                           	incl	%esp
c0191801: 00 2a                        	addb	%ch, (%edx)
c0191803: 00 84 00 00 00 00 00         	addb	%al, (%eax,%eax)
c019180a: 00 00                        	addb	%al, (%eax)
c019180c: 44                           	incl	%esp
c019180d: 00 2b                        	addb	%ch, (%ebx)
c019180f: 00 89 00 00 00 00            	addb	%cl, (%ecx)
c0191815: 00 00                        	addb	%al, (%eax)
c0191817: 00 44 00 2d                  	addb	%al, 45(%eax,%eax)
c019181b: 00 90 00 00 00 00            	addb	%dl, (%eax)
c0191821: 00 00                        	addb	%al, (%eax)
c0191823: 00 44 00 2e                  	addb	%al, 46(%eax,%eax)
c0191827: 00 96 00 00 00 00            	addb	%dl, (%esi)
c019182d: 00 00                        	addb	%al, (%eax)
c019182f: 00 44 00 2f                  	addb	%al, 47(%eax,%eax)
c0191833: 00 98 00 00 00 00            	addb	%bl, (%eax)
c0191839: 00 00                        	addb	%al, (%eax)
c019183b: 00 44 00 30                  	addb	%al, 48(%eax,%eax)
c019183f: 00 a6 00 00 00 00            	addb	%ah, (%esi)
c0191845: 00 00                        	addb	%al, (%eax)
c0191847: 00 44 00 31                  	addb	%al, 49(%eax,%eax)
c019184b: 00 ad 00 00 00 00            	addb	%ch, (%ebp)
c0191851: 00 00                        	addb	%al, (%eax)
c0191853: 00 44 00 2e                  	addb	%al, 46(%eax,%eax)
c0191857: 00 ba 00 00 00 00            	addb	%bh, (%edx)
c019185d: 00 00                        	addb	%al, (%eax)
c019185f: 00 44 00 2e                  	addb	%al, 46(%eax,%eax)
c0191863: 00 c2                        	addb	%al, %dl
c0191865: 00 00                        	addb	%al, (%eax)
c0191867: 00 00                        	addb	%al, (%eax)
c0191869: 00 00                        	addb	%al, (%eax)
c019186b: 00 44 00 2e                  	addb	%al, 46(%eax,%eax)
c019186f: 00 c7                        	addb	%al, %bh
c0191871: 00 00                        	addb	%al, (%eax)
c0191873: 00 00                        	addb	%al, (%eax)
c0191875: 00 00                        	addb	%al, (%eax)
c0191877: 00 44 00 25                  	addb	%al, 37(%eax,%eax)
c019187b: 00 ce                        	addb	%cl, %dh
c019187d: 00 00                        	addb	%al, (%eax)
c019187f: 00 00                        	addb	%al, (%eax)
c0191881: 00 00                        	addb	%al, (%eax)
c0191883: 00 44 00 25                  	addb	%al, 37(%eax,%eax)
c0191887: 00 d2                        	addb	%dl, %dl
c0191889: 00 00                        	addb	%al, (%eax)
c019188b: 00 00                        	addb	%al, (%eax)
c019188d: 00 00                        	addb	%al, (%eax)
c019188f: 00 44 00 36                  	addb	%al, 54(%eax,%eax)
c0191893: 00 de                        	addb	%bl, %dh
c0191895: 00 00                        	addb	%al, (%eax)
c0191897: 00 00                        	addb	%al, (%eax)
c0191899: 00 00                        	addb	%al, (%eax)
c019189b: 00 44 00 37                  	addb	%al, 55(%eax,%eax)
c019189f: 00 ee                        	addb	%ch, %dh
c01918a1: 00 00                        	addb	%al, (%eax)
c01918a3: 00 00                        	addb	%al, (%eax)
c01918a5: 00 00                        	addb	%al, (%eax)
c01918a7: 00 44 00 38                  	addb	%al, 56(%eax,%eax)
c01918ab: 00 fe                        	addb	%bh, %dh
c01918ad: 00 00                        	addb	%al, (%eax)
c01918af: 00 00                        	addb	%al, (%eax)
c01918b1: 00 00                        	addb	%al, (%eax)
c01918b3: 00 44 00 39                  	addb	%al, 57(%eax,%eax)
c01918b7: 00 03                        	addb	%al, (%ebx)
c01918b9: 01 00                        	addl	%eax, (%eax)
c01918bb: 00 00                        	addb	%al, (%eax)
c01918bd: 00 00                        	addb	%al, (%eax)
c01918bf: 00 44 00 3a                  	addb	%al, 58(%eax,%eax)
c01918c3: 00 19                        	addb	%bl, (%ecx)
c01918c5: 01 00                        	addl	%eax, (%eax)
c01918c7: 00 00                        	addb	%al, (%eax)
c01918c9: 00 00                        	addb	%al, (%eax)
c01918cb: 00 44 00 3b                  	addb	%al, 59(%eax,%eax)
c01918cf: 00 37                        	addb	%dh, (%edi)
c01918d1: 01 00                        	addl	%eax, (%eax)
c01918d3: 00 00                        	addb	%al, (%eax)
c01918d5: 00 00                        	addb	%al, (%eax)
c01918d7: 00 44 00 3c                  	addb	%al, 60(%eax,%eax)
c01918db: 00 47 01                     	addb	%al, 1(%edi)
c01918de: 00 00                        	addb	%al, (%eax)
c01918e0: 2d 11 00 00 80               	subl	$2147483665, %eax
c01918e5: 00 1f                        	addb	%bl, (%edi)
c01918e7: 00 e4                        	addb	%ah, %ah
c01918e9: ff ff                        	<unknown>
c01918eb: ff 50 11                     	calll	*17(%eax)
c01918ee: 00 00                        	addb	%al, (%eax)
c01918f0: 80 00 45                     	addb	$69, (%eax)
c01918f3: 00 00                        	addb	%al, (%eax)
c01918f5: 00 00                        	addb	%al, (%eax)
c01918f7: 00 64 11 00                  	addb	%ah, (%ecx,%edx)
c01918fb: 00 80 00 20 00 e0            	addb	%al, -536862720(%eax)
c0191901: ff ff                        	<unknown>
c0191903: ff 78 11                     	<unknown>
c0191906: 00 00                        	addb	%al, (%eax)
c0191908: 80 00 22                     	addb	$34, (%eax)
c019190b: 00 f4                        	addb	%dh, %ah
c019190d: ff ff                        	<unknown>
c019190f: ff 8f 11 00 00 80            	decl	-2147483631(%edi)
c0191915: 00 23                        	addb	%ah, (%ebx)
c0191917: 00 f0                        	addb	%dh, %al
c0191919: ff ff                        	<unknown>
c019191b: ff 00                        	incl	(%eax)
c019191d: 00 00                        	addb	%al, (%eax)
c019191f: 00 c0                        	addb	%al, %al
c0191921: 00 00                        	addb	%al, (%eax)
c0191923: 00 00                        	addb	%al, (%eax)
c0191925: 00 00                        	addb	%al, (%eax)
c0191927: 00 a4 11 00 00 80 00         	addb	%ah, 8388608(%ecx,%edx)
c019192e: 25 00 ec ff ff               	andl	$4294962176, %eax
c0191933: ff 00                        	incl	(%eax)
c0191935: 00 00                        	addb	%al, (%eax)
c0191937: 00 c0                        	addb	%al, %al
c0191939: 00 00                        	addb	%al, (%eax)
c019193b: 00 2c 00                     	addb	%ch, (%eax,%eax)
c019193e: 00 00                        	addb	%al, (%eax)
c0191940: af                           	scasl	%es:(%edi), %eax
c0191941: 11 00                        	adcl	%eax, (%eax)
c0191943: 00 80 00 2d 00 e8            	addb	%al, -402641664(%eax)
c0191949: ff ff                        	<unknown>
c019194b: ff 00                        	incl	(%eax)
c019194d: 00 00                        	addb	%al, (%eax)
c019194f: 00 c0                        	addb	%al, %al
c0191951: 00 00                        	addb	%al, (%eax)
c0191953: 00 53 00                     	addb	%dl, (%ebx)
c0191956: 00 00                        	addb	%al, (%eax)
c0191958: 00 00                        	addb	%al, (%eax)
c019195a: 00 00                        	addb	%al, (%eax)
c019195c: e0 00                        	loopne	0xc019195e <.stab+0x295e>
c019195e: 00 00                        	addb	%al, (%eax)
c0191960: ce                           	into
c0191961: 00 00                        	addb	%al, (%eax)
c0191963: 00 00                        	addb	%al, (%eax)
c0191965: 00 00                        	addb	%al, (%eax)
c0191967: 00 e0                        	addb	%ah, %al
c0191969: 00 00                        	addb	%al, (%eax)
c019196b: 00 de                        	addb	%bl, %dh
c019196d: 00 00                        	addb	%al, (%eax)
c019196f: 00 00                        	addb	%al, (%eax)
c0191971: 00 00                        	addb	%al, (%eax)
c0191973: 00 e0                        	addb	%ah, %al
c0191975: 00 00                        	addb	%al, (%eax)
c0191977: 00 4a 01                     	addb	%cl, 1(%edx)
c019197a: 00 00                        	addb	%al, (%eax)
c019197c: 00 00                        	addb	%al, (%eax)
c019197e: 00 00                        	addb	%al, (%eax)
c0191980: 24 00                        	andb	$0, %al
c0191982: 00 00                        	addb	%al, (%eax)
c0191984: 4a                           	decl	%edx
c0191985: 01 00                        	addl	%eax, (%eax)
c0191987: 00 c0                        	addb	%al, %al
c0191989: 11 00                        	adcl	%eax, (%eax)
c019198b: 00 24 00                     	addb	%ah, (%eax,%eax)
c019198e: 3e 00 0a                     	addb	%cl, %ds:(%edx)
c0191991: 20 10                        	andb	%dl, (%eax)
c0191993: c0 00 00                     	rolb	$0, (%eax)
c0191996: 00 00                        	addb	%al, (%eax)
c0191998: 44                           	incl	%esp
c0191999: 00 3f                        	addb	%bh, (%edi)
		...
c01919a3: 00 44 00 43                  	addb	%al, 67(%eax,%eax)
c01919a7: 00 06                        	addb	%al, (%esi)
c01919a9: 00 00                        	addb	%al, (%eax)
c01919ab: 00 00                        	addb	%al, (%eax)
c01919ad: 00 00                        	addb	%al, (%eax)
c01919af: 00 44 00 43                  	addb	%al, 67(%eax,%eax)
c01919b3: 00 14 00                     	addb	%dl, (%eax,%eax)
c01919b6: 00 00                        	addb	%al, (%eax)
c01919b8: 00 00                        	addb	%al, (%eax)
c01919ba: 00 00                        	addb	%al, (%eax)
c01919bc: 44                           	incl	%esp
c01919bd: 00 44 00 1e                  	addb	%al, 30(%eax,%eax)
c01919c1: 00 00                        	addb	%al, (%eax)
c01919c3: 00 00                        	addb	%al, (%eax)
c01919c5: 00 00                        	addb	%al, (%eax)
c01919c7: 00 44 00 45                  	addb	%al, 69(%eax,%eax)
c01919cb: 00 21                        	addb	%ah, (%ecx)
c01919cd: 00 00                        	addb	%al, (%eax)
c01919cf: 00 d3                        	addb	%dl, %bl
c01919d1: 11 00                        	adcl	%eax, (%eax)
c01919d3: 00 80 00 43 00 fc            	addb	%al, -67091712(%eax)
c01919d9: ff ff                        	<unknown>
c01919db: ff 00                        	incl	(%eax)
c01919dd: 00 00                        	addb	%al, (%eax)
c01919df: 00 c0                        	addb	%al, %al
		...
c01919e9: 00 00                        	addb	%al, (%eax)
c01919eb: 00 e0                        	addb	%ah, %al
c01919ed: 00 00                        	addb	%al, (%eax)
c01919ef: 00 23                        	addb	%ah, (%ebx)
c01919f1: 00 00                        	addb	%al, (%eax)
c01919f3: 00 00                        	addb	%al, (%eax)
c01919f5: 00 00                        	addb	%al, (%eax)
c01919f7: 00 24 00                     	addb	%ah, (%eax,%eax)
c01919fa: 00 00                        	addb	%al, (%eax)
c01919fc: 23 00                        	andl	(%eax), %eax
c01919fe: 00 00                        	addb	%al, (%eax)
c0191a00: db 11                        	fistl	(%ecx)
c0191a02: 00 00                        	addb	%al, (%eax)
c0191a04: 24 00                        	andb	$0, %al
c0191a06: 47                           	incl	%edi
c0191a07: 00 2d 20 10 c0 ed            	addb	%ch, -306180064
c0191a0d: 11 00                        	adcl	%eax, (%eax)
c0191a0f: 00 a0 00 47 00 08            	addb	%ah, 134235904(%eax)
c0191a15: 00 00                        	addb	%al, (%eax)
c0191a17: 00 00                        	addb	%al, (%eax)
c0191a19: 00 00                        	addb	%al, (%eax)
c0191a1b: 00 44 00 48                  	addb	%al, 72(%eax,%eax)
		...
c0191a27: 00 44 00 49                  	addb	%al, 73(%eax,%eax)
c0191a2b: 00 06                        	addb	%al, (%esi)
c0191a2d: 00 00                        	addb	%al, (%eax)
c0191a2f: 00 00                        	addb	%al, (%eax)
c0191a31: 00 00                        	addb	%al, (%eax)
c0191a33: 00 44 00 49                  	addb	%al, 73(%eax,%eax)
c0191a37: 00 0e                        	addb	%cl, (%esi)
c0191a39: 00 00                        	addb	%al, (%eax)
c0191a3b: 00 00                        	addb	%al, (%eax)
c0191a3d: 00 00                        	addb	%al, (%eax)
c0191a3f: 00 44 00 49                  	addb	%al, 73(%eax,%eax)
c0191a43: 00 13                        	addb	%dl, (%ebx)
c0191a45: 00 00                        	addb	%al, (%eax)
c0191a47: 00 00                        	addb	%al, (%eax)
c0191a49: 00 00                        	addb	%al, (%eax)
c0191a4b: 00 44 00 49                  	addb	%al, 73(%eax,%eax)
c0191a4f: 00 18                        	addb	%bl, (%eax)
c0191a51: 00 00                        	addb	%al, (%eax)
c0191a53: 00 00                        	addb	%al, (%eax)
c0191a55: 00 00                        	addb	%al, (%eax)
c0191a57: 00 44 00 4a                  	addb	%al, 74(%eax,%eax)
c0191a5b: 00 22                        	addb	%ah, (%edx)
c0191a5d: 00 00                        	addb	%al, (%eax)
c0191a5f: 00 00                        	addb	%al, (%eax)
c0191a61: 00 00                        	addb	%al, (%eax)
c0191a63: 00 44 00 4a                  	addb	%al, 74(%eax,%eax)
c0191a67: 00 27                        	addb	%ah, (%edi)
c0191a69: 00 00                        	addb	%al, (%eax)
c0191a6b: 00 00                        	addb	%al, (%eax)
c0191a6d: 00 00                        	addb	%al, (%eax)
c0191a6f: 00 44 00 4b                  	addb	%al, 75(%eax,%eax)
c0191a73: 00 2e                        	addb	%ch, (%esi)
c0191a75: 00 00                        	addb	%al, (%eax)
c0191a77: 00 00                        	addb	%al, (%eax)
c0191a79: 00 00                        	addb	%al, (%eax)
c0191a7b: 00 44 00 4d                  	addb	%al, 77(%eax,%eax)
c0191a7f: 00 3e                        	addb	%bh, (%esi)
c0191a81: 00 00                        	addb	%al, (%eax)
c0191a83: 00 00                        	addb	%al, (%eax)
c0191a85: 00 00                        	addb	%al, (%eax)
c0191a87: 00 24 00                     	addb	%ah, (%eax,%eax)
c0191a8a: 00 00                        	addb	%al, (%eax)
c0191a8c: 41                           	incl	%ecx
c0191a8d: 00 00                        	addb	%al, (%eax)
c0191a8f: 00 00                        	addb	%al, (%eax)
c0191a91: 00 00                        	addb	%al, (%eax)
c0191a93: 00 64 00 00                  	addb	%ah, (%eax,%eax)
c0191a97: 00 6e 20                     	addb	%ch, 32(%esi)
c0191a9a: 10 c0                        	adcb	%al, %al
c0191a9c: 30 00                        	xorb	%al, (%eax)
c0191a9e: 00 00                        	addb	%al, (%eax)
c0191aa0: 64 00 02                     	addb	%al, %fs:(%edx)
c0191aa3: 00 6e 20                     	addb	%ch, 32(%esi)
c0191aa6: 10 c0                        	adcb	%al, %al
c0191aa8: f6 11                        	notb	(%ecx)
c0191aaa: 00 00                        	addb	%al, (%eax)
c0191aac: 64 00 02                     	addb	%al, %fs:(%edx)
c0191aaf: 00 6e 20                     	addb	%ch, 32(%esi)
c0191ab2: 10 c0                        	adcb	%al, %al
c0191ab4: 63 00                        	arpl	%ax, (%eax)
c0191ab6: 00 00                        	addb	%al, (%eax)
c0191ab8: 3c 00                        	cmpb	$0, %al
c0191aba: 00 00                        	addb	%al, (%eax)
c0191abc: 00 00                        	addb	%al, (%eax)
c0191abe: 00 00                        	addb	%al, (%eax)
c0191ac0: 03 12                        	addl	(%edx), %edx
c0191ac2: 00 00                        	addb	%al, (%eax)
c0191ac4: 20 00                        	andb	%al, (%eax)
c0191ac6: 0a 00                        	orb	(%eax), %al
c0191ac8: 00 00                        	addb	%al, (%eax)
c0191aca: 00 00                        	addb	%al, (%eax)
c0191acc: 62 12                        	bound	%edx, (%edx)
c0191ace: 00 00                        	addb	%al, (%eax)
c0191ad0: 80 00 07                     	addb	$7, (%eax)
c0191ad3: 00 00                        	addb	%al, (%eax)
c0191ad5: 00 00                        	addb	%al, (%eax)
c0191ad7: 00 45 09                     	addb	%al, 9(%ebp)
c0191ada: 00 00                        	addb	%al, (%eax)
c0191adc: 80 00 00                     	addb	$0, (%eax)
c0191adf: 00 00                        	addb	%al, (%eax)
c0191ae1: 00 00                        	addb	%al, (%eax)
c0191ae3: 00 78 12                     	addb	%bh, 18(%eax)
c0191ae6: 00 00                        	addb	%al, (%eax)
c0191ae8: 24 00                        	andb	$0, %al
c0191aea: 0c 00                        	orb	$0, %al
c0191aec: 6e                           	outsb	(%esi), %dx
c0191aed: 20 10                        	andb	%dl, (%eax)
c0191aef: c0 95 12 00 00 a0 00         	rclb	$0, -1610612718(%ebp)
c0191af6: 0c 00                        	orb	$0, %al
c0191af8: 08 00                        	orb	%al, (%eax)
c0191afa: 00 00                        	addb	%al, (%eax)
c0191afc: bf 12 00 00 a0               	movl	$2684354578, %edi
c0191b01: 00 0c 00                     	addb	%cl, (%eax,%eax)
c0191b04: 0c 00                        	orb	$0, %al
c0191b06: 00 00                        	addb	%al, (%eax)
c0191b08: bd 09 00 00 80               	movl	$2147483657, %ebp
		...
c0191b15: 00 00                        	addb	%al, (%eax)
c0191b17: 00 44 00 0d                  	addb	%al, 13(%eax,%eax)
		...
c0191b23: 00 44 00 0e                  	addb	%al, 14(%eax,%eax)
c0191b27: 00 0c 00                     	addb	%cl, (%eax,%eax)
c0191b2a: 00 00                        	addb	%al, (%eax)
c0191b2c: 00 00                        	addb	%al, (%eax)
c0191b2e: 00 00                        	addb	%al, (%eax)
c0191b30: 44                           	incl	%esp
c0191b31: 00 0e                        	addb	%cl, (%esi)
c0191b33: 00 10                        	addb	%dl, (%eax)
c0191b35: 00 00                        	addb	%al, (%eax)
c0191b37: 00 00                        	addb	%al, (%eax)
c0191b39: 00 00                        	addb	%al, (%eax)
c0191b3b: 00 44 00 0f                  	addb	%al, 15(%eax,%eax)
c0191b3f: 00 1a                        	addb	%bl, (%edx)
c0191b41: 00 00                        	addb	%al, (%eax)
c0191b43: 00 ce                        	addb	%cl, %dh
c0191b45: 12 00                        	adcb	(%eax), %al
c0191b47: 00 80 00 0c 00 fc            	addb	%al, -67105792(%eax)
c0191b4d: ff ff                        	<unknown>
c0191b4f: ff f0                        	pushl	%eax
c0191b51: 12 00                        	adcb	(%eax), %al
c0191b53: 00 80 00 1f 00 00            	addb	%al, 7936(%eax)
c0191b59: 00 00                        	addb	%al, (%eax)
c0191b5b: 00 ff                        	addb	%bh, %bh
c0191b5d: 12 00                        	adcb	(%eax), %al
c0191b5f: 00 80 00 00 00 00            	addb	%al, (%eax)
c0191b65: 00 00                        	addb	%al, (%eax)
c0191b67: 00 00                        	addb	%al, (%eax)
c0191b69: 00 00                        	addb	%al, (%eax)
c0191b6b: 00 24 00                     	addb	%ah, (%eax,%eax)
c0191b6e: 00 00                        	addb	%al, (%eax)
c0191b70: 1d 00 00 00 14               	sbbl	$335544320, %eax
c0191b75: 13 00                        	adcl	(%eax), %eax
c0191b77: 00 24 00                     	addb	%ah, (%eax,%eax)
c0191b7a: 11 00                        	adcl	%eax, (%eax)
c0191b7c: 8b 20                        	movl	(%eax), %esp
c0191b7e: 10 c0                        	adcb	%al, %al
c0191b80: 27                           	daa
c0191b81: 13 00                        	adcl	(%eax), %eax
c0191b83: 00 a0 00 11 00 08            	addb	%ah, 134222080(%eax)
c0191b89: 00 00                        	addb	%al, (%eax)
c0191b8b: 00 50 13                     	addb	%dl, 19(%eax)
c0191b8e: 00 00                        	addb	%al, (%eax)
c0191b90: 80 00 00                     	addb	$0, (%eax)
c0191b93: 00 00                        	addb	%al, (%eax)
c0191b95: 00 00                        	addb	%al, (%eax)
c0191b97: 00 ae 14 00 00 80            	addb	%ch, -2147483628(%esi)
c0191b9d: 00 1b                        	addb	%bl, (%ebx)
c0191b9f: 00 00                        	addb	%al, (%eax)
c0191ba1: 00 00                        	addb	%al, (%eax)
c0191ba3: 00 bf 14 00 00 80            	addb	%bh, -2147483628(%edi)
		...
c0191bb1: 00 00                        	addb	%al, (%eax)
c0191bb3: 00 44 00 12                  	addb	%al, 18(%eax,%eax)
		...
c0191bbf: 00 44 00 13                  	addb	%al, 19(%eax,%eax)
c0191bc3: 00 06                        	addb	%al, (%esi)
c0191bc5: 00 00                        	addb	%al, (%eax)
c0191bc7: 00 00                        	addb	%al, (%eax)
c0191bc9: 00 00                        	addb	%al, (%eax)
c0191bcb: 00 44 00 14                  	addb	%al, 20(%eax,%eax)
c0191bcf: 00 0f                        	addb	%cl, (%edi)
c0191bd1: 00 00                        	addb	%al, (%eax)
c0191bd3: 00 00                        	addb	%al, (%eax)
c0191bd5: 00 00                        	addb	%al, (%eax)
c0191bd7: 00 44 00 14                  	addb	%al, 20(%eax,%eax)
c0191bdb: 00 19                        	addb	%bl, (%ecx)
c0191bdd: 00 00                        	addb	%al, (%eax)
c0191bdf: 00 00                        	addb	%al, (%eax)
c0191be1: 00 00                        	addb	%al, (%eax)
c0191be3: 00 44 00 15                  	addb	%al, 21(%eax,%eax)
c0191be7: 00 1d 00 00 00 00            	addb	%bl, 0
c0191bed: 00 00                        	addb	%al, (%eax)
c0191bef: 00 44 00 15                  	addb	%al, 21(%eax,%eax)
c0191bf3: 00 27                        	addb	%ah, (%edi)
c0191bf5: 00 00                        	addb	%al, (%eax)
c0191bf7: 00 00                        	addb	%al, (%eax)
c0191bf9: 00 00                        	addb	%al, (%eax)
c0191bfb: 00 44 00 1a                  	addb	%al, 26(%eax,%eax)
c0191bff: 00 32                        	addb	%dh, (%edx)
c0191c01: 00 00                        	addb	%al, (%eax)
c0191c03: 00 00                        	addb	%al, (%eax)
c0191c05: 00 00                        	addb	%al, (%eax)
c0191c07: 00 44 00 18                  	addb	%al, 24(%eax,%eax)
c0191c0b: 00 34 00                     	addb	%dh, (%eax,%eax)
c0191c0e: 00 00                        	addb	%al, (%eax)
c0191c10: 00 00                        	addb	%al, (%eax)
c0191c12: 00 00                        	addb	%al, (%eax)
c0191c14: 44                           	incl	%esp
c0191c15: 00 1a                        	addb	%bl, (%edx)
c0191c17: 00 47 00                     	addb	%al, (%edi)
c0191c1a: 00 00                        	addb	%al, (%eax)
c0191c1c: d4 14                        	aam	$20
c0191c1e: 00 00                        	addb	%al, (%eax)
c0191c20: 80 00 13                     	addb	$19, (%eax)
c0191c23: 00 f4                        	addb	%dh, %ah
c0191c25: ff ff                        	<unknown>
c0191c27: ff 00                        	incl	(%eax)
c0191c29: 00 00                        	addb	%al, (%eax)
c0191c2b: 00 c0                        	addb	%al, %al
		...
c0191c35: 00 00                        	addb	%al, (%eax)
c0191c37: 00 e0                        	addb	%ah, %al
c0191c39: 00 00                        	addb	%al, (%eax)
c0191c3b: 00 4a 00                     	addb	%cl, (%edx)
c0191c3e: 00 00                        	addb	%al, (%eax)
c0191c40: 00 00                        	addb	%al, (%eax)
c0191c42: 00 00                        	addb	%al, (%eax)
c0191c44: 24 00                        	andb	$0, %al
c0191c46: 00 00                        	addb	%al, (%eax)
c0191c48: 4a                           	decl	%edx
c0191c49: 00 00                        	addb	%al, (%eax)
c0191c4b: 00 e3                        	addb	%ah, %bl
c0191c4d: 14 00                        	adcb	$0, %al
c0191c4f: 00 24 00                     	addb	%ah, (%eax,%eax)
c0191c52: 1c 00                        	sbbb	$0, %al
c0191c54: d5 20                        	aad	$32
c0191c56: 10 c0                        	adcb	%al, %al
c0191c58: f6 14 00                     	notb	(%eax,%eax)
c0191c5b: 00 a0 00 1c 00 08            	addb	%ah, 134224896(%eax)
c0191c61: 00 00                        	addb	%al, (%eax)
c0191c63: 00 00                        	addb	%al, (%eax)
c0191c65: 00 00                        	addb	%al, (%eax)
c0191c67: 00 44 00 1d                  	addb	%al, 29(%eax,%eax)
		...
c0191c73: 00 44 00 1e                  	addb	%al, 30(%eax,%eax)
c0191c77: 00 06                        	addb	%al, (%esi)
c0191c79: 00 00                        	addb	%al, (%eax)
c0191c7b: 00 00                        	addb	%al, (%eax)
c0191c7d: 00 00                        	addb	%al, (%eax)
c0191c7f: 00 44 00 20                  	addb	%al, 32(%eax,%eax)
c0191c83: 00 0f                        	addb	%cl, (%edi)
c0191c85: 00 00                        	addb	%al, (%eax)
c0191c87: 00 00                        	addb	%al, (%eax)
c0191c89: 00 00                        	addb	%al, (%eax)
c0191c8b: 00 44 00 22                  	addb	%al, 34(%eax,%eax)
c0191c8f: 00 1d 00 00 00 00            	addb	%bl, 0
c0191c95: 00 00                        	addb	%al, (%eax)
c0191c97: 00 44 00 22                  	addb	%al, 34(%eax,%eax)
c0191c9b: 00 27                        	addb	%ah, (%edi)
c0191c9d: 00 00                        	addb	%al, (%eax)
c0191c9f: 00 00                        	addb	%al, (%eax)
c0191ca1: 00 00                        	addb	%al, (%eax)
c0191ca3: 00 44 00 23                  	addb	%al, 35(%eax,%eax)
c0191ca7: 00 2b                        	addb	%ch, (%ebx)
c0191ca9: 00 00                        	addb	%al, (%eax)
c0191cab: 00 00                        	addb	%al, (%eax)
c0191cad: 00 00                        	addb	%al, (%eax)
c0191caf: 00 44 00 23                  	addb	%al, 35(%eax,%eax)
c0191cb3: 00 35 00 00 00 00            	addb	%dh, 0
c0191cb9: 00 00                        	addb	%al, (%eax)
c0191cbb: 00 44 00 28                  	addb	%al, 40(%eax,%eax)
c0191cbf: 00 40 00                     	addb	%al, (%eax)
c0191cc2: 00 00                        	addb	%al, (%eax)
c0191cc4: 00 00                        	addb	%al, (%eax)
c0191cc6: 00 00                        	addb	%al, (%eax)
c0191cc8: 44                           	incl	%esp
c0191cc9: 00 26                        	addb	%ah, (%esi)
c0191ccb: 00 42 00                     	addb	%al, (%edx)
c0191cce: 00 00                        	addb	%al, (%eax)
c0191cd0: 00 00                        	addb	%al, (%eax)
c0191cd2: 00 00                        	addb	%al, (%eax)
c0191cd4: 44                           	incl	%esp
c0191cd5: 00 28                        	addb	%ch, (%eax)
c0191cd7: 00 55 00                     	addb	%dl, (%ebp)
c0191cda: 00 00                        	addb	%al, (%eax)
c0191cdc: d4 14                        	aam	$20
c0191cde: 00 00                        	addb	%al, (%eax)
c0191ce0: 80 00 1e                     	addb	$30, (%eax)
c0191ce3: 00 f4                        	addb	%dh, %ah
c0191ce5: ff ff                        	<unknown>
c0191ce7: ff 00                        	incl	(%eax)
c0191ce9: 00 00                        	addb	%al, (%eax)
c0191ceb: 00 c0                        	addb	%al, %al
		...
c0191cf5: 00 00                        	addb	%al, (%eax)
c0191cf7: 00 e0                        	addb	%ah, %al
c0191cf9: 00 00                        	addb	%al, (%eax)
c0191cfb: 00 58 00                     	addb	%bl, (%eax)
c0191cfe: 00 00                        	addb	%al, (%eax)
c0191d00: 00 00                        	addb	%al, (%eax)
c0191d02: 00 00                        	addb	%al, (%eax)
c0191d04: 24 00                        	andb	$0, %al
c0191d06: 00 00                        	addb	%al, (%eax)
c0191d08: 58                           	popl	%eax
c0191d09: 00 00                        	addb	%al, (%eax)
c0191d0b: 00 00                        	addb	%al, (%eax)
c0191d0d: 00 00                        	addb	%al, (%eax)
c0191d0f: 00 64 00 00                  	addb	%ah, (%eax,%eax)
c0191d13: 00 2d 21 10 c0 30            	addb	%ch, 817893409
c0191d19: 00 00                        	addb	%al, (%eax)
c0191d1b: 00 64 00 02                  	addb	%ah, 2(%eax,%eax)
c0191d1f: 00 2d 21 10 c0 03            	addb	%ch, 62918689
c0191d25: 15 00 00 64 00               	adcl	$6553600, %eax
c0191d2a: 02 00                        	addb	(%eax), %al
c0191d2c: 2d 21 10 c0 63               	subl	$1673531425, %eax
c0191d31: 00 00                        	addb	%al, (%eax)
c0191d33: 00 3c 00                     	addb	%bh, (%eax,%eax)
c0191d36: 00 00                        	addb	%al, (%eax)
c0191d38: 00 00                        	addb	%al, (%eax)
c0191d3a: 00 00                        	addb	%al, (%eax)
c0191d3c: 13 15 00 00 24 00            	adcl	2359296, %edx
c0191d42: 07                           	popl	%es
c0191d43: 00 2d 21 10 c0 d0            	addb	%ch, -792719327
c0191d49: 05 00 00 80 00               	addl	$8388608, %eax
c0191d4e: 00 00                        	addb	%al, (%eax)
c0191d50: 00 00                        	addb	%al, (%eax)
c0191d52: 00 00                        	addb	%al, (%eax)
c0191d54: 28 15 00 00 a0 00            	subb	%dl, 10485760
c0191d5a: 07                           	popl	%es
c0191d5b: 00 08                        	addb	%cl, (%eax)
c0191d5d: 00 00                        	addb	%al, (%eax)
c0191d5f: 00 4f 15                     	addb	%cl, 21(%edi)
c0191d62: 00 00                        	addb	%al, (%eax)
c0191d64: 80 00 00                     	addb	$0, (%eax)
		...
c0191d6f: 00 44 00 08                  	addb	%al, 8(%eax,%eax)
		...
c0191d7b: 00 44 00 0d                  	addb	%al, 13(%eax,%eax)
c0191d7f: 00 06                        	addb	%al, (%esi)
c0191d81: 00 00                        	addb	%al, (%eax)
c0191d83: 00 00                        	addb	%al, (%eax)
c0191d85: 00 00                        	addb	%al, (%eax)
c0191d87: 00 44 00 0e                  	addb	%al, 14(%eax,%eax)
c0191d8b: 00 0c 00                     	addb	%cl, (%eax,%eax)
c0191d8e: 00 00                        	addb	%al, (%eax)
c0191d90: 00 00                        	addb	%al, (%eax)
c0191d92: 00 00                        	addb	%al, (%eax)
c0191d94: 44                           	incl	%esp
c0191d95: 00 11                        	addb	%dl, (%ecx)
c0191d97: 00 26                        	addb	%ah, (%esi)
c0191d99: 00 00                        	addb	%al, (%eax)
c0191d9b: 00 00                        	addb	%al, (%eax)
c0191d9d: 00 00                        	addb	%al, (%eax)
c0191d9f: 00 44 00 13                  	addb	%al, 19(%eax,%eax)
c0191da3: 00 31                        	addb	%dh, (%ecx)
c0191da5: 00 00                        	addb	%al, (%eax)
c0191da7: 00 00                        	addb	%al, (%eax)
c0191da9: 00 00                        	addb	%al, (%eax)
c0191dab: 00 44 00 14                  	addb	%al, 20(%eax,%eax)
c0191daf: 00 41 00                     	addb	%al, (%ecx)
c0191db2: 00 00                        	addb	%al, (%eax)
c0191db4: 5b                           	popl	%ebx
c0191db5: 15 00 00 28 00               	adcl	$2621440, %eax
c0191dba: 09 00                        	orl	%eax, (%eax)
c0191dbc: c0 dc 18                     	rcrb	$24, %ah
c0191dbf: c0 92 15 00 00 80 00         	rclb	$0, -2147483627(%edx)
c0191dc6: 0a 00                        	orb	(%eax), %al
c0191dc8: f0                           	lock
c0191dc9: ff ff                        	<unknown>
c0191dcb: ff aa 15 00 00 80            	ljmpl	*-2147483627(%edx)
c0191dd1: 00 04 00                     	addb	%al, (%eax,%eax)
c0191dd4: 00 00                        	addb	%al, (%eax)
c0191dd6: 00 00                        	addb	%al, (%eax)
c0191dd8: b9 15 00 00 80               	movl	$2147483669, %ecx
c0191ddd: 00 00                        	addb	%al, (%eax)
c0191ddf: 00 00                        	addb	%al, (%eax)
c0191de1: 00 00                        	addb	%al, (%eax)
c0191de3: 00 d2                        	addb	%dl, %dl
c0191de5: 15 00 00 80 00               	adcl	$8388608, %eax
c0191dea: 0b 00                        	orl	(%eax), %eax
c0191dec: f4                           	hlt
c0191ded: ff ff                        	<unknown>
c0191def: ff f9                        	<unknown>
c0191df1: 15 00 00 80 00               	adcl	$8388608, %eax
		...
c0191dfe: 00 00                        	addb	%al, (%eax)
c0191e00: c0 00 00                     	rolb	$0, (%eax)
		...
c0191e0b: 00 e0                        	addb	%ah, %al
c0191e0d: 00 00                        	addb	%al, (%eax)
c0191e0f: 00 44 00 00                  	addb	%al, (%eax,%eax)
c0191e13: 00 00                        	addb	%al, (%eax)
c0191e15: 00 00                        	addb	%al, (%eax)
c0191e17: 00 24 00                     	addb	%ah, (%eax,%eax)
c0191e1a: 00 00                        	addb	%al, (%eax)
c0191e1c: 44                           	incl	%esp
c0191e1d: 00 00                        	addb	%al, (%eax)
c0191e1f: 00 04 16                     	addb	%al, (%esi,%edx)
c0191e22: 00 00                        	addb	%al, (%eax)
c0191e24: 24 00                        	andb	$0, %al
c0191e26: 16                           	pushl	%ss
c0191e27: 00 71 21                     	addb	%dh, 33(%ecx)
c0191e2a: 10 c0                        	adcb	%al, %al
c0191e2c: 12 16                        	adcb	(%esi), %dl
c0191e2e: 00 00                        	addb	%al, (%eax)
c0191e30: a0 00 16 00 08               	movb	134223360, %al
c0191e35: 00 00                        	addb	%al, (%eax)
c0191e37: 00 00                        	addb	%al, (%eax)
c0191e39: 00 00                        	addb	%al, (%eax)
c0191e3b: 00 44 00 17                  	addb	%al, 23(%eax,%eax)
		...
c0191e47: 00 44 00 1c                  	addb	%al, 28(%eax,%eax)
c0191e4b: 00 06                        	addb	%al, (%esi)
c0191e4d: 00 00                        	addb	%al, (%eax)
c0191e4f: 00 00                        	addb	%al, (%eax)
c0191e51: 00 00                        	addb	%al, (%eax)
c0191e53: 00 44 00 1d                  	addb	%al, 29(%eax,%eax)
c0191e57: 00 0c 00                     	addb	%cl, (%eax,%eax)
c0191e5a: 00 00                        	addb	%al, (%eax)
c0191e5c: 00 00                        	addb	%al, (%eax)
c0191e5e: 00 00                        	addb	%al, (%eax)
c0191e60: 44                           	incl	%esp
c0191e61: 00 20                        	addb	%ah, (%eax)
c0191e63: 00 26                        	addb	%ah, (%esi)
c0191e65: 00 00                        	addb	%al, (%eax)
c0191e67: 00 00                        	addb	%al, (%eax)
c0191e69: 00 00                        	addb	%al, (%eax)
c0191e6b: 00 44 00 22                  	addb	%al, 34(%eax,%eax)
c0191e6f: 00 31                        	addb	%dh, (%ecx)
c0191e71: 00 00                        	addb	%al, (%eax)
c0191e73: 00 00                        	addb	%al, (%eax)
c0191e75: 00 00                        	addb	%al, (%eax)
c0191e77: 00 44 00 23                  	addb	%al, 35(%eax,%eax)
c0191e7b: 00 41 00                     	addb	%al, (%ecx)
c0191e7e: 00 00                        	addb	%al, (%eax)
c0191e80: 1d 16 00 00 28               	sbbl	$671088662, %eax
c0191e85: 00 18                        	addb	%bl, (%eax)
c0191e87: 00 c0                        	addb	%al, %al
c0191e89: e0 18                        	loopne	0xc0191ea3 <.stab+0x2ea3>
c0191e8b: c0 28 16                     	shrb	$22, (%eax)
c0191e8e: 00 00                        	addb	%al, (%eax)
c0191e90: 80 00 19                     	addb	$25, (%eax)
c0191e93: 00 f0                        	addb	%dh, %al
c0191e95: ff ff                        	<unknown>
c0191e97: ff 33                        	pushl	(%ebx)
c0191e99: 16                           	pushl	%ss
c0191e9a: 00 00                        	addb	%al, (%eax)
c0191e9c: 80 00 1a                     	addb	$26, (%eax)
c0191e9f: 00 f4                        	addb	%dh, %ah
c0191ea1: ff ff                        	<unknown>
c0191ea3: ff 00                        	incl	(%eax)
c0191ea5: 00 00                        	addb	%al, (%eax)
c0191ea7: 00 c0                        	addb	%al, %al
		...
c0191eb1: 00 00                        	addb	%al, (%eax)
c0191eb3: 00 e0                        	addb	%ah, %al
c0191eb5: 00 00                        	addb	%al, (%eax)
c0191eb7: 00 44 00 00                  	addb	%al, (%eax,%eax)
c0191ebb: 00 00                        	addb	%al, (%eax)
c0191ebd: 00 00                        	addb	%al, (%eax)
c0191ebf: 00 24 00                     	addb	%ah, (%eax,%eax)
c0191ec2: 00 00                        	addb	%al, (%eax)
c0191ec4: 44                           	incl	%esp
c0191ec5: 00 00                        	addb	%al, (%eax)
c0191ec7: 00 1d 16 00 00 28            	addb	%bl, 671088662
c0191ecd: 00 09                        	addb	%cl, (%ecx)
c0191ecf: 00 c0                        	addb	%al, %al
c0191ed1: dc 18                        	fcompl	(%eax)
c0191ed3: c0 1d 16 00 00 28 00         	rcrb	$0, 671088662
c0191eda: 18 00                        	sbbb	%al, (%eax)
c0191edc: c0 e0 18                     	shlb	$24, %al
c0191edf: c0 00 00                     	rolb	$0, (%eax)
c0191ee2: 00 00                        	addb	%al, (%eax)
c0191ee4: 64 00 00                     	addb	%al, %fs:(%eax)
c0191ee7: 00 b5 21 10 c0 30            	addb	%dh, 817893409(%ebp)
c0191eed: 00 00                        	addb	%al, (%eax)
c0191eef: 00 64 00 02                  	addb	%ah, 2(%eax,%eax)
c0191ef3: 00 b5 21 10 c0 3b            	addb	%dh, 1002442785(%ebp)
c0191ef9: 16                           	pushl	%ss
c0191efa: 00 00                        	addb	%al, (%eax)
c0191efc: 64 00 02                     	addb	%al, %fs:(%edx)
c0191eff: 00 b5 21 10 c0 63            	addb	%dh, 1673531425(%ebp)
c0191f05: 00 00                        	addb	%al, (%eax)
c0191f07: 00 3c 00                     	addb	%bh, (%eax,%eax)
c0191f0a: 00 00                        	addb	%al, (%eax)
c0191f0c: 00 00                        	addb	%al, (%eax)
c0191f0e: 00 00                        	addb	%al, (%eax)
c0191f10: 4d                           	decl	%ebp
c0191f11: 16                           	pushl	%ss
c0191f12: 00 00                        	addb	%al, (%eax)
c0191f14: 24 00                        	andb	$0, %al
c0191f16: 08 00                        	orb	%al, (%eax)
c0191f18: b5 21                        	movb	$33, %ch
c0191f1a: 10 c0                        	adcb	%al, %al
c0191f1c: a1 05 00 00 80               	movl	2147483653, %eax
c0191f21: 00 00                        	addb	%al, (%eax)
c0191f23: 00 00                        	addb	%al, (%eax)
c0191f25: 00 00                        	addb	%al, (%eax)
c0191f27: 00 7d 16                     	addb	%bh, 22(%ebp)
c0191f2a: 00 00                        	addb	%al, (%eax)
c0191f2c: a0 00 08 00 08               	movb	134219776, %al
c0191f31: 00 00                        	addb	%al, (%eax)
c0191f33: 00 a9 16 00 00 80            	addb	%ch, -2147483626(%ecx)
		...
c0191f41: 00 00                        	addb	%al, (%eax)
c0191f43: 00 44 00 09                  	addb	%al, 9(%eax,%eax)
		...
c0191f4f: 00 44 00 0a                  	addb	%al, 10(%eax,%eax)
c0191f53: 00 07                        	addb	%al, (%edi)
c0191f55: 00 00                        	addb	%al, (%eax)
c0191f57: 00 00                        	addb	%al, (%eax)
c0191f59: 00 00                        	addb	%al, (%eax)
c0191f5b: 00 44 00 0b                  	addb	%al, 11(%eax,%eax)
c0191f5f: 00 0e                        	addb	%cl, (%esi)
c0191f61: 00 00                        	addb	%al, (%eax)
c0191f63: 00 00                        	addb	%al, (%eax)
c0191f65: 00 00                        	addb	%al, (%eax)
c0191f67: 00 44 00 0c                  	addb	%al, 12(%eax,%eax)
c0191f6b: 00 10                        	addb	%dl, (%eax)
c0191f6d: 00 00                        	addb	%al, (%eax)
c0191f6f: 00 00                        	addb	%al, (%eax)
c0191f71: 00 00                        	addb	%al, (%eax)
c0191f73: 00 44 00 0c                  	addb	%al, 12(%eax,%eax)
c0191f77: 00 1e                        	addb	%bl, (%esi)
c0191f79: 00 00                        	addb	%al, (%eax)
c0191f7b: 00 00                        	addb	%al, (%eax)
c0191f7d: 00 00                        	addb	%al, (%eax)
c0191f7f: 00 44 00 0c                  	addb	%al, 12(%eax,%eax)
c0191f83: 00 23                        	addb	%ah, (%ebx)
c0191f85: 00 00                        	addb	%al, (%eax)
c0191f87: 00 00                        	addb	%al, (%eax)
c0191f89: 00 00                        	addb	%al, (%eax)
c0191f8b: 00 44 00 0c                  	addb	%al, 12(%eax,%eax)
c0191f8f: 00 2b                        	addb	%ch, (%ebx)
c0191f91: 00 00                        	addb	%al, (%eax)
c0191f93: 00 00                        	addb	%al, (%eax)
c0191f95: 00 00                        	addb	%al, (%eax)
c0191f97: 00 44 00 0c                  	addb	%al, 12(%eax,%eax)
c0191f9b: 00 31                        	addb	%dh, (%ecx)
c0191f9d: 00 00                        	addb	%al, (%eax)
c0191f9f: 00 00                        	addb	%al, (%eax)
c0191fa1: 00 00                        	addb	%al, (%eax)
c0191fa3: 00 44 00 0c                  	addb	%al, 12(%eax,%eax)
c0191fa7: 00 33                        	addb	%dh, (%ebx)
c0191fa9: 00 00                        	addb	%al, (%eax)
c0191fab: 00 00                        	addb	%al, (%eax)
c0191fad: 00 00                        	addb	%al, (%eax)
c0191faf: 00 44 00 0b                  	addb	%al, 11(%eax,%eax)
c0191fb3: 00 39                        	addb	%bh, (%ecx)
c0191fb5: 00 00                        	addb	%al, (%eax)
c0191fb7: 00 00                        	addb	%al, (%eax)
c0191fb9: 00 00                        	addb	%al, (%eax)
c0191fbb: 00 44 00 0b                  	addb	%al, 11(%eax,%eax)
c0191fbf: 00 45 00                     	addb	%al, (%ebp)
c0191fc2: 00 00                        	addb	%al, (%eax)
c0191fc4: 00 00                        	addb	%al, (%eax)
c0191fc6: 00 00                        	addb	%al, (%eax)
c0191fc8: 44                           	incl	%esp
c0191fc9: 00 0e                        	addb	%cl, (%esi)
c0191fcb: 00 51 00                     	addb	%dl, (%ecx)
c0191fce: 00 00                        	addb	%al, (%eax)
c0191fd0: 00 00                        	addb	%al, (%eax)
c0191fd2: 00 00                        	addb	%al, (%eax)
c0191fd4: 44                           	incl	%esp
c0191fd5: 00 0f                        	addb	%cl, (%edi)
c0191fd7: 00 54 00 00                  	addb	%dl, (%eax,%eax)
c0191fdb: 00 b5 16 00 00 80            	addb	%dh, -2147483626(%ebp)
c0191fe1: 00 0a                        	addb	%cl, (%edx)
c0191fe3: 00 fc                        	addb	%bh, %ah
c0191fe5: ff ff                        	<unknown>
c0191fe7: ff 00                        	incl	(%eax)
c0191fe9: 00 00                        	addb	%al, (%eax)
c0191feb: 00 c0                        	addb	%al, %al
		...
c0191ff5: 00 00                        	addb	%al, (%eax)
c0191ff7: 00 e0                        	addb	%ah, %al
c0191ff9: 00 00                        	addb	%al, (%eax)
c0191ffb: 00 59 00                     	addb	%bl, (%ecx)
c0191ffe: 00 00                        	addb	%al, (%eax)
c0192000: 00 00                        	addb	%al, (%eax)
c0192002: 00 00                        	addb	%al, (%eax)
c0192004: 24 00                        	andb	$0, %al
c0192006: 00 00                        	addb	%al, (%eax)
c0192008: 59                           	popl	%ecx
c0192009: 00 00                        	addb	%al, (%eax)
c019200b: 00 bd 16 00 00 24            	addb	%bh, 603979798(%ebp)
c0192011: 00 1f                        	addb	%bl, (%edi)
c0192013: 00 0e                        	addb	%cl, (%esi)
c0192015: 22 10                        	andb	(%eax), %dl
c0192017: c0 d2 16                     	rclb	$22, %dl
c019201a: 00 00                        	addb	%al, (%eax)
c019201c: a0 00 1f 00 08               	movb	134225664, %al
c0192021: 00 00                        	addb	%al, (%eax)
c0192023: 00 dd                        	addb	%bl, %ch
c0192025: 16                           	pushl	%ss
c0192026: 00 00                        	addb	%al, (%eax)
c0192028: a0 00 1f 00 0c               	movb	201334528, %al
c019202d: 00 00                        	addb	%al, (%eax)
c019202f: 00 e8                        	addb	%ch, %al
c0192031: 16                           	pushl	%ss
c0192032: 00 00                        	addb	%al, (%eax)
c0192034: a0 00 1f 00 10               	movb	268443392, %al
c0192039: 00 00                        	addb	%al, (%eax)
c019203b: 00 f4                        	addb	%dh, %ah
c019203d: 16                           	pushl	%ss
c019203e: 00 00                        	addb	%al, (%eax)
c0192040: a0 00 1f 00 14               	movb	335552256, %al
c0192045: 00 00                        	addb	%al, (%eax)
c0192047: 00 00                        	addb	%al, (%eax)
c0192049: 17                           	popl	%ss
c019204a: 00 00                        	addb	%al, (%eax)
c019204c: a0 00 1f 00 18               	movb	402661120, %al
c0192051: 00 00                        	addb	%al, (%eax)
c0192053: 00 11                        	addb	%dl, (%ecx)
c0192055: 17                           	popl	%ss
c0192056: 00 00                        	addb	%al, (%eax)
c0192058: a0 00 1f 00 1c               	movb	469769984, %al
c019205d: 00 00                        	addb	%al, (%eax)
c019205f: 00 00                        	addb	%al, (%eax)
c0192061: 00 00                        	addb	%al, (%eax)
c0192063: 00 44 00 20                  	addb	%al, 32(%eax,%eax)
		...
c019206f: 00 44 00 22                  	addb	%al, 34(%eax,%eax)
c0192073: 00 06                        	addb	%al, (%esi)
c0192075: 00 00                        	addb	%al, (%eax)
c0192077: 00 00                        	addb	%al, (%eax)
c0192079: 00 00                        	addb	%al, (%eax)
c019207b: 00 44 00 25                  	addb	%al, 37(%eax,%eax)
c019207f: 00 0d 00 00 00 00            	addb	%cl, 0
c0192085: 00 00                        	addb	%al, (%eax)
c0192087: 00 44 00 25                  	addb	%al, 37(%eax,%eax)
c019208b: 00 13                        	addb	%dl, (%ebx)
c019208d: 00 00                        	addb	%al, (%eax)
c019208f: 00 00                        	addb	%al, (%eax)
c0192091: 00 00                        	addb	%al, (%eax)
c0192093: 00 44 00 26                  	addb	%al, 38(%eax,%eax)
c0192097: 00 17                        	addb	%dl, (%edi)
c0192099: 00 00                        	addb	%al, (%eax)
c019209b: 00 00                        	addb	%al, (%eax)
c019209d: 00 00                        	addb	%al, (%eax)
c019209f: 00 44 00 28                  	addb	%al, 40(%eax,%eax)
c01920a3: 00 1e                        	addb	%bl, (%esi)
c01920a5: 00 00                        	addb	%al, (%eax)
c01920a7: 00 00                        	addb	%al, (%eax)
c01920a9: 00 00                        	addb	%al, (%eax)
c01920ab: 00 44 00 28                  	addb	%al, 40(%eax,%eax)
c01920af: 00 24 00                     	addb	%ah, (%eax,%eax)
c01920b2: 00 00                        	addb	%al, (%eax)
c01920b4: 00 00                        	addb	%al, (%eax)
c01920b6: 00 00                        	addb	%al, (%eax)
c01920b8: 44                           	incl	%esp
c01920b9: 00 29                        	addb	%ch, (%ecx)
c01920bb: 00 28                        	addb	%ch, (%eax)
c01920bd: 00 00                        	addb	%al, (%eax)
c01920bf: 00 00                        	addb	%al, (%eax)
c01920c1: 00 00                        	addb	%al, (%eax)
c01920c3: 00 44 00 2b                  	addb	%al, 43(%eax,%eax)
c01920c7: 00 2c 00                     	addb	%ch, (%eax,%eax)
c01920ca: 00 00                        	addb	%al, (%eax)
c01920cc: 00 00                        	addb	%al, (%eax)
c01920ce: 00 00                        	addb	%al, (%eax)
c01920d0: 44                           	incl	%esp
c01920d1: 00 2b                        	addb	%ch, (%ebx)
c01920d3: 00 32                        	addb	%dh, (%edx)
c01920d5: 00 00                        	addb	%al, (%eax)
c01920d7: 00 00                        	addb	%al, (%eax)
c01920d9: 00 00                        	addb	%al, (%eax)
c01920db: 00 44 00 2c                  	addb	%al, 44(%eax,%eax)
c01920df: 00 38                        	addb	%bh, (%eax)
c01920e1: 00 00                        	addb	%al, (%eax)
c01920e3: 00 00                        	addb	%al, (%eax)
c01920e5: 00 00                        	addb	%al, (%eax)
c01920e7: 00 44 00 2f                  	addb	%al, 47(%eax,%eax)
c01920eb: 00 42 00                     	addb	%al, (%edx)
c01920ee: 00 00                        	addb	%al, (%eax)
c01920f0: 00 00                        	addb	%al, (%eax)
c01920f2: 00 00                        	addb	%al, (%eax)
c01920f4: 44                           	incl	%esp
c01920f5: 00 2f                        	addb	%ch, (%edi)
c01920f7: 00 48 00                     	addb	%cl, (%eax)
c01920fa: 00 00                        	addb	%al, (%eax)
c01920fc: 00 00                        	addb	%al, (%eax)
c01920fe: 00 00                        	addb	%al, (%eax)
c0192100: 44                           	incl	%esp
c0192101: 00 2f                        	addb	%ch, (%edi)
c0192103: 00 4c 00 00                  	addb	%cl, (%eax,%eax)
c0192107: 00 00                        	addb	%al, (%eax)
c0192109: 00 00                        	addb	%al, (%eax)
c019210b: 00 44 00 2f                  	addb	%al, 47(%eax,%eax)
c019210f: 00 53 00                     	addb	%dl, (%ebx)
c0192112: 00 00                        	addb	%al, (%eax)
c0192114: 00 00                        	addb	%al, (%eax)
c0192116: 00 00                        	addb	%al, (%eax)
c0192118: 44                           	incl	%esp
c0192119: 00 2f                        	addb	%ch, (%edi)
c019211b: 00 58 00                     	addb	%bl, (%eax)
c019211e: 00 00                        	addb	%al, (%eax)
c0192120: 00 00                        	addb	%al, (%eax)
c0192122: 00 00                        	addb	%al, (%eax)
c0192124: 44                           	incl	%esp
c0192125: 00 31                        	addb	%dh, (%ecx)
c0192127: 00 5b 00                     	addb	%bl, (%ebx)
c019212a: 00 00                        	addb	%al, (%eax)
c019212c: 00 00                        	addb	%al, (%eax)
c019212e: 00 00                        	addb	%al, (%eax)
c0192130: 44                           	incl	%esp
c0192131: 00 31                        	addb	%dh, (%ecx)
c0192133: 00 61 00                     	addb	%ah, (%ecx)
c0192136: 00 00                        	addb	%al, (%eax)
c0192138: 00 00                        	addb	%al, (%eax)
c019213a: 00 00                        	addb	%al, (%eax)
c019213c: 44                           	incl	%esp
c019213d: 00 31                        	addb	%dh, (%ecx)
c019213f: 00 65 00                     	addb	%ah, (%ebp)
c0192142: 00 00                        	addb	%al, (%eax)
c0192144: 00 00                        	addb	%al, (%eax)
c0192146: 00 00                        	addb	%al, (%eax)
c0192148: 44                           	incl	%esp
c0192149: 00 32                        	addb	%dh, (%edx)
c019214b: 00 6b 00                     	addb	%ch, (%ebx)
c019214e: 00 00                        	addb	%al, (%eax)
c0192150: 00 00                        	addb	%al, (%eax)
c0192152: 00 00                        	addb	%al, (%eax)
c0192154: 44                           	incl	%esp
c0192155: 00 33                        	addb	%dh, (%ebx)
c0192157: 00 6f 00                     	addb	%ch, (%edi)
c019215a: 00 00                        	addb	%al, (%eax)
c019215c: 00 00                        	addb	%al, (%eax)
c019215e: 00 00                        	addb	%al, (%eax)
c0192160: 44                           	incl	%esp
c0192161: 00 36                        	addb	%dh, (%esi)
c0192163: 00 74 00 00                  	addb	%dh, (%eax,%eax)
c0192167: 00 00                        	addb	%al, (%eax)
c0192169: 00 00                        	addb	%al, (%eax)
c019216b: 00 44 00 36                  	addb	%al, 54(%eax,%eax)
c019216f: 00 7a 00                     	addb	%bh, (%edx)
c0192172: 00 00                        	addb	%al, (%eax)
c0192174: 00 00                        	addb	%al, (%eax)
c0192176: 00 00                        	addb	%al, (%eax)
c0192178: 44                           	incl	%esp
c0192179: 00 36                        	addb	%dh, (%esi)
c019217b: 00 7e 00                     	addb	%bh, (%esi)
c019217e: 00 00                        	addb	%al, (%eax)
c0192180: 00 00                        	addb	%al, (%eax)
c0192182: 00 00                        	addb	%al, (%eax)
c0192184: 44                           	incl	%esp
c0192185: 00 36                        	addb	%dh, (%esi)
c0192187: 00 84 00 00 00 00 00         	addb	%al, (%eax,%eax)
c019218e: 00 00                        	addb	%al, (%eax)
c0192190: 44                           	incl	%esp
c0192191: 00 36                        	addb	%dh, (%esi)
c0192193: 00 89 00 00 00 00            	addb	%cl, (%ecx)
c0192199: 00 00                        	addb	%al, (%eax)
c019219b: 00 44 00 36                  	addb	%al, 54(%eax,%eax)
c019219f: 00 8e 00 00 00 00            	addb	%cl, (%esi)
c01921a5: 00 00                        	addb	%al, (%eax)
c01921a7: 00 44 00 39                  	addb	%al, 57(%eax,%eax)
c01921ab: 00 91 00 00 00 00            	addb	%dl, (%ecx)
c01921b1: 00 00                        	addb	%al, (%eax)
c01921b3: 00 44 00 3a                  	addb	%al, 58(%eax,%eax)
c01921b7: 00 97 00 00 00 00            	addb	%dl, (%edi)
c01921bd: 00 00                        	addb	%al, (%eax)
c01921bf: 00 44 00 3c                  	addb	%al, 60(%eax,%eax)
c01921c3: 00 9b 00 00 00 00            	addb	%bl, (%ebx)
c01921c9: 00 00                        	addb	%al, (%eax)
c01921cb: 00 44 00 3c                  	addb	%al, 60(%eax,%eax)
c01921cf: 00 a1 00 00 00 00            	addb	%ah, (%ecx)
c01921d5: 00 00                        	addb	%al, (%eax)
c01921d7: 00 44 00 3d                  	addb	%al, 61(%eax,%eax)
c01921db: 00 a5 00 00 00 00            	addb	%ah, (%ebp)
c01921e1: 00 00                        	addb	%al, (%eax)
c01921e3: 00 44 00 3e                  	addb	%al, 62(%eax,%eax)
c01921e7: 00 ab 00 00 00 00            	addb	%ch, (%ebx)
c01921ed: 00 00                        	addb	%al, (%eax)
c01921ef: 00 44 00 40                  	addb	%al, 64(%eax,%eax)
c01921f3: 00 b1 00 00 00 00            	addb	%dh, (%ecx)
c01921f9: 00 00                        	addb	%al, (%eax)
c01921fb: 00 44 00 41                  	addb	%al, 65(%eax,%eax)
c01921ff: 00 b7 00 00 00 00            	addb	%dh, (%edi)
c0192205: 00 00                        	addb	%al, (%eax)
c0192207: 00 44 00 44                  	addb	%al, 68(%eax,%eax)
c019220b: 00 bb 00 00 00 00            	addb	%bh, (%ebx)
c0192211: 00 00                        	addb	%al, (%eax)
c0192213: 00 44 00 45                  	addb	%al, 69(%eax,%eax)
c0192217: 00 c2                        	addb	%al, %dl
c0192219: 00 00                        	addb	%al, (%eax)
c019221b: 00 00                        	addb	%al, (%eax)
c019221d: 00 00                        	addb	%al, (%eax)
c019221f: 00 44 00 46                  	addb	%al, 70(%eax,%eax)
c0192223: 00 c8                        	addb	%cl, %al
c0192225: 00 00                        	addb	%al, (%eax)
c0192227: 00 00                        	addb	%al, (%eax)
c0192229: 00 00                        	addb	%al, (%eax)
c019222b: 00 44 00 46                  	addb	%al, 70(%eax,%eax)
c019222f: 00 d1                        	addb	%dl, %cl
c0192231: 00 00                        	addb	%al, (%eax)
c0192233: 00 00                        	addb	%al, (%eax)
c0192235: 00 00                        	addb	%al, (%eax)
c0192237: 00 44 00 4a                  	addb	%al, 74(%eax,%eax)
c019223b: 00 d8                        	addb	%bl, %al
c019223d: 00 00                        	addb	%al, (%eax)
c019223f: 00 00                        	addb	%al, (%eax)
c0192241: 00 00                        	addb	%al, (%eax)
c0192243: 00 44 00 4a                  	addb	%al, 74(%eax,%eax)
c0192247: 00 f0                        	addb	%dh, %al
c0192249: 00 00                        	addb	%al, (%eax)
c019224b: 00 00                        	addb	%al, (%eax)
c019224d: 00 00                        	addb	%al, (%eax)
c019224f: 00 44 00 4a                  	addb	%al, 74(%eax,%eax)
c0192253: 00 f6                        	addb	%dh, %dh
c0192255: 00 00                        	addb	%al, (%eax)
c0192257: 00 00                        	addb	%al, (%eax)
c0192259: 00 00                        	addb	%al, (%eax)
c019225b: 00 44 00 4a                  	addb	%al, 74(%eax,%eax)
c019225f: 00 ff                        	addb	%bh, %bh
c0192261: 00 00                        	addb	%al, (%eax)
c0192263: 00 00                        	addb	%al, (%eax)
c0192265: 00 00                        	addb	%al, (%eax)
c0192267: 00 44 00 4a                  	addb	%al, 74(%eax,%eax)
c019226b: 00 02                        	addb	%al, (%edx)
c019226d: 01 00                        	addl	%eax, (%eax)
c019226f: 00 00                        	addb	%al, (%eax)
c0192271: 00 00                        	addb	%al, (%eax)
c0192273: 00 44 00 49                  	addb	%al, 73(%eax,%eax)
c0192277: 00 06                        	addb	%al, (%esi)
c0192279: 01 00                        	addl	%eax, (%eax)
c019227b: 00 00                        	addb	%al, (%eax)
c019227d: 00 00                        	addb	%al, (%eax)
c019227f: 00 44 00 4e                  	addb	%al, 78(%eax,%eax)
c0192283: 00 0c 01                     	addb	%cl, (%ecx,%eax)
c0192286: 00 00                        	addb	%al, (%eax)
c0192288: 00 00                        	addb	%al, (%eax)
c019228a: 00 00                        	addb	%al, (%eax)
c019228c: 44                           	incl	%esp
c019228d: 00 4f 00                     	addb	%cl, (%edi)
c0192290: 14 01                        	adcb	$1, %al
c0192292: 00 00                        	addb	%al, (%eax)
c0192294: 00 00                        	addb	%al, (%eax)
c0192296: 00 00                        	addb	%al, (%eax)
c0192298: 44                           	incl	%esp
c0192299: 00 51 00                     	addb	%dl, (%ecx)
c019229c: 1a 01                        	sbbb	(%ecx), %al
c019229e: 00 00                        	addb	%al, (%eax)
c01922a0: 00 00                        	addb	%al, (%eax)
c01922a2: 00 00                        	addb	%al, (%eax)
c01922a4: 44                           	incl	%esp
c01922a5: 00 53 00                     	addb	%dl, (%ebx)
c01922a8: 20 01                        	andb	%al, (%ecx)
c01922aa: 00 00                        	addb	%al, (%eax)
c01922ac: 00 00                        	addb	%al, (%eax)
c01922ae: 00 00                        	addb	%al, (%eax)
c01922b0: 44                           	incl	%esp
c01922b1: 00 53 00                     	addb	%dl, (%ebx)
c01922b4: 26 01 00                     	addl	%eax, %es:(%eax)
c01922b7: 00 00                        	addb	%al, (%eax)
c01922b9: 00 00                        	addb	%al, (%eax)
c01922bb: 00 44 00 54                  	addb	%al, 84(%eax,%eax)
c01922bf: 00 2a                        	addb	%ch, (%edx)
c01922c1: 01 00                        	addl	%eax, (%eax)
c01922c3: 00 00                        	addb	%al, (%eax)
c01922c5: 00 00                        	addb	%al, (%eax)
c01922c7: 00 44 00 55                  	addb	%al, 85(%eax,%eax)
c01922cb: 00 2c 01                     	addb	%ch, (%ecx,%eax)
c01922ce: 00 00                        	addb	%al, (%eax)
c01922d0: 00 00                        	addb	%al, (%eax)
c01922d2: 00 00                        	addb	%al, (%eax)
c01922d4: 44                           	incl	%esp
c01922d5: 00 55 00                     	addb	%dl, (%ebp)
c01922d8: 35 01 00 00 00               	xorl	$1, %eax
c01922dd: 00 00                        	addb	%al, (%eax)
c01922df: 00 44 00 54                  	addb	%al, 84(%eax,%eax)
c01922e3: 00 38                        	addb	%bh, (%eax)
c01922e5: 01 00                        	addl	%eax, (%eax)
c01922e7: 00 00                        	addb	%al, (%eax)
c01922e9: 00 00                        	addb	%al, (%eax)
c01922eb: 00 44 00 54                  	addb	%al, 84(%eax,%eax)
c01922ef: 00 41 01                     	addb	%al, 1(%ecx)
c01922f2: 00 00                        	addb	%al, (%eax)
c01922f4: 00 00                        	addb	%al, (%eax)
c01922f6: 00 00                        	addb	%al, (%eax)
c01922f8: 44                           	incl	%esp
c01922f9: 00 58 00                     	addb	%bl, (%eax)
c01922fc: 45                           	incl	%ebp
c01922fd: 01 00                        	addl	%eax, (%eax)
c01922ff: 00 00                        	addb	%al, (%eax)
c0192301: 00 00                        	addb	%al, (%eax)
c0192303: 00 44 00 59                  	addb	%al, 89(%eax,%eax)
c0192307: 00 4b 01                     	addb	%cl, 1(%ebx)
c019230a: 00 00                        	addb	%al, (%eax)
c019230c: 00 00                        	addb	%al, (%eax)
c019230e: 00 00                        	addb	%al, (%eax)
c0192310: 44                           	incl	%esp
c0192311: 00 59 00                     	addb	%bl, (%ecx)
c0192314: 54                           	pushl	%esp
c0192315: 01 00                        	addl	%eax, (%eax)
c0192317: 00 00                        	addb	%al, (%eax)
c0192319: 00 00                        	addb	%al, (%eax)
c019231b: 00 44 00 5b                  	addb	%al, 91(%eax,%eax)
c019231f: 00 5a 01                     	addb	%bl, 1(%edx)
c0192322: 00 00                        	addb	%al, (%eax)
c0192324: 00 00                        	addb	%al, (%eax)
c0192326: 00 00                        	addb	%al, (%eax)
c0192328: 44                           	incl	%esp
c0192329: 00 5b 00                     	addb	%bl, (%ebx)
c019232c: 60                           	pushal
c019232d: 01 00                        	addl	%eax, (%eax)
c019232f: 00 00                        	addb	%al, (%eax)
c0192331: 00 00                        	addb	%al, (%eax)
c0192333: 00 44 00 5c                  	addb	%al, 92(%eax,%eax)
c0192337: 00 64 01 00                  	addb	%ah, (%ecx,%eax)
c019233b: 00 00                        	addb	%al, (%eax)
c019233d: 00 00                        	addb	%al, (%eax)
c019233f: 00 44 00 5d                  	addb	%al, 93(%eax,%eax)
c0192343: 00 6a 01                     	addb	%ch, 1(%edx)
c0192346: 00 00                        	addb	%al, (%eax)
c0192348: 00 00                        	addb	%al, (%eax)
c019234a: 00 00                        	addb	%al, (%eax)
c019234c: 44                           	incl	%esp
c019234d: 00 5d 00                     	addb	%bl, (%ebp)
c0192350: 73 01                        	jae	0xc0192353 <.stab+0x3353>
c0192352: 00 00                        	addb	%al, (%eax)
c0192354: 00 00                        	addb	%al, (%eax)
c0192356: 00 00                        	addb	%al, (%eax)
c0192358: 44                           	incl	%esp
c0192359: 00 5f 00                     	addb	%bl, (%edi)
c019235c: 78 01                        	js	0xc019235f <.stab+0x335f>
c019235e: 00 00                        	addb	%al, (%eax)
c0192360: 00 00                        	addb	%al, (%eax)
c0192362: 00 00                        	addb	%al, (%eax)
c0192364: 44                           	incl	%esp
c0192365: 00 60 00                     	addb	%ah, (%eax)
c0192368: 7e 01                        	jle	0xc019236b <.stab+0x336b>
c019236a: 00 00                        	addb	%al, (%eax)
c019236c: 00 00                        	addb	%al, (%eax)
c019236e: 00 00                        	addb	%al, (%eax)
c0192370: 44                           	incl	%esp
c0192371: 00 60 00                     	addb	%ah, (%eax)
c0192374: 87 01                        	xchgl	%eax, (%ecx)
c0192376: 00 00                        	addb	%al, (%eax)
c0192378: 00 00                        	addb	%al, (%eax)
c019237a: 00 00                        	addb	%al, (%eax)
c019237c: 44                           	incl	%esp
c019237d: 00 61 00                     	addb	%ah, (%ecx)
c0192380: 8a 01                        	movb	(%ecx), %al
c0192382: 00 00                        	addb	%al, (%eax)
c0192384: 00 00                        	addb	%al, (%eax)
c0192386: 00 00                        	addb	%al, (%eax)
c0192388: 44                           	incl	%esp
c0192389: 00 61 00                     	addb	%ah, (%ecx)
c019238c: 90                           	nop
c019238d: 01 00                        	addl	%eax, (%eax)
c019238f: 00 00                        	addb	%al, (%eax)
c0192391: 00 00                        	addb	%al, (%eax)
c0192393: 00 44 00 61                  	addb	%al, 97(%eax,%eax)
c0192397: 00 99 01 00 00 00            	addb	%bl, 1(%ecx)
c019239d: 00 00                        	addb	%al, (%eax)
c019239f: 00 44 00 61                  	addb	%al, 97(%eax,%eax)
c01923a3: 00 9c 01 00 00 00 00         	addb	%bl, (%ecx,%eax)
c01923aa: 00 00                        	addb	%al, (%eax)
c01923ac: 44                           	incl	%esp
c01923ad: 00 64 00 9e                  	addb	%ah, -98(%eax,%eax)
c01923b1: 01 00                        	addl	%eax, (%eax)
c01923b3: 00 00                        	addb	%al, (%eax)
c01923b5: 00 00                        	addb	%al, (%eax)
c01923b7: 00 44 00 64                  	addb	%al, 100(%eax,%eax)
c01923bb: 00 a4 01 00 00 00 00         	addb	%ah, (%ecx,%eax)
c01923c2: 00 00                        	addb	%al, (%eax)
c01923c4: 44                           	incl	%esp
c01923c5: 00 65 00                     	addb	%ah, (%ebp)
c01923c8: a8 01                        	testb	$1, %al
c01923ca: 00 00                        	addb	%al, (%eax)
c01923cc: 00 00                        	addb	%al, (%eax)
c01923ce: 00 00                        	addb	%al, (%eax)
c01923d0: 44                           	incl	%esp
c01923d1: 00 66 00                     	addb	%ah, (%esi)
c01923d4: aa                           	stosb	%al, %es:(%edi)
c01923d5: 01 00                        	addl	%eax, (%eax)
c01923d7: 00 00                        	addb	%al, (%eax)
c01923d9: 00 00                        	addb	%al, (%eax)
c01923db: 00 44 00 66                  	addb	%al, 102(%eax,%eax)
c01923df: 00 b3 01 00 00 00            	addb	%dh, 1(%ebx)
c01923e5: 00 00                        	addb	%al, (%eax)
c01923e7: 00 44 00 65                  	addb	%al, 101(%eax,%eax)
c01923eb: 00 b9 01 00 00 00            	addb	%bh, 1(%ecx)
c01923f1: 00 00                        	addb	%al, (%eax)
c01923f3: 00 44 00 65                  	addb	%al, 101(%eax,%eax)
c01923f7: 00 c2                        	addb	%al, %dl
c01923f9: 01 00                        	addl	%eax, (%eax)
c01923fb: 00 00                        	addb	%al, (%eax)
c01923fd: 00 00                        	addb	%al, (%eax)
c01923ff: 00 44 00 69                  	addb	%al, 105(%eax,%eax)
c0192403: 00 c6                        	addb	%al, %dh
c0192405: 01 00                        	addl	%eax, (%eax)
c0192407: 00 00                        	addb	%al, (%eax)
c0192409: 00 00                        	addb	%al, (%eax)
c019240b: 00 44 00 6a                  	addb	%al, 106(%eax,%eax)
c019240f: 00 c8                        	addb	%cl, %al
c0192411: 01 00                        	addl	%eax, (%eax)
c0192413: 00 00                        	addb	%al, (%eax)
c0192415: 00 00                        	addb	%al, (%eax)
c0192417: 00 44 00 6a                  	addb	%al, 106(%eax,%eax)
c019241b: 00 d1                        	addb	%dl, %cl
c019241d: 01 00                        	addl	%eax, (%eax)
c019241f: 00 00                        	addb	%al, (%eax)
c0192421: 00 00                        	addb	%al, (%eax)
c0192423: 00 44 00 69                  	addb	%al, 105(%eax,%eax)
c0192427: 00 d4                        	addb	%dl, %ah
c0192429: 01 00                        	addl	%eax, (%eax)
c019242b: 00 00                        	addb	%al, (%eax)
c019242d: 00 00                        	addb	%al, (%eax)
c019242f: 00 44 00 69                  	addb	%al, 105(%eax,%eax)
c0192433: 00 dd                        	addb	%bl, %ch
c0192435: 01 00                        	addl	%eax, (%eax)
c0192437: 00 00                        	addb	%al, (%eax)
c0192439: 00 00                        	addb	%al, (%eax)
c019243b: 00 44 00 6c                  	addb	%al, 108(%eax,%eax)
c019243f: 00 e2                        	addb	%ah, %dl
c0192441: 01 00                        	addl	%eax, (%eax)
c0192443: 00 00                        	addb	%al, (%eax)
c0192445: 00 00                        	addb	%al, (%eax)
c0192447: 00 44 00 6d                  	addb	%al, 109(%eax,%eax)
c019244b: 00 e4                        	addb	%ah, %ah
c019244d: 01 00                        	addl	%eax, (%eax)
c019244f: 00 00                        	addb	%al, (%eax)
c0192451: 00 00                        	addb	%al, (%eax)
c0192453: 00 44 00 6d                  	addb	%al, 109(%eax,%eax)
c0192457: 00 ed                        	addb	%ch, %ch
c0192459: 01 00                        	addl	%eax, (%eax)
c019245b: 00 00                        	addb	%al, (%eax)
c019245d: 00 00                        	addb	%al, (%eax)
c019245f: 00 44 00 6d                  	addb	%al, 109(%eax,%eax)
c0192463: 00 f8                        	addb	%bh, %al
c0192465: 01 00                        	addl	%eax, (%eax)
c0192467: 00 00                        	addb	%al, (%eax)
c0192469: 00 00                        	addb	%al, (%eax)
c019246b: 00 44 00 6c                  	addb	%al, 108(%eax,%eax)
c019246f: 00 fa                        	addb	%bh, %dl
c0192471: 01 00                        	addl	%eax, (%eax)
c0192473: 00 00                        	addb	%al, (%eax)
c0192475: 00 00                        	addb	%al, (%eax)
c0192477: 00 44 00 6c                  	addb	%al, 108(%eax,%eax)
c019247b: 00 03                        	addb	%al, (%ebx)
c019247d: 02 00                        	addb	(%eax), %al
c019247f: 00 00                        	addb	%al, (%eax)
c0192481: 00 00                        	addb	%al, (%eax)
c0192483: 00 44 00 6f                  	addb	%al, 111(%eax,%eax)
c0192487: 00 07                        	addb	%al, (%edi)
c0192489: 02 00                        	addb	(%eax), %al
c019248b: 00 00                        	addb	%al, (%eax)
c019248d: 00 00                        	addb	%al, (%eax)
c019248f: 00 44 00 70                  	addb	%al, 112(%eax,%eax)
c0192493: 00 09                        	addb	%cl, (%ecx)
c0192495: 02 00                        	addb	(%eax), %al
c0192497: 00 00                        	addb	%al, (%eax)
c0192499: 00 00                        	addb	%al, (%eax)
c019249b: 00 44 00 70                  	addb	%al, 112(%eax,%eax)
c019249f: 00 12                        	addb	%dl, (%edx)
c01924a1: 02 00                        	addb	(%eax), %al
c01924a3: 00 00                        	addb	%al, (%eax)
c01924a5: 00 00                        	addb	%al, (%eax)
c01924a7: 00 44 00 6f                  	addb	%al, 111(%eax,%eax)
c01924ab: 00 15 02 00 00 00            	addb	%dl, 2
c01924b1: 00 00                        	addb	%al, (%eax)
c01924b3: 00 44 00 6f                  	addb	%al, 111(%eax,%eax)
c01924b7: 00 1e                        	addb	%bl, (%esi)
c01924b9: 02 00                        	addb	(%eax), %al
c01924bb: 00 00                        	addb	%al, (%eax)
c01924bd: 00 00                        	addb	%al, (%eax)
c01924bf: 00 44 00 73                  	addb	%al, 115(%eax,%eax)
c01924c3: 00 22                        	addb	%ah, (%edx)
c01924c5: 02 00                        	addb	(%eax), %al
c01924c7: 00 00                        	addb	%al, (%eax)
c01924c9: 00 00                        	addb	%al, (%eax)
c01924cb: 00 44 00 74                  	addb	%al, 116(%eax,%eax)
c01924cf: 00 25 02 00 00 1d            	addb	%ah, 486539266
c01924d5: 17                           	popl	%ss
c01924d6: 00 00                        	addb	%al, (%eax)
c01924d8: 80 00 21                     	addb	$33, (%eax)
c01924db: 00 f3                        	addb	%dh, %bl
c01924dd: ff ff                        	<unknown>
c01924df: ff 25 17 00 00 80            	jmpl	*-2147483625
c01924e5: 00 21                        	addb	%ah, (%ecx)
c01924e7: 00 ff                        	addb	%bh, %bh
c01924e9: ff ff                        	<unknown>
c01924eb: ff 30                        	pushl	(%eax)
c01924ed: 17                           	popl	%ss
c01924ee: 00 00                        	addb	%al, (%eax)
c01924f0: 80 00 21                     	addb	$33, (%eax)
c01924f3: 00 c8                        	addb	%cl, %al
c01924f5: ff ff                        	<unknown>
c01924f7: ff 64 17 00                  	jmpl	*(%edi,%edx)
c01924fb: 00 80 00 22 00 f8            	addb	%al, -134209024(%eax)
c0192501: ff ff                        	<unknown>
c0192503: ff b5 16 00 00 80            	pushl	-2147483626(%ebp)
c0192509: 00 23                        	addb	%ah, (%ebx)
c019250b: 00 f4                        	addb	%dh, %ah
c019250d: ff ff                        	<unknown>
c019250f: ff 00                        	incl	(%eax)
c0192511: 00 00                        	addb	%al, (%eax)
c0192513: 00 c0                        	addb	%al, %al
c0192515: 00 00                        	addb	%al, (%eax)
c0192517: 00 00                        	addb	%al, (%eax)
c0192519: 00 00                        	addb	%al, (%eax)
c019251b: 00 71 17                     	addb	%dh, 23(%ecx)
c019251e: 00 00                        	addb	%al, (%eax)
c0192520: 80 00 4a                     	addb	$74, (%eax)
c0192523: 00 ec                        	addb	%ch, %ah
c0192525: ff ff                        	<unknown>
c0192527: ff 00                        	incl	(%eax)
c0192529: 00 00                        	addb	%al, (%eax)
c019252b: 00 c0                        	addb	%al, %al
c019252d: 00 00                        	addb	%al, (%eax)
c019252f: 00 d8                        	addb	%bl, %al
c0192531: 00 00                        	addb	%al, (%eax)
c0192533: 00 00                        	addb	%al, (%eax)
c0192535: 00 00                        	addb	%al, (%eax)
c0192537: 00 e0                        	addb	%ah, %al
c0192539: 00 00                        	addb	%al, (%eax)
c019253b: 00 ee                        	addb	%ch, %dh
c019253d: 00 00                        	addb	%al, (%eax)
c019253f: 00 00                        	addb	%al, (%eax)
c0192541: 00 00                        	addb	%al, (%eax)
c0192543: 00 e0                        	addb	%ah, %al
c0192545: 00 00                        	addb	%al, (%eax)
c0192547: 00 27                        	addb	%ah, (%edi)
c0192549: 02 00                        	addb	(%eax), %al
c019254b: 00 00                        	addb	%al, (%eax)
c019254d: 00 00                        	addb	%al, (%eax)
c019254f: 00 24 00                     	addb	%ah, (%eax,%eax)
c0192552: 00 00                        	addb	%al, (%eax)
c0192554: 27                           	daa
c0192555: 02 00                        	addb	(%eax), %al
c0192557: 00 7d 17                     	addb	%bh, 23(%ebp)
c019255a: 00 00                        	addb	%al, (%eax)
c019255c: 24 00                        	andb	$0, %al
c019255e: 76 00                        	jbe	0xc0192560 <.stab+0x3560>
c0192560: 35 24 10 c0 8d               	xorl	$2378174500, %eax
c0192565: 17                           	popl	%ss
c0192566: 00 00                        	addb	%al, (%eax)
c0192568: 80 00 00                     	addb	$0, (%eax)
c019256b: 00 00                        	addb	%al, (%eax)
c019256d: 00 00                        	addb	%al, (%eax)
c019256f: 00 bd 17 00 00 80            	addb	%bh, -2147483625(%ebp)
c0192575: 00 00                        	addb	%al, (%eax)
c0192577: 00 00                        	addb	%al, (%eax)
c0192579: 00 00                        	addb	%al, (%eax)
c019257b: 00 e6                        	addb	%ah, %dh
c019257d: 17                           	popl	%ss
c019257e: 00 00                        	addb	%al, (%eax)
c0192580: a0 00 76 00 08               	movb	134247936, %al
c0192585: 00 00                        	addb	%al, (%eax)
c0192587: 00 f1                        	addb	%dh, %cl
c0192589: 17                           	popl	%ss
c019258a: 00 00                        	addb	%al, (%eax)
c019258c: a0 00 76 00 0c               	movb	201356800, %al
c0192591: 00 00                        	addb	%al, (%eax)
c0192593: 00 fc                        	addb	%bh, %ah
c0192595: 17                           	popl	%ss
c0192596: 00 00                        	addb	%al, (%eax)
c0192598: a0 00 76 00 10               	movb	268465664, %al
c019259d: 00 00                        	addb	%al, (%eax)
c019259f: 00 17                        	addb	%dl, (%edi)
c01925a1: 18 00                        	sbbb	%al, (%eax)
c01925a3: 00 80 00 04 00 00            	addb	%al, 1024(%eax)
c01925a9: 00 00                        	addb	%al, (%eax)
c01925ab: 00 27                        	addb	%ah, (%edi)
c01925ad: 18 00                        	sbbb	%al, (%eax)
c01925af: 00 80 00 00 00 00            	addb	%al, (%eax)
c01925b5: 00 00                        	addb	%al, (%eax)
c01925b7: 00 00                        	addb	%al, (%eax)
c01925b9: 00 00                        	addb	%al, (%eax)
c01925bb: 00 44 00 77                  	addb	%al, 119(%eax,%eax)
		...
c01925c7: 00 44 00 83                  	addb	%al, -125(%eax,%eax)
c01925cb: 00 06                        	addb	%al, (%esi)
c01925cd: 00 00                        	addb	%al, (%eax)
c01925cf: 00 00                        	addb	%al, (%eax)
c01925d1: 00 00                        	addb	%al, (%eax)
c01925d3: 00 44 00 83                  	addb	%al, -125(%eax,%eax)
c01925d7: 00 0c 00                     	addb	%cl, (%eax,%eax)
c01925da: 00 00                        	addb	%al, (%eax)
c01925dc: 00 00                        	addb	%al, (%eax)
c01925de: 00 00                        	addb	%al, (%eax)
c01925e0: 44                           	incl	%esp
c01925e1: 00 84 00 11 00 00 00         	addb	%al, 17(%eax,%eax)
c01925e8: 00 00                        	addb	%al, (%eax)
c01925ea: 00 00                        	addb	%al, (%eax)
c01925ec: 44                           	incl	%esp
c01925ed: 00 84 00 17 00 00 00         	addb	%al, 23(%eax,%eax)
c01925f4: 00 00                        	addb	%al, (%eax)
c01925f6: 00 00                        	addb	%al, (%eax)
c01925f8: 44                           	incl	%esp
c01925f9: 00 85 00 1b 00 00            	addb	%al, 6912(%ebp)
c01925ff: 00 00                        	addb	%al, (%eax)
c0192601: 00 00                        	addb	%al, (%eax)
c0192603: 00 44 00 85                  	addb	%al, -123(%eax,%eax)
c0192607: 00 1e                        	addb	%bl, (%esi)
c0192609: 00 00                        	addb	%al, (%eax)
c019260b: 00 00                        	addb	%al, (%eax)
c019260d: 00 00                        	addb	%al, (%eax)
c019260f: 00 44 00 85                  	addb	%al, -123(%eax,%eax)
c0192613: 00 27                        	addb	%ah, (%edi)
c0192615: 00 00                        	addb	%al, (%eax)
c0192617: 00 00                        	addb	%al, (%eax)
c0192619: 00 00                        	addb	%al, (%eax)
c019261b: 00 44 00 85                  	addb	%al, -123(%eax,%eax)
c019261f: 00 2a                        	addb	%ch, (%edx)
c0192621: 00 00                        	addb	%al, (%eax)
c0192623: 00 00                        	addb	%al, (%eax)
c0192625: 00 00                        	addb	%al, (%eax)
c0192627: 00 44 00 86                  	addb	%al, -122(%eax,%eax)
c019262b: 00 2c 00                     	addb	%ch, (%eax,%eax)
c019262e: 00 00                        	addb	%al, (%eax)
c0192630: 00 00                        	addb	%al, (%eax)
c0192632: 00 00                        	addb	%al, (%eax)
c0192634: 44                           	incl	%esp
c0192635: 00 89 00 31 00 00            	addb	%cl, 12544(%ecx)
c019263b: 00 00                        	addb	%al, (%eax)
c019263d: 00 00                        	addb	%al, (%eax)
c019263f: 00 44 00 8b                  	addb	%al, -117(%eax,%eax)
c0192643: 00 38                        	addb	%bh, (%eax)
c0192645: 00 00                        	addb	%al, (%eax)
c0192647: 00 00                        	addb	%al, (%eax)
c0192649: 00 00                        	addb	%al, (%eax)
c019264b: 00 44 00 8c                  	addb	%al, -116(%eax,%eax)
c019264f: 00 41 00                     	addb	%al, (%ecx)
c0192652: 00 00                        	addb	%al, (%eax)
c0192654: 00 00                        	addb	%al, (%eax)
c0192656: 00 00                        	addb	%al, (%eax)
c0192658: 44                           	incl	%esp
c0192659: 00 8c 00 4a 00 00 00         	addb	%cl, 74(%eax,%eax)
c0192660: 00 00                        	addb	%al, (%eax)
c0192662: 00 00                        	addb	%al, (%eax)
c0192664: 44                           	incl	%esp
c0192665: 00 8d 00 5b 00 00            	addb	%cl, 23296(%ebp)
c019266b: 00 00                        	addb	%al, (%eax)
c019266d: 00 00                        	addb	%al, (%eax)
c019266f: 00 44 00 8d                  	addb	%al, -115(%eax,%eax)
c0192673: 00 5f 00                     	addb	%bl, (%edi)
c0192676: 00 00                        	addb	%al, (%eax)
c0192678: 00 00                        	addb	%al, (%eax)
c019267a: 00 00                        	addb	%al, (%eax)
c019267c: 44                           	incl	%esp
c019267d: 00 8e 00 61 00 00            	addb	%cl, 24832(%esi)
c0192683: 00 00                        	addb	%al, (%eax)
c0192685: 00 00                        	addb	%al, (%eax)
c0192687: 00 44 00 8e                  	addb	%al, -114(%eax,%eax)
c019268b: 00 65 00                     	addb	%ah, (%ebp)
c019268e: 00 00                        	addb	%al, (%eax)
c0192690: 00 00                        	addb	%al, (%eax)
c0192692: 00 00                        	addb	%al, (%eax)
c0192694: 44                           	incl	%esp
c0192695: 00 8f 00 67 00 00            	addb	%cl, 26368(%edi)
c019269b: 00 00                        	addb	%al, (%eax)
c019269d: 00 00                        	addb	%al, (%eax)
c019269f: 00 44 00 8f                  	addb	%al, -113(%eax,%eax)
c01926a3: 00 6b 00                     	addb	%ch, (%ebx)
c01926a6: 00 00                        	addb	%al, (%eax)
c01926a8: 00 00                        	addb	%al, (%eax)
c01926aa: 00 00                        	addb	%al, (%eax)
c01926ac: 44                           	incl	%esp
c01926ad: 00 90 00 6d 00 00            	addb	%dl, 27904(%eax)
c01926b3: 00 00                        	addb	%al, (%eax)
c01926b5: 00 00                        	addb	%al, (%eax)
c01926b7: 00 44 00 90                  	addb	%al, -112(%eax,%eax)
c01926bb: 00 71 00                     	addb	%dh, (%ecx)
c01926be: 00 00                        	addb	%al, (%eax)
c01926c0: 00 00                        	addb	%al, (%eax)
c01926c2: 00 00                        	addb	%al, (%eax)
c01926c4: 44                           	incl	%esp
c01926c5: 00 91 00 73 00 00            	addb	%dl, 29440(%ecx)
c01926cb: 00 00                        	addb	%al, (%eax)
c01926cd: 00 00                        	addb	%al, (%eax)
c01926cf: 00 44 00 91                  	addb	%al, -111(%eax,%eax)
c01926d3: 00 77 00                     	addb	%dh, (%edi)
c01926d6: 00 00                        	addb	%al, (%eax)
c01926d8: 00 00                        	addb	%al, (%eax)
c01926da: 00 00                        	addb	%al, (%eax)
c01926dc: 44                           	incl	%esp
c01926dd: 00 94 00 79 00 00 00         	addb	%dl, 121(%eax,%eax)
c01926e4: 00 00                        	addb	%al, (%eax)
c01926e6: 00 00                        	addb	%al, (%eax)
c01926e8: 44                           	incl	%esp
c01926e9: 00 95 00 80 00 00            	addb	%dl, 32768(%ebp)
c01926ef: 00 00                        	addb	%al, (%eax)
c01926f1: 00 00                        	addb	%al, (%eax)
c01926f3: 00 44 00 95                  	addb	%al, -107(%eax,%eax)
c01926f7: 00 86 00 00 00 00            	addb	%al, (%esi)
c01926fd: 00 00                        	addb	%al, (%eax)
c01926ff: 00 44 00 95                  	addb	%al, -107(%eax,%eax)
c0192703: 00 8a 00 00 00 00            	addb	%cl, (%edx)
c0192709: 00 00                        	addb	%al, (%eax)
c019270b: 00 44 00 96                  	addb	%al, -106(%eax,%eax)
c019270f: 00 94 00 00 00 00 00         	addb	%dl, (%eax,%eax)
c0192716: 00 00                        	addb	%al, (%eax)
c0192718: 44                           	incl	%esp
c0192719: 00 96 00 a3 00 00            	addb	%dl, 41728(%esi)
c019271f: 00 00                        	addb	%al, (%eax)
c0192721: 00 00                        	addb	%al, (%eax)
c0192723: 00 44 00 98                  	addb	%al, -104(%eax,%eax)
c0192727: 00 a5 00 00 00 00            	addb	%ah, (%ebp)
c019272d: 00 00                        	addb	%al, (%eax)
c019272f: 00 44 00 98                  	addb	%al, -104(%eax,%eax)
c0192733: 00 ab 00 00 00 00            	addb	%ch, (%ebx)
c0192739: 00 00                        	addb	%al, (%eax)
c019273b: 00 44 00 99                  	addb	%al, -103(%eax,%eax)
c019273f: 00 af 00 00 00 00            	addb	%ch, (%edi)
c0192745: 00 00                        	addb	%al, (%eax)
c0192747: 00 44 00 9a                  	addb	%al, -102(%eax,%eax)
c019274b: 00 bd 00 00 00 00            	addb	%bh, (%ebp)
c0192751: 00 00                        	addb	%al, (%eax)
c0192753: 00 44 00 9b                  	addb	%al, -101(%eax,%eax)
c0192757: 00 c3                        	addb	%al, %bl
c0192759: 00 00                        	addb	%al, (%eax)
c019275b: 00 00                        	addb	%al, (%eax)
c019275d: 00 00                        	addb	%al, (%eax)
c019275f: 00 44 00 9c                  	addb	%al, -100(%eax,%eax)
c0192763: 00 c6                        	addb	%al, %dh
c0192765: 00 00                        	addb	%al, (%eax)
c0192767: 00 00                        	addb	%al, (%eax)
c0192769: 00 00                        	addb	%al, (%eax)
c019276b: 00 44 00 a0                  	addb	%al, -96(%eax,%eax)
c019276f: 00 ca                        	addb	%cl, %dl
c0192771: 00 00                        	addb	%al, (%eax)
c0192773: 00 00                        	addb	%al, (%eax)
c0192775: 00 00                        	addb	%al, (%eax)
c0192777: 00 44 00 a1                  	addb	%al, -95(%eax,%eax)
c019277b: 00 d1                        	addb	%dl, %cl
c019277d: 00 00                        	addb	%al, (%eax)
c019277f: 00 00                        	addb	%al, (%eax)
c0192781: 00 00                        	addb	%al, (%eax)
c0192783: 00 44 00 a1                  	addb	%al, -95(%eax,%eax)
c0192787: 00 d7                        	addb	%dl, %bh
c0192789: 00 00                        	addb	%al, (%eax)
c019278b: 00 00                        	addb	%al, (%eax)
c019278d: 00 00                        	addb	%al, (%eax)
c019278f: 00 44 00 a2                  	addb	%al, -94(%eax,%eax)
c0192793: 00 db                        	addb	%bl, %bl
c0192795: 00 00                        	addb	%al, (%eax)
c0192797: 00 00                        	addb	%al, (%eax)
c0192799: 00 00                        	addb	%al, (%eax)
c019279b: 00 44 00 a3                  	addb	%al, -93(%eax,%eax)
c019279f: 00 e4                        	addb	%ah, %ah
c01927a1: 00 00                        	addb	%al, (%eax)
c01927a3: 00 00                        	addb	%al, (%eax)
c01927a5: 00 00                        	addb	%al, (%eax)
c01927a7: 00 44 00 a3                  	addb	%al, -93(%eax,%eax)
c01927ab: 00 ea                        	addb	%ch, %dl
c01927ad: 00 00                        	addb	%al, (%eax)
c01927af: 00 00                        	addb	%al, (%eax)
c01927b1: 00 00                        	addb	%al, (%eax)
c01927b3: 00 44 00 a3                  	addb	%al, -93(%eax,%eax)
c01927b7: 00 ee                        	addb	%ch, %dh
c01927b9: 00 00                        	addb	%al, (%eax)
c01927bb: 00 00                        	addb	%al, (%eax)
c01927bd: 00 00                        	addb	%al, (%eax)
c01927bf: 00 44 00 a4                  	addb	%al, -92(%eax,%eax)
c01927c3: 00 f8                        	addb	%bh, %al
c01927c5: 00 00                        	addb	%al, (%eax)
c01927c7: 00 00                        	addb	%al, (%eax)
c01927c9: 00 00                        	addb	%al, (%eax)
c01927cb: 00 44 00 a4                  	addb	%al, -92(%eax,%eax)
c01927cf: 00 07                        	addb	%al, (%edi)
c01927d1: 01 00                        	addl	%eax, (%eax)
c01927d3: 00 00                        	addb	%al, (%eax)
c01927d5: 00 00                        	addb	%al, (%eax)
c01927d7: 00 44 00 a6                  	addb	%al, -90(%eax,%eax)
c01927db: 00 09                        	addb	%cl, (%ecx)
c01927dd: 01 00                        	addl	%eax, (%eax)
c01927df: 00 00                        	addb	%al, (%eax)
c01927e1: 00 00                        	addb	%al, (%eax)
c01927e3: 00 44 00 a6                  	addb	%al, -90(%eax,%eax)
c01927e7: 00 0f                        	addb	%cl, (%edi)
c01927e9: 01 00                        	addl	%eax, (%eax)
c01927eb: 00 00                        	addb	%al, (%eax)
c01927ed: 00 00                        	addb	%al, (%eax)
c01927ef: 00 44 00 a7                  	addb	%al, -89(%eax,%eax)
c01927f3: 00 13                        	addb	%dl, (%ebx)
c01927f5: 01 00                        	addl	%eax, (%eax)
c01927f7: 00 00                        	addb	%al, (%eax)
c01927f9: 00 00                        	addb	%al, (%eax)
c01927fb: 00 44 00 a9                  	addb	%al, -87(%eax,%eax)
c01927ff: 00 21                        	addb	%ah, (%ecx)
c0192801: 01 00                        	addl	%eax, (%eax)
c0192803: 00 00                        	addb	%al, (%eax)
c0192805: 00 00                        	addb	%al, (%eax)
c0192807: 00 44 00 aa                  	addb	%al, -86(%eax,%eax)
c019280b: 00 27                        	addb	%ah, (%edi)
c019280d: 01 00                        	addl	%eax, (%eax)
c019280f: 00 00                        	addb	%al, (%eax)
c0192811: 00 00                        	addb	%al, (%eax)
c0192813: 00 44 00 af                  	addb	%al, -81(%eax,%eax)
c0192817: 00 2e                        	addb	%ch, (%esi)
c0192819: 01 00                        	addl	%eax, (%eax)
c019281b: 00 00                        	addb	%al, (%eax)
c019281d: 00 00                        	addb	%al, (%eax)
c019281f: 00 44 00 af                  	addb	%al, -81(%eax,%eax)
c0192823: 00 34 01                     	addb	%dh, (%ecx,%eax)
c0192826: 00 00                        	addb	%al, (%eax)
c0192828: 00 00                        	addb	%al, (%eax)
c019282a: 00 00                        	addb	%al, (%eax)
c019282c: 44                           	incl	%esp
c019282d: 00 af 00 38 01 00            	addb	%ch, 79872(%edi)
c0192833: 00 00                        	addb	%al, (%eax)
c0192835: 00 00                        	addb	%al, (%eax)
c0192837: 00 44 00 af                  	addb	%al, -81(%eax,%eax)
c019283b: 00 3e                        	addb	%bh, (%esi)
c019283d: 01 00                        	addl	%eax, (%eax)
c019283f: 00 00                        	addb	%al, (%eax)
c0192841: 00 00                        	addb	%al, (%eax)
c0192843: 00 44 00 af                  	addb	%al, -81(%eax,%eax)
c0192847: 00 42 01                     	addb	%al, 1(%edx)
c019284a: 00 00                        	addb	%al, (%eax)
c019284c: 00 00                        	addb	%al, (%eax)
c019284e: 00 00                        	addb	%al, (%eax)
c0192850: 44                           	incl	%esp
c0192851: 00 af 00 48 01 00            	addb	%ch, 83968(%edi)
c0192857: 00 00                        	addb	%al, (%eax)
c0192859: 00 00                        	addb	%al, (%eax)
c019285b: 00 44 00 b1                  	addb	%al, -79(%eax,%eax)
c019285f: 00 4c 01 00                  	addb	%cl, (%ecx,%eax)
c0192863: 00 00                        	addb	%al, (%eax)
c0192865: 00 00                        	addb	%al, (%eax)
c0192867: 00 44 00 b4                  	addb	%al, -76(%eax,%eax)
c019286b: 00 55 01                     	addb	%dl, 1(%ebp)
c019286e: 00 00                        	addb	%al, (%eax)
c0192870: 00 00                        	addb	%al, (%eax)
c0192872: 00 00                        	addb	%al, (%eax)
c0192874: 44                           	incl	%esp
c0192875: 00 b4 00 5e 01 00 00         	addb	%dh, 350(%eax,%eax)
c019287c: 00 00                        	addb	%al, (%eax)
c019287e: 00 00                        	addb	%al, (%eax)
c0192880: 44                           	incl	%esp
c0192881: 00 b6 00 73 01 00            	addb	%dh, 94976(%esi)
c0192887: 00 00                        	addb	%al, (%eax)
c0192889: 00 00                        	addb	%al, (%eax)
c019288b: 00 44 00 b6                  	addb	%al, -74(%eax,%eax)
c019288f: 00 79 01                     	addb	%bh, 1(%ecx)
c0192892: 00 00                        	addb	%al, (%eax)
c0192894: 00 00                        	addb	%al, (%eax)
c0192896: 00 00                        	addb	%al, (%eax)
c0192898: 44                           	incl	%esp
c0192899: 00 b7 00 7d 01 00            	addb	%dh, 97536(%edi)
c019289f: 00 00                        	addb	%al, (%eax)
c01928a1: 00 00                        	addb	%al, (%eax)
c01928a3: 00 44 00 b8                  	addb	%al, -72(%eax,%eax)
c01928a7: 00 7f 01                     	addb	%bh, 1(%edi)
c01928aa: 00 00                        	addb	%al, (%eax)
c01928ac: 00 00                        	addb	%al, (%eax)
c01928ae: 00 00                        	addb	%al, (%eax)
c01928b0: 44                           	incl	%esp
c01928b1: 00 b8 00 88 01 00            	addb	%bh, 100352(%eax)
c01928b7: 00 00                        	addb	%al, (%eax)
c01928b9: 00 00                        	addb	%al, (%eax)
c01928bb: 00 44 00 b7                  	addb	%al, -73(%eax,%eax)
c01928bf: 00 8b 01 00 00 00            	addb	%cl, 1(%ebx)
c01928c5: 00 00                        	addb	%al, (%eax)
c01928c7: 00 44 00 bb                  	addb	%al, -69(%eax,%eax)
c01928cb: 00 95 01 00 00 00            	addb	%dl, 1(%ebp)
c01928d1: 00 00                        	addb	%al, (%eax)
c01928d3: 00 44 00 bb                  	addb	%al, -69(%eax,%eax)
c01928d7: 00 a0 01 00 00 00            	addb	%ah, 1(%eax)
c01928dd: 00 00                        	addb	%al, (%eax)
c01928df: 00 44 00 bb                  	addb	%al, -69(%eax,%eax)
c01928e3: 00 a9 01 00 00 00            	addb	%ch, 1(%ecx)
c01928e9: 00 00                        	addb	%al, (%eax)
c01928eb: 00 44 00 bb                  	addb	%al, -69(%eax,%eax)
c01928ef: 00 ab 01 00 00 00            	addb	%ch, 1(%ebx)
c01928f5: 00 00                        	addb	%al, (%eax)
c01928f7: 00 44 00 bc                  	addb	%al, -68(%eax,%eax)
c01928fb: 00 ad 01 00 00 00            	addb	%ch, 1(%ebp)
c0192901: 00 00                        	addb	%al, (%eax)
c0192903: 00 44 00 bd                  	addb	%al, -67(%eax,%eax)
c0192907: 00 af 01 00 00 00            	addb	%ch, 1(%edi)
c019290d: 00 00                        	addb	%al, (%eax)
c019290f: 00 44 00 bd                  	addb	%al, -67(%eax,%eax)
c0192913: 00 b8 01 00 00 00            	addb	%bh, 1(%eax)
c0192919: 00 00                        	addb	%al, (%eax)
c019291b: 00 44 00 bc                  	addb	%al, -68(%eax,%eax)
c019291f: 00 bb 01 00 00 00            	addb	%bh, 1(%ebx)
c0192925: 00 00                        	addb	%al, (%eax)
c0192927: 00 44 00 bf                  	addb	%al, -65(%eax,%eax)
c019292b: 00 c5                        	addb	%al, %ch
c019292d: 01 00                        	addl	%eax, (%eax)
c019292f: 00 00                        	addb	%al, (%eax)
c0192931: 00 00                        	addb	%al, (%eax)
c0192933: 00 44 00 c2                  	addb	%al, -62(%eax,%eax)
c0192937: 00 ca                        	addb	%cl, %dl
c0192939: 01 00                        	addl	%eax, (%eax)
c019293b: 00 00                        	addb	%al, (%eax)
c019293d: 00 00                        	addb	%al, (%eax)
c019293f: 00 44 00 c3                  	addb	%al, -61(%eax,%eax)
c0192943: 00 d8                        	addb	%bl, %al
c0192945: 01 00                        	addl	%eax, (%eax)
c0192947: 00 00                        	addb	%al, (%eax)
c0192949: 00 00                        	addb	%al, (%eax)
c019294b: 00 44 00 c3                  	addb	%al, -61(%eax,%eax)
c019294f: 00 e6                        	addb	%ah, %dh
c0192951: 01 00                        	addl	%eax, (%eax)
c0192953: 00 00                        	addb	%al, (%eax)
c0192955: 00 00                        	addb	%al, (%eax)
c0192957: 00 44 00 c4                  	addb	%al, -60(%eax,%eax)
c019295b: 00 e9                        	addb	%ch, %cl
c019295d: 01 00                        	addl	%eax, (%eax)
c019295f: 00 00                        	addb	%al, (%eax)
c0192961: 00 00                        	addb	%al, (%eax)
c0192963: 00 44 00 c5                  	addb	%al, -59(%eax,%eax)
c0192967: 00 ef                        	addb	%ch, %bh
c0192969: 01 00                        	addl	%eax, (%eax)
c019296b: 00 00                        	addb	%al, (%eax)
c019296d: 00 00                        	addb	%al, (%eax)
c019296f: 00 44 00 c7                  	addb	%al, -57(%eax,%eax)
c0192973: 00 f7                        	addb	%dh, %bh
c0192975: 01 00                        	addl	%eax, (%eax)
c0192977: 00 00                        	addb	%al, (%eax)
c0192979: 00 00                        	addb	%al, (%eax)
c019297b: 00 44 00 c8                  	addb	%al, -56(%eax,%eax)
c019297f: 00 ff                        	addb	%bh, %bh
c0192981: 01 00                        	addl	%eax, (%eax)
c0192983: 00 00                        	addb	%al, (%eax)
c0192985: 00 00                        	addb	%al, (%eax)
c0192987: 00 44 00 cb                  	addb	%al, -53(%eax,%eax)
c019298b: 00 05 02 00 00 00            	addb	%al, 2
c0192991: 00 00                        	addb	%al, (%eax)
c0192993: 00 44 00 cb                  	addb	%al, -53(%eax,%eax)
c0192997: 00 0b                        	addb	%cl, (%ebx)
c0192999: 02 00                        	addb	(%eax), %al
c019299b: 00 00                        	addb	%al, (%eax)
c019299d: 00 00                        	addb	%al, (%eax)
c019299f: 00 44 00 cc                  	addb	%al, -52(%eax,%eax)
c01929a3: 00 0f                        	addb	%cl, (%edi)
c01929a5: 02 00                        	addb	(%eax), %al
c01929a7: 00 00                        	addb	%al, (%eax)
c01929a9: 00 00                        	addb	%al, (%eax)
c01929ab: 00 44 00 cd                  	addb	%al, -51(%eax,%eax)
c01929af: 00 11                        	addb	%dl, (%ecx)
c01929b1: 02 00                        	addb	(%eax), %al
c01929b3: 00 00                        	addb	%al, (%eax)
c01929b5: 00 00                        	addb	%al, (%eax)
c01929b7: 00 44 00 cd                  	addb	%al, -51(%eax,%eax)
c01929bb: 00 1a                        	addb	%bl, (%edx)
c01929bd: 02 00                        	addb	(%eax), %al
c01929bf: 00 00                        	addb	%al, (%eax)
c01929c1: 00 00                        	addb	%al, (%eax)
c01929c3: 00 44 00 cc                  	addb	%al, -52(%eax,%eax)
c01929c7: 00 1d 02 00 00 00            	addb	%bl, 2
c01929cd: 00 00                        	addb	%al, (%eax)
c01929cf: 00 44 00 cc                  	addb	%al, -52(%eax,%eax)
c01929d3: 00 26                        	addb	%ah, (%esi)
c01929d5: 02 00                        	addb	(%eax), %al
c01929d7: 00 00                        	addb	%al, (%eax)
c01929d9: 00 00                        	addb	%al, (%eax)
c01929db: 00 44 00 d0                  	addb	%al, -48(%eax,%eax)
c01929df: 00 2b                        	addb	%ch, (%ebx)
c01929e1: 02 00                        	addb	(%eax), %al
c01929e3: 00 00                        	addb	%al, (%eax)
c01929e5: 00 00                        	addb	%al, (%eax)
c01929e7: 00 44 00 d0                  	addb	%al, -48(%eax,%eax)
c01929eb: 00 32                        	addb	%dh, (%edx)
c01929ed: 02 00                        	addb	(%eax), %al
c01929ef: 00 00                        	addb	%al, (%eax)
c01929f1: 00 00                        	addb	%al, (%eax)
c01929f3: 00 44 00 d1                  	addb	%al, -47(%eax,%eax)
c01929f7: 00 34 02                     	addb	%dh, (%edx,%eax)
c01929fa: 00 00                        	addb	%al, (%eax)
c01929fc: 00 00                        	addb	%al, (%eax)
c01929fe: 00 00                        	addb	%al, (%eax)
c0192a00: 44                           	incl	%esp
c0192a01: 00 d1                        	addb	%dl, %cl
c0192a03: 00 3d 02 00 00 00            	addb	%bh, 2
c0192a09: 00 00                        	addb	%al, (%eax)
c0192a0b: 00 44 00 d1                  	addb	%al, -47(%eax,%eax)
c0192a0f: 00 46 02                     	addb	%al, 2(%esi)
c0192a12: 00 00                        	addb	%al, (%eax)
c0192a14: 00 00                        	addb	%al, (%eax)
c0192a16: 00 00                        	addb	%al, (%eax)
c0192a18: 44                           	incl	%esp
c0192a19: 00 d1                        	addb	%dl, %cl
c0192a1b: 00 49 02                     	addb	%cl, 2(%ecx)
c0192a1e: 00 00                        	addb	%al, (%eax)
c0192a20: 00 00                        	addb	%al, (%eax)
c0192a22: 00 00                        	addb	%al, (%eax)
c0192a24: 44                           	incl	%esp
c0192a25: 00 d0                        	addb	%dl, %al
c0192a27: 00 4b 02                     	addb	%cl, 2(%ebx)
c0192a2a: 00 00                        	addb	%al, (%eax)
c0192a2c: 00 00                        	addb	%al, (%eax)
c0192a2e: 00 00                        	addb	%al, (%eax)
c0192a30: 44                           	incl	%esp
c0192a31: 00 d0                        	addb	%dl, %al
c0192a33: 00 4f 02                     	addb	%cl, 2(%edi)
c0192a36: 00 00                        	addb	%al, (%eax)
c0192a38: 00 00                        	addb	%al, (%eax)
c0192a3a: 00 00                        	addb	%al, (%eax)
c0192a3c: 44                           	incl	%esp
c0192a3d: 00 d3                        	addb	%dl, %bl
c0192a3f: 00 57 02                     	addb	%dl, 2(%edi)
c0192a42: 00 00                        	addb	%al, (%eax)
c0192a44: 00 00                        	addb	%al, (%eax)
c0192a46: 00 00                        	addb	%al, (%eax)
c0192a48: 44                           	incl	%esp
c0192a49: 00 d4                        	addb	%dl, %ah
c0192a4b: 00 59 02                     	addb	%bl, 2(%ecx)
c0192a4e: 00 00                        	addb	%al, (%eax)
c0192a50: 00 00                        	addb	%al, (%eax)
c0192a52: 00 00                        	addb	%al, (%eax)
c0192a54: 44                           	incl	%esp
c0192a55: 00 d4                        	addb	%dl, %ah
c0192a57: 00 62 02                     	addb	%ah, 2(%edx)
c0192a5a: 00 00                        	addb	%al, (%eax)
c0192a5c: 00 00                        	addb	%al, (%eax)
c0192a5e: 00 00                        	addb	%al, (%eax)
c0192a60: 44                           	incl	%esp
c0192a61: 00 d3                        	addb	%dl, %bl
c0192a63: 00 65 02                     	addb	%ah, 2(%ebp)
c0192a66: 00 00                        	addb	%al, (%eax)
c0192a68: 00 00                        	addb	%al, (%eax)
c0192a6a: 00 00                        	addb	%al, (%eax)
c0192a6c: 44                           	incl	%esp
c0192a6d: 00 d3                        	addb	%dl, %bl
c0192a6f: 00 6e 02                     	addb	%ch, 2(%esi)
c0192a72: 00 00                        	addb	%al, (%eax)
c0192a74: 00 00                        	addb	%al, (%eax)
c0192a76: 00 00                        	addb	%al, (%eax)
c0192a78: 44                           	incl	%esp
c0192a79: 00 d6                        	addb	%dl, %dh
c0192a7b: 00 73 02                     	addb	%dh, 2(%ebx)
c0192a7e: 00 00                        	addb	%al, (%eax)
c0192a80: 00 00                        	addb	%al, (%eax)
c0192a82: 00 00                        	addb	%al, (%eax)
c0192a84: 44                           	incl	%esp
c0192a85: 00 d9                        	addb	%bl, %cl
c0192a87: 00 78 02                     	addb	%bh, 2(%eax)
c0192a8a: 00 00                        	addb	%al, (%eax)
c0192a8c: 00 00                        	addb	%al, (%eax)
c0192a8e: 00 00                        	addb	%al, (%eax)
c0192a90: 44                           	incl	%esp
c0192a91: 00 d9                        	addb	%bl, %cl
c0192a93: 00 83 02 00 00 00            	addb	%al, 2(%ebx)
c0192a99: 00 00                        	addb	%al, (%eax)
c0192a9b: 00 44 00 da                  	addb	%al, -38(%eax,%eax)
c0192a9f: 00 a0 02 00 00 00            	addb	%ah, 2(%eax)
c0192aa5: 00 00                        	addb	%al, (%eax)
c0192aa7: 00 44 00 dd                  	addb	%al, -35(%eax,%eax)
c0192aab: 00 a5 02 00 00 00            	addb	%ah, 2(%ebp)
c0192ab1: 00 00                        	addb	%al, (%eax)
c0192ab3: 00 44 00 de                  	addb	%al, -34(%eax,%eax)
c0192ab7: 00 ab 02 00 00 00            	addb	%ch, 2(%ebx)
c0192abd: 00 00                        	addb	%al, (%eax)
c0192abf: 00 44 00 df                  	addb	%al, -33(%eax,%eax)
c0192ac3: 00 b2 02 00 00 00            	addb	%dh, 2(%edx)
c0192ac9: 00 00                        	addb	%al, (%eax)
c0192acb: 00 44 00 e1                  	addb	%al, -31(%eax,%eax)
c0192acf: 00 b6 02 00 00 00            	addb	%dh, 2(%esi)
c0192ad5: 00 00                        	addb	%al, (%eax)
c0192ad7: 00 44 00 e1                  	addb	%al, -31(%eax,%eax)
c0192adb: 00 c1                        	addb	%al, %cl
c0192add: 02 00                        	addb	(%eax), %al
c0192adf: 00 00                        	addb	%al, (%eax)
c0192ae1: 00 00                        	addb	%al, (%eax)
c0192ae3: 00 44 00 e2                  	addb	%al, -30(%eax,%eax)
c0192ae7: 00 de                        	addb	%bl, %dh
c0192ae9: 02 00                        	addb	(%eax), %al
c0192aeb: 00 00                        	addb	%al, (%eax)
c0192aed: 00 00                        	addb	%al, (%eax)
c0192aef: 00 44 00 e5                  	addb	%al, -27(%eax,%eax)
c0192af3: 00 e3                        	addb	%ah, %bl
c0192af5: 02 00                        	addb	(%eax), %al
c0192af7: 00 00                        	addb	%al, (%eax)
c0192af9: 00 00                        	addb	%al, (%eax)
c0192afb: 00 44 00 e7                  	addb	%al, -25(%eax,%eax)
c0192aff: 00 e7                        	addb	%ah, %bh
c0192b01: 02 00                        	addb	(%eax), %al
c0192b03: 00 00                        	addb	%al, (%eax)
c0192b05: 00 00                        	addb	%al, (%eax)
c0192b07: 00 44 00 e7                  	addb	%al, -25(%eax,%eax)
c0192b0b: 00 f2                        	addb	%dh, %dl
c0192b0d: 02 00                        	addb	(%eax), %al
c0192b0f: 00 00                        	addb	%al, (%eax)
c0192b11: 00 00                        	addb	%al, (%eax)
c0192b13: 00 44 00 e8                  	addb	%al, -24(%eax,%eax)
c0192b17: 00 0f                        	addb	%cl, (%edi)
c0192b19: 03 00                        	addl	(%eax), %eax
c0192b1b: 00 00                        	addb	%al, (%eax)
c0192b1d: 00 00                        	addb	%al, (%eax)
c0192b1f: 00 44 00 ec                  	addb	%al, -20(%eax,%eax)
c0192b23: 00 14 03                     	addb	%dl, (%ebx,%eax)
c0192b26: 00 00                        	addb	%al, (%eax)
c0192b28: 00 00                        	addb	%al, (%eax)
c0192b2a: 00 00                        	addb	%al, (%eax)
c0192b2c: 44                           	incl	%esp
c0192b2d: 00 ee                        	addb	%ch, %dh
c0192b2f: 00 18                        	addb	%bl, (%eax)
c0192b31: 03 00                        	addl	(%eax), %eax
c0192b33: 00 00                        	addb	%al, (%eax)
c0192b35: 00 00                        	addb	%al, (%eax)
c0192b37: 00 44 00 ee                  	addb	%al, -18(%eax,%eax)
c0192b3b: 00 23                        	addb	%ah, (%ebx)
c0192b3d: 03 00                        	addl	(%eax), %eax
c0192b3f: 00 00                        	addb	%al, (%eax)
c0192b41: 00 00                        	addb	%al, (%eax)
c0192b43: 00 44 00 ef                  	addb	%al, -17(%eax,%eax)
c0192b47: 00 40 03                     	addb	%al, 3(%eax)
c0192b4a: 00 00                        	addb	%al, (%eax)
c0192b4c: 00 00                        	addb	%al, (%eax)
c0192b4e: 00 00                        	addb	%al, (%eax)
c0192b50: 44                           	incl	%esp
c0192b51: 00 f1                        	addb	%dh, %cl
c0192b53: 00 45 03                     	addb	%al, 3(%ebp)
c0192b56: 00 00                        	addb	%al, (%eax)
c0192b58: 00 00                        	addb	%al, (%eax)
c0192b5a: 00 00                        	addb	%al, (%eax)
c0192b5c: 44                           	incl	%esp
c0192b5d: 00 f1                        	addb	%dh, %cl
c0192b5f: 00 50 03                     	addb	%dl, 3(%eax)
c0192b62: 00 00                        	addb	%al, (%eax)
c0192b64: 00 00                        	addb	%al, (%eax)
c0192b66: 00 00                        	addb	%al, (%eax)
c0192b68: 44                           	incl	%esp
c0192b69: 00 f2                        	addb	%dh, %dl
c0192b6b: 00 6d 03                     	addb	%ch, 3(%ebp)
c0192b6e: 00 00                        	addb	%al, (%eax)
c0192b70: 00 00                        	addb	%al, (%eax)
c0192b72: 00 00                        	addb	%al, (%eax)
c0192b74: 44                           	incl	%esp
c0192b75: 00 f5                        	addb	%dh, %ch
c0192b77: 00 6f 03                     	addb	%ch, 3(%edi)
c0192b7a: 00 00                        	addb	%al, (%eax)
c0192b7c: 00 00                        	addb	%al, (%eax)
c0192b7e: 00 00                        	addb	%al, (%eax)
c0192b80: 44                           	incl	%esp
c0192b81: 00 f6                        	addb	%dh, %dh
c0192b83: 00 7d 03                     	addb	%bh, 3(%ebp)
c0192b86: 00 00                        	addb	%al, (%eax)
c0192b88: 00 00                        	addb	%al, (%eax)
c0192b8a: 00 00                        	addb	%al, (%eax)
c0192b8c: 44                           	incl	%esp
c0192b8d: 00 f6                        	addb	%dh, %dh
c0192b8f: 00 85 03 00 00 00            	addb	%al, 3(%ebp)
c0192b95: 00 00                        	addb	%al, (%eax)
c0192b97: 00 44 00 f7                  	addb	%al, -9(%eax,%eax)
c0192b9b: 00 8a 03 00 00 00            	addb	%cl, 3(%edx)
c0192ba1: 00 00                        	addb	%al, (%eax)
c0192ba3: 00 44 00 fa                  	addb	%al, -6(%eax,%eax)
c0192ba7: 00 8c 03 00 00 00 00         	addb	%cl, (%ebx,%eax)
c0192bae: 00 00                        	addb	%al, (%eax)
c0192bb0: 44                           	incl	%esp
c0192bb1: 00 fa                        	addb	%bh, %dl
c0192bb3: 00 92 03 00 00 00            	addb	%dl, 3(%edx)
c0192bb9: 00 00                        	addb	%al, (%eax)
c0192bbb: 00 44 00 fb                  	addb	%al, -5(%eax,%eax)
c0192bbf: 00 96 03 00 00 00            	addb	%dl, 3(%esi)
c0192bc5: 00 00                        	addb	%al, (%eax)
c0192bc7: 00 44 00 fb                  	addb	%al, -5(%eax,%eax)
c0192bcb: 00 9f 03 00 00 00            	addb	%bl, 3(%edi)
c0192bd1: 00 00                        	addb	%al, (%eax)
c0192bd3: 00 44 00 fc                  	addb	%al, -4(%eax,%eax)
c0192bd7: 00 a2 03 00 00 00            	addb	%ah, 3(%edx)
c0192bdd: 00 00                        	addb	%al, (%eax)
c0192bdf: 00 44 00 fc                  	addb	%al, -4(%eax,%eax)
c0192be3: 00 a8 03 00 00 00            	addb	%ch, 3(%eax)
c0192be9: 00 00                        	addb	%al, (%eax)
c0192beb: 00 44 00 fd                  	addb	%al, -3(%eax,%eax)
c0192bef: 00 ac 03 00 00 00 00         	addb	%ch, (%ebx,%eax)
c0192bf6: 00 00                        	addb	%al, (%eax)
c0192bf8: 44                           	incl	%esp
c0192bf9: 00 fd                        	addb	%bh, %ch
c0192bfb: 00 af 03 00 00 00            	addb	%ch, 3(%edi)
c0192c01: 00 00                        	addb	%al, (%eax)
c0192c03: 00 44 00 fd                  	addb	%al, -3(%eax,%eax)
c0192c07: 00 b8 03 00 00 00            	addb	%bh, 3(%eax)
c0192c0d: 00 00                        	addb	%al, (%eax)
c0192c0f: 00 44 00 fd                  	addb	%al, -3(%eax,%eax)
c0192c13: 00 bb 03 00 00 00            	addb	%bh, 3(%ebx)
c0192c19: 00 00                        	addb	%al, (%eax)
c0192c1b: 00 44 00 01                  	addb	%al, 1(%eax,%eax)
c0192c1f: 01 bd 03 00 00 00            	addl	%edi, 3(%ebp)
c0192c25: 00 00                        	addb	%al, (%eax)
c0192c27: 00 44 00 ff                  	addb	%al, -1(%eax,%eax)
c0192c2b: 00 bf 03 00 00 00            	addb	%bh, 3(%edi)
c0192c31: 00 00                        	addb	%al, (%eax)
c0192c33: 00 44 00 01                  	addb	%al, 1(%eax,%eax)
c0192c37: 01 c8                        	addl	%ecx, %eax
c0192c39: 03 00                        	addl	(%eax), %eax
c0192c3b: 00 00                        	addb	%al, (%eax)
c0192c3d: 00 00                        	addb	%al, (%eax)
c0192c3f: 00 44 00 83                  	addb	%al, -125(%eax,%eax)
c0192c43: 00 c9                        	addb	%cl, %cl
c0192c45: 03 00                        	addl	(%eax), %eax
c0192c47: 00 00                        	addb	%al, (%eax)
c0192c49: 00 00                        	addb	%al, (%eax)
c0192c4b: 00 44 00 83                  	addb	%al, -125(%eax,%eax)
c0192c4f: 00 d2                        	addb	%dl, %dl
c0192c51: 03 00                        	addl	(%eax), %eax
c0192c53: 00 00                        	addb	%al, (%eax)
c0192c55: 00 00                        	addb	%al, (%eax)
c0192c57: 00 44 00 04                  	addb	%al, 4(%eax,%eax)
c0192c5b: 01 e0                        	addl	%esp, %eax
c0192c5d: 03 00                        	addl	(%eax), %eax
c0192c5f: 00 00                        	addb	%al, (%eax)
c0192c61: 00 00                        	addb	%al, (%eax)
c0192c63: 00 44 00 06                  	addb	%al, 6(%eax,%eax)
c0192c67: 01 e6                        	addl	%esp, %esi
c0192c69: 03 00                        	addl	(%eax), %eax
c0192c6b: 00 00                        	addb	%al, (%eax)
c0192c6d: 00 00                        	addb	%al, (%eax)
c0192c6f: 00 44 00 07                  	addb	%al, 7(%eax,%eax)
c0192c73: 01 ec                        	addl	%ebp, %esp
c0192c75: 03 00                        	addl	(%eax), %eax
c0192c77: 00 41 18                     	addb	%al, 24(%ecx)
c0192c7a: 00 00                        	addb	%al, (%eax)
c0192c7c: 80 00 78                     	addb	$120, (%eax)
c0192c7f: 00 f4                        	addb	%dh, %ah
c0192c81: ff ff                        	<unknown>
c0192c83: ff b5 16 00 00 80            	pushl	-2147483626(%ebp)
c0192c89: 00 79 00                     	addb	%bh, (%ecx)
c0192c8c: f0                           	lock
c0192c8d: ff ff                        	<unknown>
c0192c8f: ff 4b 18                     	decl	24(%ebx)
c0192c92: 00 00                        	addb	%al, (%eax)
c0192c94: 80 00 7a                     	addb	$122, (%eax)
c0192c97: 00 ec                        	addb	%ch, %ah
c0192c99: ff ff                        	<unknown>
c0192c9b: ff 55 18                     	calll	*24(%ebp)
c0192c9e: 00 00                        	addb	%al, (%eax)
c0192ca0: 80 00 7b                     	addb	$123, (%eax)
c0192ca3: 00 e8                        	addb	%ch, %al
c0192ca5: ff ff                        	<unknown>
c0192ca7: ff 5d 18                     	lcalll	*24(%ebp)
c0192caa: 00 00                        	addb	%al, (%eax)
c0192cac: 80 00 7c                     	addb	$124, (%eax)
c0192caf: 00 d8                        	addb	%bl, %al
c0192cb1: ff ff                        	<unknown>
c0192cb3: ff 6e 18                     	ljmpl	*24(%esi)
c0192cb6: 00 00                        	addb	%al, (%eax)
c0192cb8: 80 00 7e                     	addb	$126, (%eax)
c0192cbb: 00 e4                        	addb	%ah, %ah
c0192cbd: ff ff                        	<unknown>
c0192cbf: ff 7a 18                     	<unknown>
c0192cc2: 00 00                        	addb	%al, (%eax)
c0192cc4: 80 00 7f                     	addb	$127, (%eax)
c0192cc7: 00 e0                        	addb	%ah, %al
c0192cc9: ff ff                        	<unknown>
c0192ccb: ff 8c 18 00 00 80 00         	decl	8388608(%eax,%ebx)
c0192cd2: 80 00 dc                     	addb	$-36, (%eax)
c0192cd5: ff ff                        	<unknown>
c0192cd7: ff 00                        	incl	(%eax)
c0192cd9: 00 00                        	addb	%al, (%eax)
c0192cdb: 00 c0                        	addb	%al, %al
		...
c0192ce5: 00 00                        	addb	%al, (%eax)
c0192ce7: 00 e0                        	addb	%ah, %al
c0192ce9: 00 00                        	addb	%al, (%eax)
c0192ceb: 00 ee                        	addb	%ch, %dh
c0192ced: 03 00                        	addl	(%eax), %eax
c0192cef: 00 00                        	addb	%al, (%eax)
c0192cf1: 00 00                        	addb	%al, (%eax)
c0192cf3: 00 24 00                     	addb	%ah, (%eax,%eax)
c0192cf6: 00 00                        	addb	%al, (%eax)
c0192cf8: ee                           	outb	%al, %dx
c0192cf9: 03 00                        	addl	(%eax), %eax
c0192cfb: 00 00                        	addb	%al, (%eax)
c0192cfd: 00 00                        	addb	%al, (%eax)
c0192cff: 00 64 00 00                  	addb	%ah, (%eax,%eax)
c0192d03: 00 23                        	addb	%ah, (%ebx)
c0192d05: 28 10                        	subb	%dl, (%eax)
c0192d07: c0 30                        	<unknown>
c0192d09: 00 00                        	addb	%al, (%eax)
c0192d0b: 00 64 00 02                  	addb	%ah, 2(%eax,%eax)
c0192d0f: 00 23                        	addb	%ah, (%ebx)
c0192d11: 28 10                        	subb	%dl, (%eax)
c0192d13: c0 9c 18 00 00 64 00 02      	rcrb	$2, 6553600(%eax,%ebx)
c0192d1b: 00 23                        	addb	%ah, (%ebx)
c0192d1d: 28 10                        	subb	%dl, (%eax)
c0192d1f: c0 63 00 00                  	shlb	$0, (%ebx)
c0192d23: 00 3c 00                     	addb	%bh, (%eax,%eax)
c0192d26: 00 00                        	addb	%al, (%eax)
c0192d28: 00 00                        	addb	%al, (%eax)
c0192d2a: 00 00                        	addb	%al, (%eax)
c0192d2c: ab                           	stosl	%eax, %es:(%edi)
c0192d2d: 18 00                        	sbbb	%al, (%eax)
c0192d2f: 00 28                        	addb	%ch, (%eax)
c0192d31: 00 05 00 c0 e4 18            	addb	%al, 417644544
c0192d37: c0 cc 18                     	rorb	$24, %ah
c0192d3a: 00 00                        	addb	%al, (%eax)
c0192d3c: 80 00 00                     	addb	$0, (%eax)
c0192d3f: 00 00                        	addb	%al, (%eax)
c0192d41: 00 00                        	addb	%al, (%eax)
c0192d43: 00 85 19 00 00 80            	addb	%al, -2147483623(%ebp)
c0192d49: 00 28                        	addb	%ch, (%eax)
c0192d4b: 00 00                        	addb	%al, (%eax)
c0192d4d: 00 00                        	addb	%al, (%eax)
c0192d4f: 00 92 19 00 00 80            	addb	%dl, -2147483623(%edx)
c0192d55: 00 00                        	addb	%al, (%eax)
c0192d57: 00 00                        	addb	%al, (%eax)
c0192d59: 00 00                        	addb	%al, (%eax)
c0192d5b: 00 4d 1a                     	addb	%cl, 26(%ebp)
c0192d5e: 00 00                        	addb	%al, (%eax)
c0192d60: 80 00 1b                     	addb	$27, (%eax)
c0192d63: 00 00                        	addb	%al, (%eax)
c0192d65: 00 00                        	addb	%al, (%eax)
c0192d67: 00 5d 1a                     	addb	%bl, 26(%ebp)
c0192d6a: 00 00                        	addb	%al, (%eax)
c0192d6c: 80 00 00                     	addb	$0, (%eax)
c0192d6f: 00 00                        	addb	%al, (%eax)
c0192d71: 00 00                        	addb	%al, (%eax)
c0192d73: 00 86 0b 00 00 80            	addb	%al, -2147483637(%esi)
c0192d79: 00 00                        	addb	%al, (%eax)
c0192d7b: 00 00                        	addb	%al, (%eax)
c0192d7d: 00 00                        	addb	%al, (%eax)
c0192d7f: 00 71 1a                     	addb	%dh, 26(%ecx)
c0192d82: 00 00                        	addb	%al, (%eax)
c0192d84: 80 00 1f                     	addb	$31, (%eax)
c0192d87: 00 00                        	addb	%al, (%eax)
c0192d89: 00 00                        	addb	%al, (%eax)
c0192d8b: 00 81 1a 00 00 80            	addb	%al, -2147483622(%ecx)
c0192d91: 00 00                        	addb	%al, (%eax)
c0192d93: 00 00                        	addb	%al, (%eax)
c0192d95: 00 00                        	addb	%al, (%eax)
c0192d97: 00 97 1a 00 00 80            	addb	%dl, -2147483622(%edi)
c0192d9d: 00 1d 00 00 00 00            	addb	%bl, 0
c0192da3: 00 a8 1a 00 00 80            	addb	%ch, -2147483622(%eax)
c0192da9: 00 00                        	addb	%al, (%eax)
c0192dab: 00 00                        	addb	%al, (%eax)
c0192dad: 00 00                        	addb	%al, (%eax)
c0192daf: 00 c3                        	addb	%al, %bl
c0192db1: 1a 00                        	sbbb	(%eax), %al
c0192db3: 00 24 00                     	addb	%ah, (%eax,%eax)
c0192db6: 07                           	popl	%es
c0192db7: 00 23                        	addb	%ah, (%ebx)
c0192db9: 28 10                        	subb	%dl, (%eax)
c0192dbb: c0 dd 1a                     	rcrb	$26, %ch
c0192dbe: 00 00                        	addb	%al, (%eax)
c0192dc0: 80 00 00                     	addb	$0, (%eax)
		...
c0192dcb: 00 44 00 08                  	addb	%al, 8(%eax,%eax)
		...
c0192dd7: 00 44 00 0a                  	addb	%al, 10(%eax,%eax)
c0192ddb: 00 06                        	addb	%al, (%esi)
c0192ddd: 00 00                        	addb	%al, (%eax)
c0192ddf: 00 00                        	addb	%al, (%eax)
c0192de1: 00 00                        	addb	%al, (%eax)
c0192de3: 00 44 00 0b                  	addb	%al, 11(%eax,%eax)
c0192de7: 00 3c 00                     	addb	%bh, (%eax,%eax)
c0192dea: 00 00                        	addb	%al, (%eax)
c0192dec: 00 00                        	addb	%al, (%eax)
c0192dee: 00 00                        	addb	%al, (%eax)
c0192df0: 24 00                        	andb	$0, %al
c0192df2: 00 00                        	addb	%al, (%eax)
c0192df4: 3f                           	aas
c0192df5: 00 00                        	addb	%al, (%eax)
c0192df7: 00 ea                        	addb	%ch, %dl
c0192df9: 1a 00                        	sbbb	(%eax), %al
c0192dfb: 00 24 00                     	addb	%ah, (%eax,%eax)
c0192dfe: 0d 00 62 28 10               	orl	$271081984, %eax
c0192e03: c0 f8 1a                     	sarb	$26, %al
c0192e06: 00 00                        	addb	%al, (%eax)
c0192e08: a0 00 0d 00 08               	movb	134221056, %al
c0192e0d: 00 00                        	addb	%al, (%eax)
c0192e0f: 00 00                        	addb	%al, (%eax)
c0192e11: 00 00                        	addb	%al, (%eax)
c0192e13: 00 44 00 0e                  	addb	%al, 14(%eax,%eax)
		...
c0192e1f: 00 44 00 12                  	addb	%al, 18(%eax,%eax)
c0192e23: 00 06                        	addb	%al, (%esi)
c0192e25: 00 00                        	addb	%al, (%eax)
c0192e27: 00 00                        	addb	%al, (%eax)
c0192e29: 00 00                        	addb	%al, (%eax)
c0192e2b: 00 44 00 17                  	addb	%al, 23(%eax,%eax)
c0192e2f: 00 0b                        	addb	%cl, (%ebx)
c0192e31: 00 00                        	addb	%al, (%eax)
c0192e33: 00 00                        	addb	%al, (%eax)
c0192e35: 00 00                        	addb	%al, (%eax)
c0192e37: 00 44 00 18                  	addb	%al, 24(%eax,%eax)
c0192e3b: 00 1b                        	addb	%bl, (%ebx)
c0192e3d: 00 00                        	addb	%al, (%eax)
c0192e3f: 00 00                        	addb	%al, (%eax)
c0192e41: 00 00                        	addb	%al, (%eax)
c0192e43: 00 44 00 19                  	addb	%al, 25(%eax,%eax)
c0192e47: 00 2b                        	addb	%ch, (%ebx)
c0192e49: 00 00                        	addb	%al, (%eax)
c0192e4b: 00 00                        	addb	%al, (%eax)
c0192e4d: 00 00                        	addb	%al, (%eax)
c0192e4f: 00 44 00 1b                  	addb	%al, 27(%eax,%eax)
c0192e53: 00 3e                        	addb	%bh, (%esi)
c0192e55: 00 00                        	addb	%al, (%eax)
c0192e57: 00 00                        	addb	%al, (%eax)
c0192e59: 00 00                        	addb	%al, (%eax)
c0192e5b: 00 44 00 1c                  	addb	%al, 28(%eax,%eax)
c0192e5f: 00 40 00                     	addb	%al, (%eax)
c0192e62: 00 00                        	addb	%al, (%eax)
c0192e64: 00 00                        	addb	%al, (%eax)
c0192e66: 00 00                        	addb	%al, (%eax)
c0192e68: 44                           	incl	%esp
c0192e69: 00 1d 00 49 00 00            	addb	%bl, 18688
c0192e6f: 00 00                        	addb	%al, (%eax)
c0192e71: 00 00                        	addb	%al, (%eax)
c0192e73: 00 44 00 1e                  	addb	%al, 30(%eax,%eax)
c0192e77: 00 76 00                     	addb	%dh, (%esi)
c0192e7a: 00 00                        	addb	%al, (%eax)
c0192e7c: 00 00                        	addb	%al, (%eax)
c0192e7e: 00 00                        	addb	%al, (%eax)
c0192e80: 44                           	incl	%esp
c0192e81: 00 1e                        	addb	%bl, (%esi)
c0192e83: 00 7b 00                     	addb	%bh, (%ebx)
c0192e86: 00 00                        	addb	%al, (%eax)
c0192e88: 00 00                        	addb	%al, (%eax)
c0192e8a: 00 00                        	addb	%al, (%eax)
c0192e8c: 44                           	incl	%esp
c0192e8d: 00 1b                        	addb	%bl, (%ebx)
c0192e8f: 00 7e 00                     	addb	%bh, (%esi)
c0192e92: 00 00                        	addb	%al, (%eax)
c0192e94: 00 00                        	addb	%al, (%eax)
c0192e96: 00 00                        	addb	%al, (%eax)
c0192e98: 44                           	incl	%esp
c0192e99: 00 21                        	addb	%ah, (%ecx)
c0192e9b: 00 84 00 00 00 00 00         	addb	%al, (%eax,%eax)
c0192ea2: 00 00                        	addb	%al, (%eax)
c0192ea4: 44                           	incl	%esp
c0192ea5: 00 23                        	addb	%ah, (%ebx)
c0192ea7: 00 94 00 00 00 03 1b         	addb	%dl, 453181440(%eax,%eax)
c0192eae: 00 00                        	addb	%al, (%eax)
c0192eb0: 80 00 0f                     	addb	$15, (%eax)
c0192eb3: 00 f4                        	addb	%dh, %ah
c0192eb5: ff ff                        	<unknown>
c0192eb7: ff 15 1b 00 00 80            	calll	*-2147483621
c0192ebd: 00 10                        	addb	%dl, (%eax)
c0192ebf: 00 f0                        	addb	%dh, %al
c0192ec1: ff ff                        	<unknown>
c0192ec3: ff 00                        	incl	(%eax)
c0192ec5: 00 00                        	addb	%al, (%eax)
c0192ec7: 00 c0                        	addb	%al, %al
		...
c0192ed1: 00 00                        	addb	%al, (%eax)
c0192ed3: 00 e0                        	addb	%ah, %al
c0192ed5: 00 00                        	addb	%al, (%eax)
c0192ed7: 00 96 00 00 00 00            	addb	%dl, (%esi)
c0192edd: 00 00                        	addb	%al, (%eax)
c0192edf: 00 24 00                     	addb	%ah, (%eax,%eax)
c0192ee2: 00 00                        	addb	%al, (%eax)
c0192ee4: 96                           	xchgl	%esi, %eax
c0192ee5: 00 00                        	addb	%al, (%eax)
c0192ee7: 00 20                        	addb	%ah, (%eax)
c0192ee9: 1b 00                        	sbbl	(%eax), %eax
c0192eeb: 00 24 00                     	addb	%ah, (%eax,%eax)
c0192eee: 26 00 f8                     	addb	%bh, %al
c0192ef1: 28 10                        	subb	%dl, (%eax)
c0192ef3: c0 00 00                     	rolb	$0, (%eax)
c0192ef6: 00 00                        	addb	%al, (%eax)
c0192ef8: 44                           	incl	%esp
c0192ef9: 00 27                        	addb	%ah, (%edi)
		...
c0192f03: 00 44 00 2b                  	addb	%al, 43(%eax,%eax)
c0192f07: 00 06                        	addb	%al, (%esi)
c0192f09: 00 00                        	addb	%al, (%eax)
c0192f0b: 00 00                        	addb	%al, (%eax)
c0192f0d: 00 00                        	addb	%al, (%eax)
c0192f0f: 00 44 00 33                  	addb	%al, 51(%eax,%eax)
c0192f13: 00 12                        	addb	%dl, (%edx)
c0192f15: 00 00                        	addb	%al, (%eax)
c0192f17: 00 00                        	addb	%al, (%eax)
c0192f19: 00 00                        	addb	%al, (%eax)
c0192f1b: 00 44 00 34                  	addb	%al, 52(%eax,%eax)
c0192f1f: 00 30                        	addb	%dh, (%eax)
c0192f21: 00 00                        	addb	%al, (%eax)
c0192f23: 00 00                        	addb	%al, (%eax)
c0192f25: 00 00                        	addb	%al, (%eax)
c0192f27: 00 44 00 35                  	addb	%al, 53(%eax,%eax)
c0192f2b: 00 4e 00                     	addb	%cl, (%esi)
c0192f2e: 00 00                        	addb	%al, (%eax)
c0192f30: 00 00                        	addb	%al, (%eax)
c0192f32: 00 00                        	addb	%al, (%eax)
c0192f34: 44                           	incl	%esp
c0192f35: 00 36                        	addb	%dh, (%esi)
c0192f37: 00 6c 00 00                  	addb	%ch, (%eax,%eax)
c0192f3b: 00 00                        	addb	%al, (%eax)
c0192f3d: 00 00                        	addb	%al, (%eax)
c0192f3f: 00 44 00 38                  	addb	%al, 56(%eax,%eax)
c0192f43: 00 8a 00 00 00 00            	addb	%cl, (%edx)
c0192f49: 00 00                        	addb	%al, (%eax)
c0192f4b: 00 44 00 39                  	addb	%al, 57(%eax,%eax)
c0192f4f: 00 97 00 00 00 33            	addb	%dl, 855638016(%edi)
c0192f55: 1b 00                        	sbbl	(%eax), %eax
c0192f57: 00 26                        	addb	%ah, (%esi)
c0192f59: 00 28                        	addb	%ch, (%eax)
c0192f5b: 00 d0                        	addb	%dl, %al
c0192f5d: e4 18                        	inb	$24, %al
c0192f5f: c0 61 1b 00                  	shlb	$0, 27(%ecx)
c0192f63: 00 80 00 00 00 00            	addb	%al, (%eax)
c0192f69: 00 00                        	addb	%al, (%eax)
c0192f6b: 00 6d 1b                     	addb	%ch, 27(%ebp)
c0192f6e: 00 00                        	addb	%al, (%eax)
c0192f70: 80 00 29                     	addb	$41, (%eax)
c0192f73: 00 f6                        	addb	%dh, %dh
c0192f75: ff ff                        	<unknown>
c0192f77: ff 77 1b                     	pushl	27(%edi)
c0192f7a: 00 00                        	addb	%al, (%eax)
c0192f7c: 80 00 29                     	addb	$41, (%eax)
c0192f7f: 00 f4                        	addb	%dh, %ah
c0192f81: ff ff                        	<unknown>
c0192f83: ff 81 1b 00 00 80            	incl	-2147483621(%ecx)
c0192f89: 00 29                        	addb	%ch, (%ecx)
c0192f8b: 00 f2                        	addb	%dh, %dl
c0192f8d: ff ff                        	<unknown>
c0192f8f: ff 8b 1b 00 00 80            	decl	-2147483621(%ebx)
c0192f95: 00 29                        	addb	%ch, (%ecx)
c0192f97: 00 f0                        	addb	%dh, %al
c0192f99: ff ff                        	<unknown>
c0192f9b: ff 00                        	incl	(%eax)
c0192f9d: 00 00                        	addb	%al, (%eax)
c0192f9f: 00 c0                        	addb	%al, %al
		...
c0192fa9: 00 00                        	addb	%al, (%eax)
c0192fab: 00 e0                        	addb	%ah, %al
c0192fad: 00 00                        	addb	%al, (%eax)
c0192faf: 00 9a 00 00 00 00            	addb	%bl, (%edx)
c0192fb5: 00 00                        	addb	%al, (%eax)
c0192fb7: 00 24 00                     	addb	%ah, (%eax,%eax)
c0192fba: 00 00                        	addb	%al, (%eax)
c0192fbc: 9a 00 00 00 95 1b 00         	lcalll	$27, $2499805184
c0192fc3: 00 24 00                     	addb	%ah, (%eax,%eax)
c0192fc6: 3b 00                        	cmpl	(%eax), %eax
c0192fc8: 92                           	xchgl	%edx, %eax
c0192fc9: 29 10                        	subl	%edx, (%eax)
c0192fcb: c0 aa 1b 00 00 80 00         	shrb	$0, -2147483621(%edx)
		...
c0192fda: 00 00                        	addb	%al, (%eax)
c0192fdc: 44                           	incl	%esp
c0192fdd: 00 3c 00                     	addb	%bh, (%eax,%eax)
		...
c0192fe8: 44                           	incl	%esp
c0192fe9: 00 3d 00 08 00 00            	addb	%bh, 2048
c0192fef: 00 00                        	addb	%al, (%eax)
c0192ff1: 00 00                        	addb	%al, (%eax)
c0192ff3: 00 44 00 3d                  	addb	%al, 61(%eax,%eax)
c0192ff7: 00 10                        	addb	%dl, (%eax)
c0192ff9: 00 00                        	addb	%al, (%eax)
c0192ffb: 00 00                        	addb	%al, (%eax)
c0192ffd: 00 00                        	addb	%al, (%eax)
c0192fff: 00 44 00 3e                  	addb	%al, 62(%eax,%eax)
c0193003: 00 13                        	addb	%dl, (%ebx)
c0193005: 00 00                        	addb	%al, (%eax)
c0193007: 00 00                        	addb	%al, (%eax)
c0193009: 00 00                        	addb	%al, (%eax)
c019300b: 00 44 00 3e                  	addb	%al, 62(%eax,%eax)
c019300f: 00 1b                        	addb	%bl, (%ebx)
c0193011: 00 00                        	addb	%al, (%eax)
c0193013: 00 00                        	addb	%al, (%eax)
c0193015: 00 00                        	addb	%al, (%eax)
c0193017: 00 44 00 3e                  	addb	%al, 62(%eax,%eax)
c019301b: 00 23                        	addb	%ah, (%ebx)
c019301d: 00 00                        	addb	%al, (%eax)
c019301f: 00 00                        	addb	%al, (%eax)
c0193021: 00 00                        	addb	%al, (%eax)
c0193023: 00 44 00 3e                  	addb	%al, 62(%eax,%eax)
c0193027: 00 25 00 00 00 00            	addb	%ah, 0
c019302d: 00 00                        	addb	%al, (%eax)
c019302f: 00 44 00 40                  	addb	%al, 64(%eax,%eax)
c0193033: 00 28                        	addb	%ch, (%eax)
c0193035: 00 00                        	addb	%al, (%eax)
c0193037: 00 00                        	addb	%al, (%eax)
c0193039: 00 00                        	addb	%al, (%eax)
c019303b: 00 44 00 42                  	addb	%al, 66(%eax,%eax)
c019303f: 00 38                        	addb	%bh, (%eax)
c0193041: 00 00                        	addb	%al, (%eax)
c0193043: 00 00                        	addb	%al, (%eax)
c0193045: 00 00                        	addb	%al, (%eax)
c0193047: 00 44 00 42                  	addb	%al, 66(%eax,%eax)
c019304b: 00 3e                        	addb	%bh, (%esi)
c019304d: 00 00                        	addb	%al, (%eax)
c019304f: 00 00                        	addb	%al, (%eax)
c0193051: 00 00                        	addb	%al, (%eax)
c0193053: 00 44 00 43                  	addb	%al, 67(%eax,%eax)
c0193057: 00 40 00                     	addb	%al, (%eax)
c019305a: 00 00                        	addb	%al, (%eax)
c019305c: 00 00                        	addb	%al, (%eax)
c019305e: 00 00                        	addb	%al, (%eax)
c0193060: 44                           	incl	%esp
c0193061: 00 42 00                     	addb	%al, (%edx)
c0193064: 73 00                        	jae	0xc0193066 <.stab+0x4066>
c0193066: 00 00                        	addb	%al, (%eax)
c0193068: 00 00                        	addb	%al, (%eax)
c019306a: 00 00                        	addb	%al, (%eax)
c019306c: 44                           	incl	%esp
c019306d: 00 42 00                     	addb	%al, (%edx)
c0193070: 77 00                        	ja	0xc0193072 <.stab+0x4072>
c0193072: 00 00                        	addb	%al, (%eax)
c0193074: 00 00                        	addb	%al, (%eax)
c0193076: 00 00                        	addb	%al, (%eax)
c0193078: 44                           	incl	%esp
c0193079: 00 48 00                     	addb	%cl, (%eax)
c019307c: 7f 00                        	jg	0xc019307e <.stab+0x407e>
c019307e: 00 00                        	addb	%al, (%eax)
c0193080: 4b                           	decl	%ebx
c0193081: 1c 00                        	sbbb	$0, %al
c0193083: 00 80 00 3d 00 f0            	addb	%al, -268419840(%eax)
c0193089: ff ff                        	<unknown>
c019308b: ff 71 1c                     	pushl	28(%ecx)
c019308e: 00 00                        	addb	%al, (%eax)
c0193090: 80 00 45                     	addb	$69, (%eax)
c0193093: 00 00                        	addb	%al, (%eax)
c0193095: 00 00                        	addb	%al, (%eax)
c0193097: 00 86 1c 00 00 80            	addb	%al, -2147483620(%esi)
c019309d: 00 3e                        	addb	%bh, (%esi)
c019309f: 00 ec                        	addb	%ch, %ah
c01930a1: ff ff                        	<unknown>
c01930a3: ff 00                        	incl	(%eax)
c01930a5: 00 00                        	addb	%al, (%eax)
c01930a7: 00 c0                        	addb	%al, %al
c01930a9: 00 00                        	addb	%al, (%eax)
c01930ab: 00 00                        	addb	%al, (%eax)
c01930ad: 00 00                        	addb	%al, (%eax)
c01930af: 00 9b 1c 00 00 80            	addb	%bl, -2147483620(%ebx)
c01930b5: 00 42 00                     	addb	%al, (%edx)
c01930b8: f4                           	hlt
c01930b9: ff ff                        	<unknown>
c01930bb: ff 00                        	incl	(%eax)
c01930bd: 00 00                        	addb	%al, (%eax)
c01930bf: 00 c0                        	addb	%al, %al
c01930c1: 00 00                        	addb	%al, (%eax)
c01930c3: 00 38                        	addb	%bh, (%eax)
c01930c5: 00 00                        	addb	%al, (%eax)
c01930c7: 00 00                        	addb	%al, (%eax)
c01930c9: 00 00                        	addb	%al, (%eax)
c01930cb: 00 e0                        	addb	%ah, %al
c01930cd: 00 00                        	addb	%al, (%eax)
c01930cf: 00 7f 00                     	addb	%bh, (%edi)
c01930d2: 00 00                        	addb	%al, (%eax)
c01930d4: 00 00                        	addb	%al, (%eax)
c01930d6: 00 00                        	addb	%al, (%eax)
c01930d8: e0 00                        	loopne	0xc01930da <.stab+0x40da>
c01930da: 00 00                        	addb	%al, (%eax)
c01930dc: 88 00                        	movb	%al, (%eax)
c01930de: 00 00                        	addb	%al, (%eax)
c01930e0: 00 00                        	addb	%al, (%eax)
c01930e2: 00 00                        	addb	%al, (%eax)
c01930e4: 24 00                        	andb	$0, %al
c01930e6: 00 00                        	addb	%al, (%eax)
c01930e8: 88 00                        	movb	%al, (%eax)
c01930ea: 00 00                        	addb	%al, (%eax)
c01930ec: a7                           	cmpsl	%es:(%edi), (%esi)
c01930ed: 1c 00                        	sbbb	$0, %al
c01930ef: 00 26                        	addb	%ah, (%esi)
c01930f1: 00 28                        	addb	%ch, (%eax)
c01930f3: 00 d0                        	addb	%dl, %al
c01930f5: e4 18                        	inb	$24, %al
c01930f7: c0 00 00                     	rolb	$0, (%eax)
c01930fa: 00 00                        	addb	%al, (%eax)
c01930fc: 64 00 00                     	addb	%al, %fs:(%eax)
c01930ff: 00 1a                        	addb	%bl, (%edx)
c0193101: 2a 10                        	subb	(%eax), %dl
c0193103: c0 30                        	<unknown>
c0193105: 00 00                        	addb	%al, (%eax)
c0193107: 00 64 00 02                  	addb	%ah, 2(%eax,%eax)
c019310b: 00 1a                        	addb	%bl, (%edx)
c019310d: 2a 10                        	subb	(%eax), %dl
c019310f: c0 b5 1c 00 00 64            	<unknown>
c0193115: 00 02                        	addb	%al, (%edx)
c0193117: 00 1a                        	addb	%bl, (%edx)
c0193119: 2a 10                        	subb	(%eax), %dl
c019311b: c0 63 00 00                  	shlb	$0, (%ebx)
c019311f: 00 3c 00                     	addb	%bh, (%eax,%eax)
c0193122: 00 00                        	addb	%al, (%eax)
c0193124: 00 00                        	addb	%al, (%eax)
c0193126: 00 00                        	addb	%al, (%eax)
c0193128: c2 1c 00                     	retl	$28
c019312b: 00 24 00                     	addb	%ah, (%eax,%eax)
c019312e: 06                           	pushl	%es
c019312f: 00 1a                        	addb	%bl, (%edx)
c0193131: 2a 10                        	subb	(%eax), %dl
c0193133: c0 eb 1c                     	shrb	$28, %bl
c0193136: 00 00                        	addb	%al, (%eax)
c0193138: 80 00 00                     	addb	$0, (%eax)
c019313b: 00 00                        	addb	%al, (%eax)
c019313d: 00 00                        	addb	%al, (%eax)
c019313f: 00 05 1d 00 00 80            	addb	%al, -2147483619
c0193145: 00 00                        	addb	%al, (%eax)
c0193147: 00 00                        	addb	%al, (%eax)
c0193149: 00 00                        	addb	%al, (%eax)
c019314b: 00 fd                        	addb	%bh, %ch
c019314d: 1d 00 00 80 00               	sbbl	$8388608, %eax
c0193152: 00 00                        	addb	%al, (%eax)
c0193154: 00 00                        	addb	%al, (%eax)
c0193156: 00 00                        	addb	%al, (%eax)
c0193158: b4 1e                        	movb	$30, %ah
c019315a: 00 00                        	addb	%al, (%eax)
c019315c: 80 00 00                     	addb	$0, (%eax)
c019315f: 00 00                        	addb	%al, (%eax)
c0193161: 00 00                        	addb	%al, (%eax)
c0193163: 00 d4                        	addb	%dl, %ah
c0193165: 07                           	popl	%es
c0193166: 00 00                        	addb	%al, (%eax)
c0193168: 80 00 1b                     	addb	$27, (%eax)
c019316b: 00 00                        	addb	%al, (%eax)
c019316d: 00 00                        	addb	%al, (%eax)
c019316f: 00 e4                        	addb	%ah, %ah
c0193171: 07                           	popl	%es
c0193172: 00 00                        	addb	%al, (%eax)
c0193174: 80 00 00                     	addb	$0, (%eax)
c0193177: 00 00                        	addb	%al, (%eax)
c0193179: 00 00                        	addb	%al, (%eax)
c019317b: 00 f0                        	addb	%dh, %al
c019317d: 12 00                        	adcb	(%eax), %al
c019317f: 00 80 00 1f 00 00            	addb	%al, 7936(%eax)
c0193185: 00 00                        	addb	%al, (%eax)
c0193187: 00 ff                        	addb	%bh, %bh
c0193189: 12 00                        	adcb	(%eax), %al
c019318b: 00 80 00 00 00 00            	addb	%al, (%eax)
c0193191: 00 00                        	addb	%al, (%eax)
c0193193: 00 34 1f                     	addb	%dh, (%edi,%ebx)
c0193196: 00 00                        	addb	%al, (%eax)
c0193198: 80 00 1d                     	addb	$29, (%eax)
c019319b: 00 00                        	addb	%al, (%eax)
c019319d: 00 00                        	addb	%al, (%eax)
c019319f: 00 45 1f                     	addb	%al, 31(%ebp)
c01931a2: 00 00                        	addb	%al, (%eax)
c01931a4: 80 00 00                     	addb	$0, (%eax)
c01931a7: 00 00                        	addb	%al, (%eax)
c01931a9: 00 00                        	addb	%al, (%eax)
c01931ab: 00 60 1f                     	addb	%ah, 31(%eax)
c01931ae: 00 00                        	addb	%al, (%eax)
c01931b0: a0 00 06 00 0c               	movb	201328128, %al
c01931b5: 00 00                        	addb	%al, (%eax)
c01931b7: 00 89 1f 00 00 80            	addb	%cl, -2147483617(%ecx)
		...
c01931c5: 00 00                        	addb	%al, (%eax)
c01931c7: 00 44 00 07                  	addb	%al, 7(%eax,%eax)
		...
c01931d3: 00 44 00 09                  	addb	%al, 9(%eax,%eax)
c01931d7: 00 06                        	addb	%al, (%esi)
c01931d9: 00 00                        	addb	%al, (%eax)
c01931db: 00 00                        	addb	%al, (%eax)
c01931dd: 00 00                        	addb	%al, (%eax)
c01931df: 00 44 00 09                  	addb	%al, 9(%eax,%eax)
c01931e3: 00 0c 00                     	addb	%cl, (%eax,%eax)
c01931e6: 00 00                        	addb	%al, (%eax)
c01931e8: 00 00                        	addb	%al, (%eax)
c01931ea: 00 00                        	addb	%al, (%eax)
c01931ec: 44                           	incl	%esp
c01931ed: 00 0b                        	addb	%cl, (%ebx)
c01931ef: 00 0f                        	addb	%cl, (%edi)
c01931f1: 00 00                        	addb	%al, (%eax)
c01931f3: 00 00                        	addb	%al, (%eax)
c01931f5: 00 00                        	addb	%al, (%eax)
c01931f7: 00 44 00 0b                  	addb	%al, 11(%eax,%eax)
c01931fb: 00 15 00 00 00 00            	addb	%dl, 0
c0193201: 00 00                        	addb	%al, (%eax)
c0193203: 00 44 00 0b                  	addb	%al, 11(%eax,%eax)
c0193207: 00 26                        	addb	%ah, (%esi)
c0193209: 00 00                        	addb	%al, (%eax)
c019320b: 00 00                        	addb	%al, (%eax)
c019320d: 00 00                        	addb	%al, (%eax)
c019320f: 00 44 00 0e                  	addb	%al, 14(%eax,%eax)
c0193213: 00 2c 00                     	addb	%ch, (%eax,%eax)
c0193216: 00 00                        	addb	%al, (%eax)
c0193218: 00 00                        	addb	%al, (%eax)
c019321a: 00 00                        	addb	%al, (%eax)
c019321c: 44                           	incl	%esp
c019321d: 00 0e                        	addb	%cl, (%esi)
c019321f: 00 33                        	addb	%dh, (%ebx)
c0193221: 00 00                        	addb	%al, (%eax)
c0193223: 00 00                        	addb	%al, (%eax)
c0193225: 00 00                        	addb	%al, (%eax)
c0193227: 00 44 00 0f                  	addb	%al, 15(%eax,%eax)
c019322b: 00 38                        	addb	%bh, (%eax)
c019322d: 00 00                        	addb	%al, (%eax)
c019322f: 00 00                        	addb	%al, (%eax)
c0193231: 00 00                        	addb	%al, (%eax)
c0193233: 00 44 00 0f                  	addb	%al, 15(%eax,%eax)
c0193237: 00 4c 00 00                  	addb	%cl, (%eax,%eax)
c019323b: 00 00                        	addb	%al, (%eax)
c019323d: 00 00                        	addb	%al, (%eax)
c019323f: 00 44 00 0f                  	addb	%al, 15(%eax,%eax)
c0193243: 00 4e 00                     	addb	%cl, (%esi)
c0193246: 00 00                        	addb	%al, (%eax)
c0193248: 00 00                        	addb	%al, (%eax)
c019324a: 00 00                        	addb	%al, (%eax)
c019324c: 44                           	incl	%esp
c019324d: 00 0f                        	addb	%cl, (%edi)
c019324f: 00 53 00                     	addb	%dl, (%ebx)
c0193252: 00 00                        	addb	%al, (%eax)
c0193254: 00 00                        	addb	%al, (%eax)
c0193256: 00 00                        	addb	%al, (%eax)
c0193258: 44                           	incl	%esp
c0193259: 00 10                        	addb	%dl, (%eax)
c019325b: 00 56 00                     	addb	%dl, (%esi)
c019325e: 00 00                        	addb	%al, (%eax)
c0193260: 00 00                        	addb	%al, (%eax)
c0193262: 00 00                        	addb	%al, (%eax)
c0193264: 44                           	incl	%esp
c0193265: 00 10                        	addb	%dl, (%eax)
c0193267: 00 69 00                     	addb	%ch, (%ecx)
c019326a: 00 00                        	addb	%al, (%eax)
c019326c: 00 00                        	addb	%al, (%eax)
c019326e: 00 00                        	addb	%al, (%eax)
c0193270: 44                           	incl	%esp
c0193271: 00 11                        	addb	%dl, (%ecx)
c0193273: 00 6d 00                     	addb	%ch, (%ebp)
c0193276: 00 00                        	addb	%al, (%eax)
c0193278: 00 00                        	addb	%al, (%eax)
c019327a: 00 00                        	addb	%al, (%eax)
c019327c: 44                           	incl	%esp
c019327d: 00 11                        	addb	%dl, (%ecx)
c019327f: 00 81 00 00 00 00            	addb	%al, (%ecx)
c0193285: 00 00                        	addb	%al, (%eax)
c0193287: 00 44 00 11                  	addb	%al, 17(%eax,%eax)
c019328b: 00 84 00 00 00 00 00         	addb	%al, (%eax,%eax)
c0193292: 00 00                        	addb	%al, (%eax)
c0193294: 44                           	incl	%esp
c0193295: 00 11                        	addb	%dl, (%ecx)
c0193297: 00 89 00 00 00 00            	addb	%cl, (%ecx)
c019329d: 00 00                        	addb	%al, (%eax)
c019329f: 00 44 00 12                  	addb	%al, 18(%eax,%eax)
c01932a3: 00 8c 00 00 00 00 00         	addb	%cl, (%eax,%eax)
c01932aa: 00 00                        	addb	%al, (%eax)
c01932ac: 44                           	incl	%esp
c01932ad: 00 12                        	addb	%dl, (%edx)
c01932af: 00 a0 00 00 00 00            	addb	%ah, (%eax)
c01932b5: 00 00                        	addb	%al, (%eax)
c01932b7: 00 44 00 12                  	addb	%al, 18(%eax,%eax)
c01932bb: 00 a3 00 00 00 00            	addb	%ah, (%ebx)
c01932c1: 00 00                        	addb	%al, (%eax)
c01932c3: 00 44 00 14                  	addb	%al, 20(%eax,%eax)
c01932c7: 00 a6 00 00 00 00            	addb	%ah, (%esi)
c01932cd: 00 00                        	addb	%al, (%eax)
c01932cf: 00 44 00 14                  	addb	%al, 20(%eax,%eax)
c01932d3: 00 b9 00 00 00 00            	addb	%bh, (%ecx)
c01932d9: 00 00                        	addb	%al, (%eax)
c01932db: 00 44 00 15                  	addb	%al, 21(%eax,%eax)
c01932df: 00 bd 00 00 00 00            	addb	%bh, (%ebp)
c01932e5: 00 00                        	addb	%al, (%eax)
c01932e7: 00 44 00 15                  	addb	%al, 21(%eax,%eax)
c01932eb: 00 d1                        	addb	%dl, %cl
c01932ed: 00 00                        	addb	%al, (%eax)
c01932ef: 00 00                        	addb	%al, (%eax)
c01932f1: 00 00                        	addb	%al, (%eax)
c01932f3: 00 44 00 15                  	addb	%al, 21(%eax,%eax)
c01932f7: 00 d4                        	addb	%dl, %ah
c01932f9: 00 00                        	addb	%al, (%eax)
c01932fb: 00 00                        	addb	%al, (%eax)
c01932fd: 00 00                        	addb	%al, (%eax)
c01932ff: 00 44 00 15                  	addb	%al, 21(%eax,%eax)
c0193303: 00 d9                        	addb	%bl, %cl
c0193305: 00 00                        	addb	%al, (%eax)
c0193307: 00 00                        	addb	%al, (%eax)
c0193309: 00 00                        	addb	%al, (%eax)
c019330b: 00 44 00 16                  	addb	%al, 22(%eax,%eax)
c019330f: 00 dc                        	addb	%bl, %ah
c0193311: 00 00                        	addb	%al, (%eax)
c0193313: 00 00                        	addb	%al, (%eax)
c0193315: 00 00                        	addb	%al, (%eax)
c0193317: 00 44 00 16                  	addb	%al, 22(%eax,%eax)
c019331b: 00 f0                        	addb	%dh, %al
c019331d: 00 00                        	addb	%al, (%eax)
c019331f: 00 00                        	addb	%al, (%eax)
c0193321: 00 00                        	addb	%al, (%eax)
c0193323: 00 44 00 16                  	addb	%al, 22(%eax,%eax)
c0193327: 00 f3                        	addb	%dh, %bl
c0193329: 00 00                        	addb	%al, (%eax)
c019332b: 00 00                        	addb	%al, (%eax)
c019332d: 00 00                        	addb	%al, (%eax)
c019332f: 00 44 00 0e                  	addb	%al, 14(%eax,%eax)
c0193333: 00 f6                        	addb	%dh, %dh
c0193335: 00 00                        	addb	%al, (%eax)
c0193337: 00 00                        	addb	%al, (%eax)
c0193339: 00 00                        	addb	%al, (%eax)
c019333b: 00 44 00 0e                  	addb	%al, 14(%eax,%eax)
c019333f: 00 fa                        	addb	%bh, %dl
c0193341: 00 00                        	addb	%al, (%eax)
c0193343: 00 00                        	addb	%al, (%eax)
c0193345: 00 00                        	addb	%al, (%eax)
c0193347: 00 44 00 0e                  	addb	%al, 14(%eax,%eax)
c019334b: 00 00                        	addb	%al, (%eax)
c019334d: 01 00                        	addl	%eax, (%eax)
c019334f: 00 00                        	addb	%al, (%eax)
c0193351: 00 00                        	addb	%al, (%eax)
c0193353: 00 44 00 1a                  	addb	%al, 26(%eax,%eax)
c0193357: 00 0b                        	addb	%cl, (%ebx)
c0193359: 01 00                        	addl	%eax, (%eax)
c019335b: 00 00                        	addb	%al, (%eax)
c019335d: 00 00                        	addb	%al, (%eax)
c019335f: 00 44 00 1b                  	addb	%al, 27(%eax,%eax)
c0193363: 00 25 01 00 00 e2            	addb	%ah, -503316479
c0193369: 21 00                        	andl	%eax, (%eax)
c019336b: 00 80 00 08 00 d8            	addb	%al, -671086592(%eax)
c0193371: ff ff                        	<unknown>
c0193373: ff 85 19 00 00 80            	incl	-2147483623(%ebp)
c0193379: 00 28                        	addb	%ch, (%eax)
c019337b: 00 00                        	addb	%al, (%eax)
c019337d: 00 00                        	addb	%al, (%eax)
c019337f: 00 ec                        	addb	%ch, %ah
c0193381: 21 00                        	andl	%eax, (%eax)
c0193383: 00 80 00 09 00 f0            	addb	%al, -268433152(%eax)
c0193389: ff ff                        	<unknown>
c019338b: ff 04 22                     	incl	(%edx,%eiz)
c019338e: 00 00                        	addb	%al, (%eax)
c0193390: 80 00 14                     	addb	$20, (%eax)
c0193393: 00 00                        	addb	%al, (%eax)
c0193395: 00 00                        	addb	%al, (%eax)
c0193397: 00 21                        	addb	%ah, (%ecx)
c0193399: 22 00                        	andb	(%eax), %al
c019339b: 00 80 00 0b 00 ec            	addb	%al, -335541504(%eax)
c01933a1: ff ff                        	<unknown>
c01933a3: ff 00                        	incl	(%eax)
c01933a5: 00 00                        	addb	%al, (%eax)
c01933a7: 00 c0                        	addb	%al, %al
c01933a9: 00 00                        	addb	%al, (%eax)
c01933ab: 00 00                        	addb	%al, (%eax)
c01933ad: 00 00                        	addb	%al, (%eax)
c01933af: 00 30                        	addb	%dh, (%eax)
c01933b1: 22 00                        	andb	(%eax), %al
c01933b3: 00 80 00 0e 00 f4            	addb	%al, -201323008(%eax)
c01933b9: ff ff                        	<unknown>
c01933bb: ff 59 22                     	lcalll	*34(%ecx)
c01933be: 00 00                        	addb	%al, (%eax)
c01933c0: 80 00 00                     	addb	$0, (%eax)
		...
c01933cb: 00 c0                        	addb	%al, %al
c01933cd: 00 00                        	addb	%al, (%eax)
c01933cf: 00 2c 00                     	addb	%ch, (%eax,%eax)
c01933d2: 00 00                        	addb	%al, (%eax)
c01933d4: 65 22 00                     	andb	%gs:(%eax), %al
c01933d7: 00 80 00 0f 00 e8            	addb	%al, -402649344(%eax)
c01933dd: ff ff                        	<unknown>
c01933df: ff 00                        	incl	(%eax)
c01933e1: 00 00                        	addb	%al, (%eax)
c01933e3: 00 c0                        	addb	%al, %al
c01933e5: 00 00                        	addb	%al, (%eax)
c01933e7: 00 38                        	addb	%bh, (%eax)
c01933e9: 00 00                        	addb	%al, (%eax)
c01933eb: 00 00                        	addb	%al, (%eax)
c01933ed: 00 00                        	addb	%al, (%eax)
c01933ef: 00 e0                        	addb	%ah, %al
c01933f1: 00 00                        	addb	%al, (%eax)
c01933f3: 00 f6                        	addb	%dh, %dh
c01933f5: 00 00                        	addb	%al, (%eax)
c01933f7: 00 00                        	addb	%al, (%eax)
c01933f9: 00 00                        	addb	%al, (%eax)
c01933fb: 00 e0                        	addb	%ah, %al
c01933fd: 00 00                        	addb	%al, (%eax)
c01933ff: 00 0b                        	addb	%cl, (%ebx)
c0193401: 01 00                        	addl	%eax, (%eax)
c0193403: 00 00                        	addb	%al, (%eax)
c0193405: 00 00                        	addb	%al, (%eax)
c0193407: 00 e0                        	addb	%ah, %al
c0193409: 00 00                        	addb	%al, (%eax)
c019340b: 00 2c 01                     	addb	%ch, (%ecx,%eax)
c019340e: 00 00                        	addb	%al, (%eax)
c0193410: 00 00                        	addb	%al, (%eax)
c0193412: 00 00                        	addb	%al, (%eax)
c0193414: 24 00                        	andb	$0, %al
c0193416: 00 00                        	addb	%al, (%eax)
c0193418: 2c 01                        	subb	$1, %al
c019341a: 00 00                        	addb	%al, (%eax)
c019341c: 71 22                        	jno	0xc0193440 <.stab+0x4440>
c019341e: 00 00                        	addb	%al, (%eax)
c0193420: 24 00                        	andb	$0, %al
c0193422: 1d 00 46 2b 10               	sbbl	$271271424, %eax
c0193427: c0 8b 22 00 00 a0 00         	rorb	$0, -1610612702(%ebx)
c019342e: 1d 00 08 00 00               	sbbl	$2048, %eax
c0193433: 00 97 22 00 00 a0            	addb	%dl, -1610612702(%edi)
c0193439: 00 1d 00 0c 00 00            	addb	%bl, 3072
c019343f: 00 00                        	addb	%al, (%eax)
c0193441: 00 00                        	addb	%al, (%eax)
c0193443: 00 44 00 1e                  	addb	%al, 30(%eax,%eax)
		...
c019344f: 00 44 00 1f                  	addb	%al, 31(%eax,%eax)
c0193453: 00 06                        	addb	%al, (%esi)
c0193455: 00 00                        	addb	%al, (%eax)
c0193457: 00 00                        	addb	%al, (%eax)
c0193459: 00 00                        	addb	%al, (%eax)
c019345b: 00 44 00 1f                  	addb	%al, 31(%eax,%eax)
c019345f: 00 0d 00 00 00 00            	addb	%cl, 0
c0193465: 00 00                        	addb	%al, (%eax)
c0193467: 00 44 00 20                  	addb	%al, 32(%eax,%eax)
c019346b: 00 0f                        	addb	%cl, (%edi)
c019346d: 00 00                        	addb	%al, (%eax)
c019346f: 00 00                        	addb	%al, (%eax)
c0193471: 00 00                        	addb	%al, (%eax)
c0193473: 00 44 00 20                  	addb	%al, 32(%eax,%eax)
c0193477: 00 26                        	addb	%ah, (%esi)
c0193479: 00 00                        	addb	%al, (%eax)
c019347b: 00 00                        	addb	%al, (%eax)
c019347d: 00 00                        	addb	%al, (%eax)
c019347f: 00 44 00 23                  	addb	%al, 35(%eax,%eax)
c0193483: 00 2b                        	addb	%ch, (%ebx)
c0193485: 00 00                        	addb	%al, (%eax)
c0193487: 00 00                        	addb	%al, (%eax)
c0193489: 00 00                        	addb	%al, (%eax)
c019348b: 00 44 00 23                  	addb	%al, 35(%eax,%eax)
c019348f: 00 30                        	addb	%dh, (%eax)
c0193491: 00 00                        	addb	%al, (%eax)
c0193493: 00 00                        	addb	%al, (%eax)
c0193495: 00 00                        	addb	%al, (%eax)
c0193497: 00 44 00 23                  	addb	%al, 35(%eax,%eax)
c019349b: 00 38                        	addb	%bh, (%eax)
c019349d: 00 00                        	addb	%al, (%eax)
c019349f: 00 00                        	addb	%al, (%eax)
c01934a1: 00 00                        	addb	%al, (%eax)
c01934a3: 00 44 00 23                  	addb	%al, 35(%eax,%eax)
c01934a7: 00 3b                        	addb	%bh, (%ebx)
c01934a9: 00 00                        	addb	%al, (%eax)
c01934ab: 00 00                        	addb	%al, (%eax)
c01934ad: 00 00                        	addb	%al, (%eax)
c01934af: 00 44 00 23                  	addb	%al, 35(%eax,%eax)
c01934b3: 00 40 00                     	addb	%al, (%eax)
c01934b6: 00 00                        	addb	%al, (%eax)
c01934b8: 00 00                        	addb	%al, (%eax)
c01934ba: 00 00                        	addb	%al, (%eax)
c01934bc: 44                           	incl	%esp
c01934bd: 00 23                        	addb	%ah, (%ebx)
c01934bf: 00 45 00                     	addb	%al, (%ebp)
c01934c2: 00 00                        	addb	%al, (%eax)
c01934c4: 00 00                        	addb	%al, (%eax)
c01934c6: 00 00                        	addb	%al, (%eax)
c01934c8: 44                           	incl	%esp
c01934c9: 00 23                        	addb	%ah, (%ebx)
c01934cb: 00 4d 00                     	addb	%cl, (%ebp)
c01934ce: 00 00                        	addb	%al, (%eax)
c01934d0: 00 00                        	addb	%al, (%eax)
c01934d2: 00 00                        	addb	%al, (%eax)
c01934d4: 44                           	incl	%esp
c01934d5: 00 23                        	addb	%ah, (%ebx)
c01934d7: 00 50 00                     	addb	%dl, (%eax)
c01934da: 00 00                        	addb	%al, (%eax)
c01934dc: 00 00                        	addb	%al, (%eax)
c01934de: 00 00                        	addb	%al, (%eax)
c01934e0: 44                           	incl	%esp
c01934e1: 00 23                        	addb	%ah, (%ebx)
c01934e3: 00 55 00                     	addb	%dl, (%ebp)
c01934e6: 00 00                        	addb	%al, (%eax)
c01934e8: 00 00                        	addb	%al, (%eax)
c01934ea: 00 00                        	addb	%al, (%eax)
c01934ec: 44                           	incl	%esp
c01934ed: 00 23                        	addb	%ah, (%ebx)
c01934ef: 00 5d 00                     	addb	%bl, (%ebp)
c01934f2: 00 00                        	addb	%al, (%eax)
c01934f4: 00 00                        	addb	%al, (%eax)
c01934f6: 00 00                        	addb	%al, (%eax)
c01934f8: 44                           	incl	%esp
c01934f9: 00 23                        	addb	%ah, (%ebx)
c01934fb: 00 60 00                     	addb	%ah, (%eax)
c01934fe: 00 00                        	addb	%al, (%eax)
c0193500: 00 00                        	addb	%al, (%eax)
c0193502: 00 00                        	addb	%al, (%eax)
c0193504: 44                           	incl	%esp
c0193505: 00 23                        	addb	%ah, (%ebx)
c0193507: 00 62 00                     	addb	%ah, (%edx)
c019350a: 00 00                        	addb	%al, (%eax)
c019350c: 00 00                        	addb	%al, (%eax)
c019350e: 00 00                        	addb	%al, (%eax)
c0193510: 44                           	incl	%esp
c0193511: 00 24 00                     	addb	%ah, (%eax,%eax)
c0193514: 67 00 00                     	addb	%al, (%bx,%si)
c0193517: 00 00                        	addb	%al, (%eax)
c0193519: 00 00                        	addb	%al, (%eax)
c019351b: 00 44 00 24                  	addb	%al, 36(%eax,%eax)
c019351f: 00 6d 00                     	addb	%ch, (%ebp)
c0193522: 00 00                        	addb	%al, (%eax)
c0193524: 00 00                        	addb	%al, (%eax)
c0193526: 00 00                        	addb	%al, (%eax)
c0193528: 44                           	incl	%esp
c0193529: 00 24 00                     	addb	%ah, (%eax,%eax)
c019352c: 6f                           	outsl	(%esi), %dx
c019352d: 00 00                        	addb	%al, (%eax)
c019352f: 00 00                        	addb	%al, (%eax)
c0193531: 00 00                        	addb	%al, (%eax)
c0193533: 00 44 00 24                  	addb	%al, 36(%eax,%eax)
c0193537: 00 74 00 00                  	addb	%dh, (%eax,%eax)
c019353b: 00 00                        	addb	%al, (%eax)
c019353d: 00 00                        	addb	%al, (%eax)
c019353f: 00 44 00 24                  	addb	%al, 36(%eax,%eax)
c0193543: 00 7c 00 00                  	addb	%bh, (%eax,%eax)
c0193547: 00 00                        	addb	%al, (%eax)
c0193549: 00 00                        	addb	%al, (%eax)
c019354b: 00 44 00 24                  	addb	%al, 36(%eax,%eax)
c019354f: 00 7e 00                     	addb	%bh, (%esi)
c0193552: 00 00                        	addb	%al, (%eax)
c0193554: 00 00                        	addb	%al, (%eax)
c0193556: 00 00                        	addb	%al, (%eax)
c0193558: 44                           	incl	%esp
c0193559: 00 24 00                     	addb	%ah, (%eax,%eax)
c019355c: 80 00 00                     	addb	$0, (%eax)
c019355f: 00 00                        	addb	%al, (%eax)
c0193561: 00 00                        	addb	%al, (%eax)
c0193563: 00 44 00 21                  	addb	%al, 33(%eax,%eax)
c0193567: 00 82 00 00 00 00            	addb	%al, (%edx)
c019356d: 00 00                        	addb	%al, (%eax)
c019356f: 00 44 00 1f                  	addb	%al, 31(%eax,%eax)
c0193573: 00 83 00 00 00 00            	addb	%al, (%ebx)
c0193579: 00 00                        	addb	%al, (%eax)
c019357b: 00 44 00 1f                  	addb	%al, 31(%eax,%eax)
c019357f: 00 87 00 00 00 00            	addb	%al, (%edi)
c0193585: 00 00                        	addb	%al, (%eax)
c0193587: 00 44 00 1f                  	addb	%al, 31(%eax,%eax)
c019358b: 00 8d 00 00 00 00            	addb	%cl, (%ebp)
c0193591: 00 00                        	addb	%al, (%eax)
c0193593: 00 44 00 1f                  	addb	%al, 31(%eax,%eax)
c0193597: 00 92 00 00 00 00            	addb	%dl, (%edx)
c019359d: 00 00                        	addb	%al, (%eax)
c019359f: 00 44 00 28                  	addb	%al, 40(%eax,%eax)
c01935a3: 00 9d 00 00 00 00            	addb	%bl, (%ebp)
c01935a9: 00 00                        	addb	%al, (%eax)
c01935ab: 00 44 00 29                  	addb	%al, 41(%eax,%eax)
c01935af: 00 a2 00 00 00 aa            	addb	%ah, -1442840576(%edx)
c01935b5: 22 00                        	andb	(%eax), %al
c01935b7: 00 80 00 1f 00 fc            	addb	%al, -67100928(%eax)
c01935bd: ff ff                        	<unknown>
c01935bf: ff 00                        	incl	(%eax)
c01935c1: 00 00                        	addb	%al, (%eax)
c01935c3: 00 c0                        	addb	%al, %al
c01935c5: 00 00                        	addb	%al, (%eax)
c01935c7: 00 06                        	addb	%al, (%esi)
c01935c9: 00 00                        	addb	%al, (%eax)
c01935cb: 00 00                        	addb	%al, (%eax)
c01935cd: 00 00                        	addb	%al, (%eax)
c01935cf: 00 e0                        	addb	%ah, %al
c01935d1: 00 00                        	addb	%al, (%eax)
c01935d3: 00 9d 00 00 00 00            	addb	%bl, (%ebp)
c01935d9: 00 00                        	addb	%al, (%eax)
c01935db: 00 24 00                     	addb	%ah, (%eax,%eax)
c01935de: 00 00                        	addb	%al, (%eax)
c01935e0: a4                           	movsb	(%esi), %es:(%edi)
c01935e1: 00 00                        	addb	%al, (%eax)
c01935e3: 00 00                        	addb	%al, (%eax)
c01935e5: 00 00                        	addb	%al, (%eax)
c01935e7: 00 64 00 00                  	addb	%ah, (%eax,%eax)
c01935eb: 00 ea                        	addb	%ch, %dl
c01935ed: 2b 10                        	subl	(%eax), %edx
c01935ef: c0 00 00                     	rolb	$0, (%eax)
		...
c0193ffe: 00 00                        	addb	%al, (%eax)

Disassembly of section .stabstr:

c0194000 <.stabstr>:
c0194000: 00 69 6e                     	addb	%ch, 110(%ecx)
c0194003: 69 74 2f 61 73 6d 2f 69      	imull	$1764715891, 97(%edi,%ebp), %esi
c019400b: 64 74 2e                     	je	0xc019403c <.stabstr+0x3c>
c019400e: 73 00                        	jae	0xc0194010 <.stabstr+0x10>
c0194010: 69 6e 69 74 2f 61 73         	imull	$1935748980, 105(%esi), %ebp
c0194017: 6d                           	insl	%dx, %es:(%edi)
c0194018: 2f                           	das
c0194019: 67 64 74 2e                  	je	0xc019404b <.stabstr+0x4b>
c019401d: 73 00                        	jae	0xc019401f <.stabstr+0x1f>
c019401f: 6b 65 72 6e                  	imull	$110, 114(%ebp), %esp
c0194023: 65 6c                        	insb	%dx, %es:(%edi)
c0194025: 2f                           	das
c0194026: 61                           	popal
c0194027: 73 6d                        	jae	0xc0194096 <.stabstr+0x96>
c0194029: 2f                           	das
c019402a: 69 73 72 2e 73 00 2f         	imull	$788558638, 114(%ebx), %esi
c0194031: 55                           	pushl	%ebp
c0194032: 73 65                        	jae	0xc0194099 <.stabstr+0x99>
c0194034: 72 73                        	jb	0xc01940a9 <.stabstr+0xa9>
c0194036: 2f                           	das
c0194037: 77 65                        	ja	0xc019409e <.stabstr+0x9e>
c0194039: 69 72 6d 65 2f 44 6f         	imull	$1866739557, 109(%edx), %esi
c0194040: 63 75 6d                     	arpl	%si, 109(%ebp)
c0194043: 65 6e                        	outsb	%gs:(%esi), %dx
c0194045: 74 73                        	je	0xc01940ba <.stabstr+0xba>
c0194047: 2f                           	das
c0194048: 70 72                        	jo	0xc01940bc <.stabstr+0xbc>
c019404a: 6f                           	outsl	(%esi), %dx
c019404b: 6a 65                        	pushl	$101
c019404d: 63 74 2f 74                  	arpl	%si, 116(%edi,%ebp)
c0194051: 61                           	popal
c0194052: 6d                           	insl	%dx, %es:(%edi)
c0194053: 61                           	popal
c0194054: 6b 6f 2f 00                  	imull	$0, 47(%edi), %ebp
c0194058: 69 6e 69 74 2f 67 64         	imull	$1684483956, 105(%esi), %ebp
c019405f: 74 2e                        	je	0xc019408f <.stabstr+0x8f>
c0194061: 63 00                        	arpl	%ax, (%eax)
c0194063: 67 63 63 32                  	arpl	%sp, 50(%bp,%di)
c0194067: 5f                           	popl	%edi
c0194068: 63 6f 6d                     	arpl	%bp, 109(%edi)
c019406b: 70 69                        	jo	0xc01940d6 <.stabstr+0xd6>
c019406d: 6c                           	insb	%dx, %es:(%edi)
c019406e: 65 64 2e 00 67 64            	addb	%ah, %cs:100(%edi)
c0194074: 74 3a                        	je	0xc01940b0 <.stabstr+0xb0>
c0194076: 47                           	incl	%edi
c0194077: 28 30                        	subb	%dh, (%eax)
c0194079: 2c 31                        	subb	$49, %al
c019407b: 29 3d 61 72 28 30            	subl	%edi, 807957089
c0194081: 2c 32                        	subb	$50, %al
c0194083: 29 3d 72 28 30 2c            	subl	%edi, 741353586
c0194089: 32 29                        	xorb	(%ecx), %ch
c019408b: 3b 30                        	cmpl	(%eax), %esi
c019408d: 3b 30                        	cmpl	(%eax), %esi
c019408f: 33 37                        	xorl	(%edi), %esi
c0194091: 37                           	aaa
c0194092: 37                           	aaa
c0194093: 37                           	aaa
c0194094: 37                           	aaa
c0194095: 37                           	aaa
c0194096: 37                           	aaa
c0194097: 37                           	aaa
c0194098: 37                           	aaa
c0194099: 37                           	aaa
c019409a: 3b 3b                        	cmpl	(%ebx), %edi
c019409c: 30 3b                        	xorb	%bh, (%ebx)
c019409e: 34 3b                        	xorb	$59, %al
c01940a0: 28 30                        	subb	%dh, (%eax)
c01940a2: 2c 33                        	subb	$51, %al
c01940a4: 29 3d 28 30 2c 34            	subl	%edi, 875311144
c01940aa: 29 3d 78 73 67 6c            	subl	%edi, 1818719096
c01940b0: 62 5f 64                     	bound	%ebx, 100(%edi)
c01940b3: 65 73 63                     	jae	0xc0194119 <.stabstr+0x119>
c01940b6: 5f                           	popl	%edi
c01940b7: 74 3a                        	je	0xc01940f3 <.stabstr+0xf3>
c01940b9: 00 67 6c                     	addb	%ah, 108(%edi)
c01940bc: 62 5f 64                     	bound	%ebx, 100(%edi)
c01940bf: 65 73 63                     	jae	0xc0194125 <.stabstr+0x125>
c01940c2: 5f                           	popl	%edi
c01940c3: 74 3a                        	je	0xc01940ff <.stabstr+0xff>
c01940c5: 54                           	pushl	%esp
c01940c6: 28 30                        	subb	%dh, (%eax)
c01940c8: 2c 34                        	subb	$52, %al
c01940ca: 29 3d 73 38 6c 69            	subl	%edi, 1768700019
c01940d0: 6d                           	insl	%dx, %es:(%edi)
c01940d1: 69 74 5f 6c 6f 77 3a 28      	imull	$674920303, 108(%edi,%ebx,2), %esi
c01940d9: 30 2c 35 29 3d 28 30         	xorb	%ch, 807943465(,%esi)
c01940e0: 2c 36                        	subb	$54, %al
c01940e2: 29 3d 40 73 31 36            	subl	%edi, 909210432
c01940e8: 3b 72 28                     	cmpl	40(%edx), %esi
c01940eb: 30 2c 36                     	xorb	%ch, (%esi,%esi)
c01940ee: 29 3b                        	subl	%edi, (%ebx)
c01940f0: 30 3b                        	xorb	%bh, (%ebx)
c01940f2: 36 35 35 33 35 3b            	xorl	$993342261, %eax
c01940f8: 2c 30                        	subb	$48, %al
c01940fa: 2c 31                        	subb	$49, %al
c01940fc: 36 3b 62 61                  	cmpl	%ss:97(%edx), %esp
c0194100: 73 65                        	jae	0xc0194167 <.stabstr+0x167>
c0194102: 5f                           	popl	%edi
c0194103: 6c                           	insb	%dx, %es:(%edi)
c0194104: 6f                           	outsl	(%esi), %dx
c0194105: 77 3a                        	ja	0xc0194141 <.stabstr+0x141>
c0194107: 28 30                        	subb	%dh, (%eax)
c0194109: 2c 35                        	subb	$53, %al
c019410b: 29 2c 31                     	subl	%ebp, (%ecx,%esi)
c019410e: 36 2c 31                     	subb	$49, %al
c0194111: 36 3b 62 61                  	cmpl	%ss:97(%edx), %esp
c0194115: 73 65                        	jae	0xc019417c <.stabstr+0x17c>
c0194117: 5f                           	popl	%edi
c0194118: 6d                           	insl	%dx, %es:(%edi)
c0194119: 69 64 64 6c 65 3a 28 30      	imull	$807942757, 108(%esp,%eiz,2), %esp
c0194121: 2c 37                        	subb	$55, %al
c0194123: 29 3d 28 30 2c 38            	subl	%edi, 942420008
c0194129: 29 3d 40 73 38 3b            	subl	%edi, 993555264
c019412f: 72 28                        	jb	0xc0194159 <.stabstr+0x159>
c0194131: 30 2c 38                     	xorb	%ch, (%eax,%edi)
c0194134: 29 3b                        	subl	%edi, (%ebx)
c0194136: 30 3b                        	xorb	%bh, (%ebx)
c0194138: 32 35 35 3b 2c 33            	xorb	858536757, %dh
c019413e: 32 2c 38                     	xorb	(%eax,%edi), %ch
c0194141: 3b 61 63                     	cmpl	99(%ecx), %esp
c0194144: 63 65 73                     	arpl	%sp, 115(%ebp)
c0194147: 73 3a                        	jae	0xc0194183 <.stabstr+0x183>
c0194149: 28 30                        	subb	%dh, (%eax)
c019414b: 2c 37                        	subb	$55, %al
c019414d: 29 2c 34                     	subl	%ebp, (%esp,%esi)
c0194150: 30 2c 38                     	xorb	%ch, (%eax,%edi)
c0194153: 3b 67 72                     	cmpl	114(%edi), %esp
c0194156: 61                           	popal
c0194157: 6e                           	outsb	(%esi), %dx
c0194158: 75 6c                        	jne	0xc01941c6 <.stabstr+0x1c6>
c019415a: 61                           	popal
c019415b: 72 69                        	jb	0xc01941c6 <.stabstr+0x1c6>
c019415d: 74 79                        	je	0xc01941d8 <.stabstr+0x1d8>
c019415f: 3a 28                        	cmpb	(%eax), %ch
c0194161: 30 2c 37                     	xorb	%ch, (%edi,%esi)
c0194164: 29 2c 34                     	subl	%ebp, (%esp,%esi)
c0194167: 38 2c 38                     	cmpb	%ch, (%eax,%edi)
c019416a: 3b 62 61                     	cmpl	97(%edx), %esp
c019416d: 73 65                        	jae	0xc01941d4 <.stabstr+0x1d4>
c019416f: 5f                           	popl	%edi
c0194170: 68 69 67 68 3a               	pushl	$979920745
c0194175: 28 30                        	subb	%dh, (%eax)
c0194177: 2c 37                        	subb	$55, %al
c0194179: 29 2c 35 36 2c 38 3b         	subl	%ebp, 993537078(,%esi)
c0194180: 3b 00                        	cmpl	(%eax), %eax
c0194182: 75 69                        	jne	0xc01941ed <.stabstr+0x1ed>
c0194184: 6e                           	outsb	(%esi), %dx
c0194185: 74 31                        	je	0xc01941b8 <.stabstr+0x1b8>
c0194187: 36 5f                        	popl	%edi
c0194189: 74 3a                        	je	0xc01941c5 <.stabstr+0x1c5>
c019418b: 74 28                        	je	0xc01941b5 <.stabstr+0x1b5>
c019418d: 30 2c 35 29 00 73 68         	xorb	%ch, 1752367145(,%esi)
c0194194: 6f                           	outsl	(%esi), %dx
c0194195: 72 74                        	jb	0xc019420b <.stabstr+0x20b>
c0194197: 20 75 6e                     	andb	%dh, 110(%ebp)
c019419a: 73 69                        	jae	0xc0194205 <.stabstr+0x205>
c019419c: 67 6e                        	outsb	(%si), %dx
c019419e: 65 64 20 69 6e               	andb	%ch, %fs:110(%ecx)
c01941a3: 74 3a                        	je	0xc01941df <.stabstr+0x1df>
c01941a5: 74 28                        	je	0xc01941cf <.stabstr+0x1cf>
c01941a7: 30 2c 36                     	xorb	%ch, (%esi,%esi)
c01941aa: 29 00                        	subl	%eax, (%eax)
c01941ac: 75 69                        	jne	0xc0194217 <.stabstr+0x217>
c01941ae: 6e                           	outsb	(%esi), %dx
c01941af: 74 38                        	je	0xc01941e9 <.stabstr+0x1e9>
c01941b1: 5f                           	popl	%edi
c01941b2: 74 3a                        	je	0xc01941ee <.stabstr+0x1ee>
c01941b4: 74 28                        	je	0xc01941de <.stabstr+0x1de>
c01941b6: 30 2c 37                     	xorb	%ch, (%edi,%esi)
c01941b9: 29 00                        	subl	%eax, (%eax)
c01941bb: 75 6e                        	jne	0xc019422b <.stabstr+0x22b>
c01941bd: 73 69                        	jae	0xc0194228 <.stabstr+0x228>
c01941bf: 67 6e                        	outsb	(%si), %dx
c01941c1: 65 64 20 63 68               	andb	%ah, %fs:104(%ebx)
c01941c6: 61                           	popal
c01941c7: 72 3a                        	jb	0xc0194203 <.stabstr+0x203>
c01941c9: 74 28                        	je	0xc01941f3 <.stabstr+0x1f3>
c01941cb: 30 2c 38                     	xorb	%ch, (%eax,%edi)
c01941ce: 29 00                        	subl	%eax, (%eax)
c01941d0: 67 64 74 72                  	je	0xc0194246 <.stabstr+0x246>
c01941d4: 3a 47 28                     	cmpb	40(%edi), %al
c01941d7: 30 2c 39                     	xorb	%ch, (%ecx,%edi)
c01941da: 29 3d 28 30 2c 31            	subl	%edi, 824979496
c01941e0: 30 29                        	xorb	%ch, (%ecx)
c01941e2: 3d 78 73 67 64               	cmpl	$1684501368, %eax
c01941e7: 74 72                        	je	0xc019425b <.stabstr+0x25b>
c01941e9: 5f                           	popl	%edi
c01941ea: 74 3a                        	je	0xc0194226 <.stabstr+0x226>
c01941ec: 00 67 64                     	addb	%ah, 100(%edi)
c01941ef: 74 72                        	je	0xc0194263 <.stabstr+0x263>
c01941f1: 5f                           	popl	%edi
c01941f2: 74 3a                        	je	0xc019422e <.stabstr+0x22e>
c01941f4: 54                           	pushl	%esp
c01941f5: 28 30                        	subb	%dh, (%eax)
c01941f7: 2c 31                        	subb	$49, %al
c01941f9: 30 29                        	xorb	%ch, (%ecx)
c01941fb: 3d 73 36 6c 69               	cmpl	$1768699507, %eax
c0194200: 6d                           	insl	%dx, %es:(%edi)
c0194201: 69 74 3a 28 30 2c 35 29      	imull	$691350576, 40(%edx,%edi), %esi
c0194209: 2c 30                        	subb	$48, %al
c019420b: 2c 31                        	subb	$49, %al
c019420d: 36 3b 62 61                  	cmpl	%ss:97(%edx), %esp
c0194211: 73 65                        	jae	0xc0194278 <.stabstr+0x278>
c0194213: 3a 28                        	cmpb	(%eax), %ch
c0194215: 30 2c 31                     	xorb	%ch, (%ecx,%esi)
c0194218: 31 29                        	xorl	%ebp, (%ecx)
c019421a: 3d 28 30 2c 31               	cmpl	$824979496, %eax
c019421f: 32 29                        	xorb	(%ecx), %ch
c0194221: 3d 72 28 30 2c               	cmpl	$741353586, %eax
c0194226: 31 32                        	xorl	%esi, (%edx)
c0194228: 29 3b                        	subl	%edi, (%ebx)
c019422a: 30 3b                        	xorb	%bh, (%ebx)
c019422c: 30 33                        	xorb	%dh, (%ebx)
c019422e: 37                           	aaa
c019422f: 37                           	aaa
c0194230: 37                           	aaa
c0194231: 37                           	aaa
c0194232: 37                           	aaa
c0194233: 37                           	aaa
c0194234: 37                           	aaa
c0194235: 37                           	aaa
c0194236: 37                           	aaa
c0194237: 37                           	aaa
c0194238: 3b 2c 31                     	cmpl	(%ecx,%esi), %ebp
c019423b: 36 2c 33                     	subb	$51, %al
c019423e: 32 3b                        	xorb	(%ebx), %bh
c0194240: 3b 00                        	cmpl	(%eax), %eax
c0194242: 67 64 74 72                  	je	0xc01942b8 <.stabstr+0x2b8>
c0194246: 5f                           	popl	%edi
c0194247: 74 3a                        	je	0xc0194283 <.stabstr+0x283>
c0194249: 74 28                        	je	0xc0194273 <.stabstr+0x273>
c019424b: 30 2c 39                     	xorb	%ch, (%ecx,%edi)
c019424e: 29 00                        	subl	%eax, (%eax)
c0194250: 75 69                        	jne	0xc01942bb <.stabstr+0x2bb>
c0194252: 6e                           	outsb	(%esi), %dx
c0194253: 74 33                        	je	0xc0194288 <.stabstr+0x288>
c0194255: 32 5f 74                     	xorb	116(%edi), %bl
c0194258: 3a 74 28 30                  	cmpb	48(%eax,%ebp), %dh
c019425c: 2c 31                        	subb	$49, %al
c019425e: 31 29                        	xorl	%ebp, (%ecx)
c0194260: 00 75 6e                     	addb	%dh, 110(%ebp)
c0194263: 73 69                        	jae	0xc01942ce <.stabstr+0x2ce>
c0194265: 67 6e                        	outsb	(%si), %dx
c0194267: 65 64 20 69 6e               	andb	%ch, %fs:110(%ecx)
c019426c: 74 3a                        	je	0xc01942a8 <.stabstr+0x2a8>
c019426e: 74 28                        	je	0xc0194298 <.stabstr+0x298>
c0194270: 30 2c 31                     	xorb	%ch, (%ecx,%esi)
c0194273: 32 29                        	xorb	(%ecx), %ch
c0194275: 00 67 64                     	addb	%ah, 100(%edi)
c0194278: 74 5f                        	je	0xc01942d9 <.stabstr+0x2d9>
c019427a: 73 65                        	jae	0xc01942e1 <.stabstr+0x2e1>
c019427c: 74 5f                        	je	0xc01942dd <.stabstr+0x2dd>
c019427e: 67 61                        	popal
c0194280: 74 65                        	je	0xc01942e7 <.stabstr+0x2e7>
c0194282: 3a 66 28                     	cmpb	40(%esi), %ah
c0194285: 30 2c 31                     	xorb	%ch, (%ecx,%esi)
c0194288: 33 29                        	xorl	(%ecx), %ebp
c019428a: 3d 28 30 2c 31               	cmpl	$824979496, %eax
c019428f: 33 29                        	xorl	(%ecx), %ebp
c0194291: 00 76 6f                     	addb	%dh, 111(%esi)
c0194294: 69 64 3a 74 28 30 2c 31      	imull	$824979496, 116(%edx,%edi), %esp
c019429c: 33 29                        	xorl	(%ecx), %ebp
c019429e: 00 69 64                     	addb	%ch, 100(%ecx)
c01942a1: 78 3a                        	js	0xc01942dd <.stabstr+0x2dd>
c01942a3: 70 28                        	jo	0xc01942cd <.stabstr+0x2cd>
c01942a5: 30 2c 31                     	xorb	%ch, (%ecx,%esi)
c01942a8: 34 29                        	xorb	$41, %al
c01942aa: 3d 28 30 2c 31               	cmpl	$824979496, %eax
c01942af: 35 29 3d 72 28               	xorl	$678575401, %eax
c01942b4: 30 2c 31                     	xorb	%ch, (%ecx,%esi)
c01942b7: 35 29 3b 2d 32               	xorl	$841825065, %eax
c01942bc: 31 34 37                     	xorl	%esi, (%edi,%esi)
c01942bf: 34 38                        	xorb	$56, %al
c01942c1: 33 36                        	xorl	(%esi), %esi
c01942c3: 34 38                        	xorb	$56, %al
c01942c5: 3b 32                        	cmpl	(%edx), %esi
c01942c7: 31 34 37                     	xorl	%esi, (%edi,%esi)
c01942ca: 34 38                        	xorb	$56, %al
c01942cc: 33 36                        	xorl	(%esi), %esi
c01942ce: 34 37                        	xorb	$55, %al
c01942d0: 3b 00                        	cmpl	(%eax), %eax
c01942d2: 62 61 73                     	bound	%esp, 115(%ecx)
c01942d5: 65 3a 70 28                  	cmpb	%gs:40(%eax), %dh
c01942d9: 30 2c 31                     	xorb	%ch, (%ecx,%esi)
c01942dc: 31 29                        	xorl	%ebp, (%ecx)
c01942de: 00 6c 69 6d                  	addb	%ch, 109(%ecx,%ebp,2)
c01942e2: 69 74 3a 70 28 30 2c 31      	imull	$824979496, 112(%edx,%edi), %esi
c01942ea: 31 29                        	xorl	%ebp, (%ecx)
c01942ec: 00 61 63                     	addb	%ah, 99(%ecx)
c01942ef: 63 65 73                     	arpl	%sp, 115(%ebp)
c01942f2: 73 3a                        	jae	0xc019432e <.stabstr+0x32e>
c01942f4: 70 28                        	jo	0xc019431e <.stabstr+0x31e>
c01942f6: 30 2c 31                     	xorb	%ch, (%ecx,%esi)
c01942f9: 35 29 00 67 72               	xorl	$1919352873, %eax
c01942fe: 61                           	popal
c01942ff: 6e                           	outsb	(%esi), %dx
c0194300: 3a 70 28                     	cmpb	40(%eax), %dh
c0194303: 30 2c 31                     	xorb	%ch, (%ecx,%esi)
c0194306: 35 29 00 69 6e               	xorl	$1852375081, %eax
c019430b: 74 33                        	je	0xc0194340 <.stabstr+0x340>
c019430d: 32 5f 74                     	xorb	116(%edi), %bl
c0194310: 3a 74 28 30                  	cmpb	48(%eax,%ebp), %dh
c0194314: 2c 31                        	subb	$49, %al
c0194316: 34 29                        	xorb	$41, %al
c0194318: 00 69 6e                     	addb	%ch, 110(%ecx)
c019431b: 74 3a                        	je	0xc0194357 <.stabstr+0x357>
c019431d: 74 28                        	je	0xc0194347 <.stabstr+0x347>
c019431f: 30 2c 31                     	xorb	%ch, (%ecx,%esi)
c0194322: 35 29 00 61 63               	xorl	$1667301417, %eax
c0194327: 63 65 73                     	arpl	%sp, 115(%ebp)
c019432a: 73 3a                        	jae	0xc0194366 <.stabstr+0x366>
c019432c: 28 30                        	subb	%dh, (%eax)
c019432e: 2c 37                        	subb	$55, %al
c0194330: 29 00                        	subl	%eax, (%eax)
c0194332: 67 72 61                     	jb	0xc0194396 <.stabstr+0x396>
c0194335: 6e                           	outsb	(%esi), %dx
c0194336: 3a 28                        	cmpb	(%eax), %ch
c0194338: 30 2c 37                     	xorb	%ch, (%edi,%esi)
c019433b: 29 00                        	subl	%eax, (%eax)
c019433d: 73 65                        	jae	0xc01943a4 <.stabstr+0x3a4>
c019433f: 74 75                        	je	0xc01943b6 <.stabstr+0x3b6>
c0194341: 70 5f                        	jo	0xc01943a2 <.stabstr+0x3a2>
c0194343: 67 64 74 3a                  	je	0xc0194381 <.stabstr+0x381>
c0194347: 46                           	incl	%esi
c0194348: 28 30                        	subb	%dh, (%eax)
c019434a: 2c 31                        	subb	$49, %al
c019434c: 33 29                        	xorl	(%ecx), %ebp
c019434e: 00 69 6e                     	addb	%ch, 110(%ecx)
c0194351: 69 74 2f 69 64 74 2e 63      	imull	$1663988836, 105(%edi,%ebp), %esi
c0194359: 00 69 64                     	addb	%ch, 100(%ecx)
c019435c: 74 3a                        	je	0xc0194398 <.stabstr+0x398>
c019435e: 47                           	incl	%edi
c019435f: 28 30                        	subb	%dh, (%eax)
c0194361: 2c 31                        	subb	$49, %al
c0194363: 29 3d 61 72 28 30            	subl	%edi, 807957089
c0194369: 2c 32                        	subb	$50, %al
c019436b: 29 3d 72 28 30 2c            	subl	%edi, 741353586
c0194371: 32 29                        	xorb	(%ecx), %ch
c0194373: 3b 30                        	cmpl	(%eax), %esi
c0194375: 3b 30                        	cmpl	(%eax), %esi
c0194377: 33 37                        	xorl	(%edi), %esi
c0194379: 37                           	aaa
c019437a: 37                           	aaa
c019437b: 37                           	aaa
c019437c: 37                           	aaa
c019437d: 37                           	aaa
c019437e: 37                           	aaa
c019437f: 37                           	aaa
c0194380: 37                           	aaa
c0194381: 37                           	aaa
c0194382: 3b 3b                        	cmpl	(%ebx), %edi
c0194384: 30 3b                        	xorb	%bh, (%ebx)
c0194386: 32 35 35 3b 28 30            	xorb	807942965, %dh
c019438c: 2c 33                        	subb	$51, %al
c019438e: 29 3d 28 30 2c 34            	subl	%edi, 875311144
c0194394: 29 3d 78 73 69 6e            	subl	%edi, 1852404600
c019439a: 74 72                        	je	0xc019440e <.stabstr+0x40e>
c019439c: 5f                           	popl	%edi
c019439d: 64 65 73 63                  	jae	0xc0194404 <.stabstr+0x404>
c01943a1: 5f                           	popl	%edi
c01943a2: 74 3a                        	je	0xc01943de <.stabstr+0x3de>
c01943a4: 00 69 6e                     	addb	%ch, 110(%ecx)
c01943a7: 74 72                        	je	0xc019441b <.stabstr+0x41b>
c01943a9: 5f                           	popl	%edi
c01943aa: 64 65 73 63                  	jae	0xc0194411 <.stabstr+0x411>
c01943ae: 5f                           	popl	%edi
c01943af: 74 3a                        	je	0xc01943eb <.stabstr+0x3eb>
c01943b1: 54                           	pushl	%esp
c01943b2: 28 30                        	subb	%dh, (%eax)
c01943b4: 2c 34                        	subb	$52, %al
c01943b6: 29 3d 73 38 62 61            	subl	%edi, 1633826931
c01943bc: 73 65                        	jae	0xc0194423 <.stabstr+0x423>
c01943be: 5f                           	popl	%edi
c01943bf: 6c                           	insb	%dx, %es:(%edi)
c01943c0: 6f                           	outsl	(%esi), %dx
c01943c1: 77 3a                        	ja	0xc01943fd <.stabstr+0x3fd>
c01943c3: 28 30                        	subb	%dh, (%eax)
c01943c5: 2c 35                        	subb	$53, %al
c01943c7: 29 3d 28 30 2c 36            	subl	%edi, 908865576
c01943cd: 29 3d 40 73 31 36            	subl	%edi, 909210432
c01943d3: 3b 72 28                     	cmpl	40(%edx), %esi
c01943d6: 30 2c 36                     	xorb	%ch, (%esi,%esi)
c01943d9: 29 3b                        	subl	%edi, (%ebx)
c01943db: 30 3b                        	xorb	%bh, (%ebx)
c01943dd: 36 35 35 33 35 3b            	xorl	$993342261, %eax
c01943e3: 2c 30                        	subb	$48, %al
c01943e5: 2c 31                        	subb	$49, %al
c01943e7: 36 3b 73 65                  	cmpl	%ss:101(%ebx), %esi
c01943eb: 6c                           	insb	%dx, %es:(%edi)
c01943ec: 3a 28                        	cmpb	(%eax), %ch
c01943ee: 30 2c 35 29 2c 31 36         	xorb	%ch, 909192233(,%esi)
c01943f5: 2c 31                        	subb	$49, %al
c01943f7: 36 3b 61 6c                  	cmpl	%ss:108(%ecx), %esp
c01943fb: 77 61                        	ja	0xc019445e <.stabstr+0x45e>
c01943fd: 79 73                        	jns	0xc0194472 <.stabstr+0x472>
c01943ff: 30 3a                        	xorb	%bh, (%edx)
c0194401: 28 30                        	subb	%dh, (%eax)
c0194403: 2c 37                        	subb	$55, %al
c0194405: 29 3d 28 30 2c 38            	subl	%edi, 942420008
c019440b: 29 3d 40 73 38 3b            	subl	%edi, 993555264
c0194411: 72 28                        	jb	0xc019443b <.stabstr+0x43b>
c0194413: 30 2c 38                     	xorb	%ch, (%eax,%edi)
c0194416: 29 3b                        	subl	%edi, (%ebx)
c0194418: 30 3b                        	xorb	%bh, (%ebx)
c019441a: 32 35 35 3b 2c 33            	xorb	858536757, %dh
c0194420: 32 2c 38                     	xorb	(%eax,%edi), %ch
c0194423: 3b 66 6c                     	cmpl	108(%esi), %esp
c0194426: 61                           	popal
c0194427: 67 73 3a                     	jae	0xc0194464 <.stabstr+0x464>
c019442a: 28 30                        	subb	%dh, (%eax)
c019442c: 2c 37                        	subb	$55, %al
c019442e: 29 2c 34                     	subl	%ebp, (%esp,%esi)
c0194431: 30 2c 38                     	xorb	%ch, (%eax,%edi)
c0194434: 3b 62 61                     	cmpl	97(%edx), %esp
c0194437: 73 65                        	jae	0xc019449e <.stabstr+0x49e>
c0194439: 5f                           	popl	%edi
c019443a: 68 69 67 68 3a               	pushl	$979920745
c019443f: 28 30                        	subb	%dh, (%eax)
c0194441: 2c 35                        	subb	$53, %al
c0194443: 29 2c 34                     	subl	%ebp, (%esp,%esi)
c0194446: 38 2c 31                     	cmpb	%ch, (%ecx,%esi)
c0194449: 36 3b 3b                     	cmpl	%ss:(%ebx), %edi
c019444c: 00 69 64                     	addb	%ch, 100(%ecx)
c019444f: 74 72                        	je	0xc01944c3 <.stabstr+0x4c3>
c0194451: 3a 47 28                     	cmpb	40(%edi), %al
c0194454: 30 2c 39                     	xorb	%ch, (%ecx,%edi)
c0194457: 29 3d 28 30 2c 31            	subl	%edi, 824979496
c019445d: 30 29                        	xorb	%ch, (%ecx)
c019445f: 3d 78 73 69 64               	cmpl	$1684632440, %eax
c0194464: 74 72                        	je	0xc01944d8 <.stabstr+0x4d8>
c0194466: 5f                           	popl	%edi
c0194467: 74 3a                        	je	0xc01944a3 <.stabstr+0x4a3>
c0194469: 00 69 64                     	addb	%ch, 100(%ecx)
c019446c: 74 72                        	je	0xc01944e0 <.stabstr+0x4e0>
c019446e: 5f                           	popl	%edi
c019446f: 74 3a                        	je	0xc01944ab <.stabstr+0x4ab>
c0194471: 54                           	pushl	%esp
c0194472: 28 30                        	subb	%dh, (%eax)
c0194474: 2c 31                        	subb	$49, %al
c0194476: 30 29                        	xorb	%ch, (%ecx)
c0194478: 3d 73 36 6c 69               	cmpl	$1768699507, %eax
c019447d: 6d                           	insl	%dx, %es:(%edi)
c019447e: 69 74 3a 28 30 2c 35 29      	imull	$691350576, 40(%edx,%edi), %esi
c0194486: 2c 30                        	subb	$48, %al
c0194488: 2c 31                        	subb	$49, %al
c019448a: 36 3b 62 61                  	cmpl	%ss:97(%edx), %esp
c019448e: 73 65                        	jae	0xc01944f5 <.stabstr+0x4f5>
c0194490: 3a 28                        	cmpb	(%eax), %ch
c0194492: 30 2c 31                     	xorb	%ch, (%ecx,%esi)
c0194495: 31 29                        	xorl	%ebp, (%ecx)
c0194497: 3d 28 30 2c 31               	cmpl	$824979496, %eax
c019449c: 32 29                        	xorb	(%ecx), %ch
c019449e: 3d 72 28 30 2c               	cmpl	$741353586, %eax
c01944a3: 31 32                        	xorl	%esi, (%edx)
c01944a5: 29 3b                        	subl	%edi, (%ebx)
c01944a7: 30 3b                        	xorb	%bh, (%ebx)
c01944a9: 30 33                        	xorb	%dh, (%ebx)
c01944ab: 37                           	aaa
c01944ac: 37                           	aaa
c01944ad: 37                           	aaa
c01944ae: 37                           	aaa
c01944af: 37                           	aaa
c01944b0: 37                           	aaa
c01944b1: 37                           	aaa
c01944b2: 37                           	aaa
c01944b3: 37                           	aaa
c01944b4: 37                           	aaa
c01944b5: 3b 2c 31                     	cmpl	(%ecx,%esi), %ebp
c01944b8: 36 2c 33                     	subb	$51, %al
c01944bb: 32 3b                        	xorb	(%ebx), %bh
c01944bd: 3b 00                        	cmpl	(%eax), %eax
c01944bf: 69 64 74 72 5f 74 3a 74      	imull	$1949987935, 114(%esp,%esi,2), %esp
c01944c7: 28 30                        	subb	%dh, (%eax)
c01944c9: 2c 39                        	subb	$57, %al
c01944cb: 29 00                        	subl	%eax, (%eax)
c01944cd: 69 64 74 5f 73 65 74 5f      	imull	$1601463667, 95(%esp,%esi,2), %esp
c01944d5: 67 61                        	popal
c01944d7: 74 65                        	je	0xc019453e <.stabstr+0x53e>
c01944d9: 3a 66 28                     	cmpb	40(%esi), %ah
c01944dc: 30 2c 31                     	xorb	%ch, (%ecx,%esi)
c01944df: 33 29                        	xorl	(%ecx), %ebp
c01944e1: 3d 28 30 2c 31               	cmpl	$824979496, %eax
c01944e6: 33 29                        	xorl	(%ecx), %ebp
c01944e8: 00 69 64                     	addb	%ch, 100(%ecx)
c01944eb: 78 3a                        	js	0xc0194527 <.stabstr+0x527>
c01944ed: 70 28                        	jo	0xc0194517 <.stabstr+0x517>
c01944ef: 30 2c 31                     	xorb	%ch, (%ecx,%esi)
c01944f2: 31 29                        	xorl	%ebp, (%ecx)
c01944f4: 00 73 65                     	addb	%dh, 101(%ebx)
c01944f7: 6c                           	insb	%dx, %es:(%edi)
c01944f8: 3a 70 28                     	cmpb	40(%eax), %dh
c01944fb: 30 2c 31                     	xorb	%ch, (%ecx,%esi)
c01944fe: 34 29                        	xorb	$41, %al
c0194500: 3d 72 28 30 2c               	cmpl	$741353586, %eax
c0194505: 31 34 29                     	xorl	%esi, (%ecx,%ebp)
c0194508: 3b 2d 32 31 34 37            	cmpl	926167346, %ebp
c019450e: 34 38                        	xorb	$56, %al
c0194510: 33 36                        	xorl	(%esi), %esi
c0194512: 34 38                        	xorb	$56, %al
c0194514: 3b 32                        	cmpl	(%edx), %esi
c0194516: 31 34 37                     	xorl	%esi, (%edi,%esi)
c0194519: 34 38                        	xorb	$56, %al
c019451b: 33 36                        	xorl	(%esi), %esi
c019451d: 34 37                        	xorb	$55, %al
c019451f: 3b 00                        	cmpl	(%eax), %eax
c0194521: 66 6c                        	insb	%dx, %es:(%edi)
c0194523: 61                           	popal
c0194524: 67 73 3a                     	jae	0xc0194561 <.stabstr+0x561>
c0194527: 70 28                        	jo	0xc0194551 <.stabstr+0x551>
c0194529: 30 2c 31                     	xorb	%ch, (%ecx,%esi)
c019452c: 34 29                        	xorb	$41, %al
c019452e: 00 69 6e                     	addb	%ch, 110(%ecx)
c0194531: 74 3a                        	je	0xc019456d <.stabstr+0x56d>
c0194533: 74 28                        	je	0xc019455d <.stabstr+0x55d>
c0194535: 30 2c 31                     	xorb	%ch, (%ecx,%esi)
c0194538: 34 29                        	xorb	$41, %al
c019453a: 00 73 65                     	addb	%dh, 101(%ebx)
c019453d: 6c                           	insb	%dx, %es:(%edi)
c019453e: 3a 28                        	cmpb	(%eax), %ch
c0194540: 30 2c 35 29 00 66 6c         	xorb	%ch, 1818624041(,%esi)
c0194547: 61                           	popal
c0194548: 67 73 3a                     	jae	0xc0194585 <.stabstr+0x585>
c019454b: 28 30                        	subb	%dh, (%eax)
c019454d: 2c 37                        	subb	$55, %al
c019454f: 29 00                        	subl	%eax, (%eax)
c0194551: 73 65                        	jae	0xc01945b8 <.stabstr+0x5b8>
c0194553: 74 75                        	je	0xc01945ca <.stabstr+0x5ca>
c0194555: 70 5f                        	jo	0xc01945b6 <.stabstr+0x5b6>
c0194557: 69 64 74 3a 46 28 30 2c      	imull	$741353542, 58(%esp,%esi,2), %esp
c019455f: 31 33                        	xorl	%esi, (%ebx)
c0194561: 29 00                        	subl	%eax, (%eax)
c0194563: 69 6e 69 74 2f 65 6e         	imull	$1852125044, 105(%esi), %ebp
c019456a: 74 72                        	je	0xc01945de <.stabstr+0x5de>
c019456c: 79 2e                        	jns	0xc019459c <.stabstr+0x59c>
c019456e: 63 00                        	arpl	%ax, (%eax)
c0194570: 6b 65 72 6e                  	imull	$110, 114(%ebp), %esp
c0194574: 5f                           	popl	%edi
c0194575: 65 6e                        	outsb	%gs:(%esi), %dx
c0194577: 74 72                        	je	0xc01945eb <.stabstr+0x5eb>
c0194579: 79 3a                        	jns	0xc01945b5 <.stabstr+0x5b5>
c019457b: 46                           	incl	%esi
c019457c: 28 30                        	subb	%dh, (%eax)
c019457e: 2c 31                        	subb	$49, %al
c0194580: 29 3d 72 28 30 2c            	subl	%edi, 741353586
c0194586: 31 29                        	xorl	%ebp, (%ecx)
c0194588: 3b 2d 32 31 34 37            	cmpl	926167346, %ebp
c019458e: 34 38                        	xorb	$56, %al
c0194590: 33 36                        	xorl	(%esi), %esi
c0194592: 34 38                        	xorb	$56, %al
c0194594: 3b 32                        	cmpl	(%edx), %esi
c0194596: 31 34 37                     	xorl	%esi, (%edi,%esi)
c0194599: 34 38                        	xorb	$56, %al
c019459b: 33 36                        	xorl	(%esi), %esi
c019459d: 34 37                        	xorb	$55, %al
c019459f: 3b 00                        	cmpl	(%eax), %eax
c01945a1: 69 6e 74 3a 74 28 30         	imull	$807957562, 116(%esi), %ebp
c01945a8: 2c 31                        	subb	$49, %al
c01945aa: 29 00                        	subl	%eax, (%eax)
c01945ac: 64 72 69                     	jb	0xc0194618 <.stabstr+0x618>
c01945af: 76 65                        	jbe	0xc0194616 <.stabstr+0x616>
c01945b1: 72 73                        	jb	0xc0194626 <.stabstr+0x626>
c01945b3: 2f                           	das
c01945b4: 70 69                        	jo	0xc019461f <.stabstr+0x61f>
c01945b6: 63 2e                        	arpl	%bp, (%esi)
c01945b8: 63 00                        	arpl	%ax, (%eax)
c01945ba: 70 69                        	jo	0xc0194625 <.stabstr+0x625>
c01945bc: 63 5f 69                     	arpl	%bx, 105(%edi)
c01945bf: 6e                           	outsb	(%esi), %dx
c01945c0: 69 74 3a 46 28 30 2c 31      	imull	$824979496, 70(%edx,%edi), %esi
c01945c8: 29 3d 28 30 2c 31            	subl	%edi, 824979496
c01945ce: 29 00                        	subl	%eax, (%eax)
c01945d0: 76 6f                        	jbe	0xc0194641 <.stabstr+0x641>
c01945d2: 69 64 3a 74 28 30 2c 31      	imull	$824979496, 116(%edx,%edi), %esp
c01945da: 29 00                        	subl	%eax, (%eax)
c01945dc: 63 6c 65 61                  	arpl	%bp, 97(%ebp,%eiz,2)
c01945e0: 72 5f                        	jb	0xc0194641 <.stabstr+0x641>
c01945e2: 69 72 71 3a 46 28 30         	imull	$807945786, 113(%edx), %esi
c01945e9: 2c 31                        	subb	$49, %al
c01945eb: 29 00                        	subl	%eax, (%eax)
c01945ed: 69 6e 74 72 5f 6e 6f         	imull	$1869504370, 116(%esi), %ebp
c01945f4: 3a 70 28                     	cmpb	40(%eax), %dh
c01945f7: 30 2c 32                     	xorb	%ch, (%edx,%esi)
c01945fa: 29 3d 28 30 2c 33            	subl	%edi, 858533928
c0194600: 29 3d 72 28 30 2c            	subl	%edi, 741353586
c0194606: 33 29                        	xorl	(%ecx), %ebp
c0194608: 3b 30                        	cmpl	(%eax), %esi
c019460a: 3b 30                        	cmpl	(%eax), %esi
c019460c: 33 37                        	xorl	(%edi), %esi
c019460e: 37                           	aaa
c019460f: 37                           	aaa
c0194610: 37                           	aaa
c0194611: 37                           	aaa
c0194612: 37                           	aaa
c0194613: 37                           	aaa
c0194614: 37                           	aaa
c0194615: 37                           	aaa
c0194616: 37                           	aaa
c0194617: 3b 00                        	cmpl	(%eax), %eax
c0194619: 75 69                        	jne	0xc0194684 <.stabstr+0x684>
c019461b: 6e                           	outsb	(%esi), %dx
c019461c: 74 33                        	je	0xc0194651 <.stabstr+0x651>
c019461e: 32 5f 74                     	xorb	116(%edi), %bl
c0194621: 3a 74 28 30                  	cmpb	48(%eax,%ebp), %dh
c0194625: 2c 32                        	subb	$50, %al
c0194627: 29 00                        	subl	%eax, (%eax)
c0194629: 75 6e                        	jne	0xc0194699 <.stabstr+0x699>
c019462b: 73 69                        	jae	0xc0194696 <.stabstr+0x696>
c019462d: 67 6e                        	outsb	(%si), %dx
c019462f: 65 64 20 69 6e               	andb	%ch, %fs:110(%ecx)
c0194634: 74 3a                        	je	0xc0194670 <.stabstr+0x670>
c0194636: 74 28                        	je	0xc0194660 <.stabstr+0x660>
c0194638: 30 2c 33                     	xorb	%ch, (%ebx,%esi)
c019463b: 29 00                        	subl	%eax, (%eax)
c019463d: 64 72 69                     	jb	0xc01946a9 <.stabstr+0x6a9>
c0194640: 76 65                        	jbe	0xc01946a7 <.stabstr+0x6a7>
c0194642: 72 73                        	jb	0xc01946b7 <.stabstr+0x6b7>
c0194644: 2f                           	das
c0194645: 63 6c 6f 63                  	arpl	%bp, 99(%edi,%ebp,2)
c0194649: 6b 2e 63                     	imull	$99, (%esi), %ebp
c019464c: 00 63 6c                     	addb	%ah, 108(%ebx)
c019464f: 6b 5f 69 6e                  	imull	$110, 105(%edi), %ebx
c0194653: 74 72                        	je	0xc01946c7 <.stabstr+0x6c7>
c0194655: 3a 46 28                     	cmpb	40(%esi), %al
c0194658: 30 2c 31                     	xorb	%ch, (%ecx,%esi)
c019465b: 29 3d 28 30 2c 31            	subl	%edi, 824979496
c0194661: 29 00                        	subl	%eax, (%eax)
c0194663: 72 65                        	jb	0xc01946ca <.stabstr+0x6ca>
c0194665: 67 73 3a                     	jae	0xc01946a2 <.stabstr+0x6a2>
c0194668: 70 28                        	jo	0xc0194692 <.stabstr+0x692>
c019466a: 30 2c 32                     	xorb	%ch, (%edx,%esi)
c019466d: 29 3d 2a 28 30 2c            	subl	%edi, 741353514
c0194673: 33 29                        	xorl	(%ecx), %ebp
c0194675: 3d 28 30 2c 34               	cmpl	$875311144, %eax
c019467a: 29 3d 78 73 70 74            	subl	%edi, 1953526648
c0194680: 5f                           	popl	%edi
c0194681: 72 65                        	jb	0xc01946e8 <.stabstr+0x6e8>
c0194683: 67 73 5f                     	jae	0xc01946e5 <.stabstr+0x6e5>
c0194686: 74 3a                        	je	0xc01946c2 <.stabstr+0x6c2>
c0194688: 00 70 74                     	addb	%dh, 116(%eax)
c019468b: 5f                           	popl	%edi
c019468c: 72 65                        	jb	0xc01946f3 <.stabstr+0x6f3>
c019468e: 67 73 5f                     	jae	0xc01946f0 <.stabstr+0x6f0>
c0194691: 74 3a                        	je	0xc01946cd <.stabstr+0x6cd>
c0194693: 54                           	pushl	%esp
c0194694: 28 30                        	subb	%dh, (%eax)
c0194696: 2c 34                        	subb	$52, %al
c0194698: 29 3d 73 36 34 64            	subl	%edi, 1681143411
c019469e: 73 3a                        	jae	0xc01946da <.stabstr+0x6da>
c01946a0: 28 30                        	subb	%dh, (%eax)
c01946a2: 2c 35                        	subb	$53, %al
c01946a4: 29 3d 28 30 2c 36            	subl	%edi, 908865576
c01946aa: 29 3d 72 28 30 2c            	subl	%edi, 741353586
c01946b0: 36 29 3b                     	subl	%edi, %ss:(%ebx)
c01946b3: 30 3b                        	xorb	%bh, (%ebx)
c01946b5: 30 33                        	xorb	%dh, (%ebx)
c01946b7: 37                           	aaa
c01946b8: 37                           	aaa
c01946b9: 37                           	aaa
c01946ba: 37                           	aaa
c01946bb: 37                           	aaa
c01946bc: 37                           	aaa
c01946bd: 37                           	aaa
c01946be: 37                           	aaa
c01946bf: 37                           	aaa
c01946c0: 37                           	aaa
c01946c1: 3b 2c 30                     	cmpl	(%eax,%esi), %ebp
c01946c4: 2c 33                        	subb	$51, %al
c01946c6: 32 3b                        	xorb	(%ebx), %bh
c01946c8: 65 64 69 3a 28 30 2c 35      	imull	$892088360, %fs:(%edx), %edi
c01946d0: 29 2c 33                     	subl	%ebp, (%ebx,%esi)
c01946d3: 32 2c 33                     	xorb	(%ebx,%esi), %ch
c01946d6: 32 3b                        	xorb	(%ebx), %bh
c01946d8: 65 73 69                     	jae	0xc0194744 <.stabstr+0x744>
c01946db: 3a 28                        	cmpb	(%eax), %ch
c01946dd: 30 2c 35 29 2c 36 34         	xorb	%ch, 875965481(,%esi)
c01946e4: 2c 33                        	subb	$51, %al
c01946e6: 32 3b                        	xorb	(%ebx), %bh
c01946e8: 65 62 70 3a                  	bound	%esi, %gs:58(%eax)
c01946ec: 28 30                        	subb	%dh, (%eax)
c01946ee: 2c 35                        	subb	$53, %al
c01946f0: 29 2c 39                     	subl	%ebp, (%ecx,%edi)
c01946f3: 36 2c 33                     	subb	$51, %al
c01946f6: 32 3b                        	xorb	(%ebx), %bh
c01946f8: 65 73 70                     	jae	0xc019476b <.stabstr+0x76b>
c01946fb: 3a 28                        	cmpb	(%eax), %ch
c01946fd: 30 2c 35 29 2c 31 32         	xorb	%ch, 842083369(,%esi)
c0194704: 38 2c 33                     	cmpb	%ch, (%ebx,%esi)
c0194707: 32 3b                        	xorb	(%ebx), %bh
c0194709: 65 62 78 3a                  	bound	%edi, %gs:58(%eax)
c019470d: 28 30                        	subb	%dh, (%eax)
c019470f: 2c 35                        	subb	$53, %al
c0194711: 29 2c 31                     	subl	%ebp, (%ecx,%esi)
c0194714: 36 30 2c 33                  	xorb	%ch, %ss:(%ebx,%esi)
c0194718: 32 3b                        	xorb	(%ebx), %bh
c019471a: 65 64 78 3a                  	js	0xc0194758 <.stabstr+0x758>
c019471e: 28 30                        	subb	%dh, (%eax)
c0194720: 2c 35                        	subb	$53, %al
c0194722: 29 2c 31                     	subl	%ebp, (%ecx,%esi)
c0194725: 39 32                        	cmpl	%esi, (%edx)
c0194727: 2c 33                        	subb	$51, %al
c0194729: 32 3b                        	xorb	(%ebx), %bh
c019472b: 65 63 78 3a                  	arpl	%di, %gs:58(%eax)
c019472f: 28 30                        	subb	%dh, (%eax)
c0194731: 2c 35                        	subb	$53, %al
c0194733: 29 2c 32                     	subl	%ebp, (%edx,%esi)
c0194736: 32 34 2c                     	xorb	(%esp,%ebp), %dh
c0194739: 33 32                        	xorl	(%edx), %esi
c019473b: 3b 65 61                     	cmpl	97(%ebp), %esp
c019473e: 78 3a                        	js	0xc019477a <.stabstr+0x77a>
c0194740: 28 30                        	subb	%dh, (%eax)
c0194742: 2c 35                        	subb	$53, %al
c0194744: 29 2c 32                     	subl	%ebp, (%edx,%esi)
c0194747: 35 36 2c 33 32               	xorl	$842214454, %eax
c019474c: 3b 69 6e                     	cmpl	110(%ecx), %ebp
c019474f: 74 72                        	je	0xc01947c3 <.stabstr+0x7c3>
c0194751: 5f                           	popl	%edi
c0194752: 6e                           	outsb	(%esi), %dx
c0194753: 6f                           	outsl	(%esi), %dx
c0194754: 3a 28                        	cmpb	(%eax), %ch
c0194756: 30 2c 35 29 2c 32 38         	xorb	%ch, 942812201(,%esi)
c019475d: 38 2c 33                     	cmpb	%ch, (%ebx,%esi)
c0194760: 32 3b                        	xorb	(%ebx), %bh
c0194762: 65 72 72                     	jb	0xc01947d7 <.stabstr+0x7d7>
c0194765: 5f                           	popl	%edi
c0194766: 63 6f 64                     	arpl	%bp, 100(%edi)
c0194769: 65 3a 28                     	cmpb	%gs:(%eax), %ch
c019476c: 30 2c 35 29 2c 33 32         	xorb	%ch, 842214441(,%esi)
c0194773: 30 2c 33                     	xorb	%ch, (%ebx,%esi)
c0194776: 32 3b                        	xorb	(%ebx), %bh
c0194778: 65 69 70 3a 28 30 2c 35      	imull	$892088360, %gs:58(%eax), %esi
c0194780: 29 2c 33                     	subl	%ebp, (%ebx,%esi)
c0194783: 35 32 2c 33 32               	xorl	$842214450, %eax
c0194788: 3b 63 73                     	cmpl	115(%ebx), %esp
c019478b: 3a 28                        	cmpb	(%eax), %ch
c019478d: 30 2c 35 29 2c 33 38         	xorb	%ch, 942877737(,%esi)
c0194794: 34 2c                        	xorb	$44, %al
c0194796: 33 32                        	xorl	(%edx), %esi
c0194798: 3b 65 66                     	cmpl	102(%ebp), %esp
c019479b: 6c                           	insb	%dx, %es:(%edi)
c019479c: 61                           	popal
c019479d: 67 73 3a                     	jae	0xc01947da <.stabstr+0x7da>
c01947a0: 28 30                        	subb	%dh, (%eax)
c01947a2: 2c 35                        	subb	$53, %al
c01947a4: 29 2c 34                     	subl	%ebp, (%esp,%esi)
c01947a7: 31 36                        	xorl	%esi, (%esi)
c01947a9: 2c 33                        	subb	$51, %al
c01947ab: 32 3b                        	xorb	(%ebx), %bh
c01947ad: 75 73                        	jne	0xc0194822 <.stabstr+0x822>
c01947af: 72 5f                        	jb	0xc0194810 <.stabstr+0x810>
c01947b1: 65 73 70                     	jae	0xc0194824 <.stabstr+0x824>
c01947b4: 3a 28                        	cmpb	(%eax), %ch
c01947b6: 30 2c 35 29 2c 34 34         	xorb	%ch, 875834409(,%esi)
c01947bd: 38 2c 33                     	cmpb	%ch, (%ebx,%esi)
c01947c0: 32 3b                        	xorb	(%ebx), %bh
c01947c2: 73 73                        	jae	0xc0194837 <.stabstr+0x837>
c01947c4: 3a 28                        	cmpb	(%eax), %ch
c01947c6: 30 2c 35 29 2c 34 38         	xorb	%ch, 942943273(,%esi)
c01947cd: 30 2c 33                     	xorb	%ch, (%ebx,%esi)
c01947d0: 32 3b                        	xorb	(%ebx), %bh
c01947d2: 3b 00                        	cmpl	(%eax), %eax
c01947d4: 75 69                        	jne	0xc019483f <.stabstr+0x83f>
c01947d6: 6e                           	outsb	(%esi), %dx
c01947d7: 74 33                        	je	0xc019480c <.stabstr+0x80c>
c01947d9: 32 5f 74                     	xorb	116(%edi), %bl
c01947dc: 3a 74 28 30                  	cmpb	48(%eax,%ebp), %dh
c01947e0: 2c 35                        	subb	$53, %al
c01947e2: 29 00                        	subl	%eax, (%eax)
c01947e4: 75 6e                        	jne	0xc0194854 <.stabstr+0x854>
c01947e6: 73 69                        	jae	0xc0194851 <.stabstr+0x851>
c01947e8: 67 6e                        	outsb	(%si), %dx
c01947ea: 65 64 20 69 6e               	andb	%ch, %fs:110(%ecx)
c01947ef: 74 3a                        	je	0xc019482b <.stabstr+0x82b>
c01947f1: 74 28                        	je	0xc019481b <.stabstr+0x81b>
c01947f3: 30 2c 36                     	xorb	%ch, (%esi,%esi)
c01947f6: 29 00                        	subl	%eax, (%eax)
c01947f8: 74 69                        	je	0xc0194863 <.stabstr+0x863>
c01947fa: 63 6b 3a                     	arpl	%bp, 58(%ebx)
c01947fd: 56                           	pushl	%esi
c01947fe: 28 30                        	subb	%dh, (%eax)
c0194800: 2c 35                        	subb	$53, %al
c0194802: 29 00                        	subl	%eax, (%eax)
c0194804: 63 6c 6b 5f                  	arpl	%bp, 95(%ebx,%ebp,2)
c0194808: 69 6e 69 74 3a 46 28         	imull	$675691124, 105(%esi), %ebp
c019480f: 30 2c 31                     	xorb	%ch, (%ecx,%esi)
c0194812: 29 00                        	subl	%eax, (%eax)
c0194814: 75 69                        	jne	0xc019487f <.stabstr+0x87f>
c0194816: 6e                           	outsb	(%esi), %dx
c0194817: 74 38                        	je	0xc0194851 <.stabstr+0x851>
c0194819: 5f                           	popl	%edi
c019481a: 74 3a                        	je	0xc0194856 <.stabstr+0x856>
c019481c: 74 28                        	je	0xc0194846 <.stabstr+0x846>
c019481e: 30 2c 37                     	xorb	%ch, (%edi,%esi)
c0194821: 29 3d 28 30 2c 38            	subl	%edi, 942420008
c0194827: 29 3d 40 73 38 3b            	subl	%edi, 993555264
c019482d: 72 28                        	jb	0xc0194857 <.stabstr+0x857>
c019482f: 30 2c 38                     	xorb	%ch, (%eax,%edi)
c0194832: 29 3b                        	subl	%edi, (%ebx)
c0194834: 30 3b                        	xorb	%bh, (%ebx)
c0194836: 32 35 35 3b 00 64            	xorb	1677736757, %dh
c019483c: 69 76 69 73 6f 72 3a         	imull	$980578163, 105(%esi), %esi
c0194843: 28 30                        	subb	%dh, (%eax)
c0194845: 2c 35                        	subb	$53, %al
c0194847: 29 00                        	subl	%eax, (%eax)
c0194849: 6c                           	insb	%dx, %es:(%edi)
c019484a: 6f                           	outsl	(%esi), %dx
c019484b: 77 3a                        	ja	0xc0194887 <.stabstr+0x887>
c019484d: 28 30                        	subb	%dh, (%eax)
c019484f: 2c 37                        	subb	$55, %al
c0194851: 29 00                        	subl	%eax, (%eax)
c0194853: 68 69 67 68 3a               	pushl	$979920745
c0194858: 28 30                        	subb	%dh, (%eax)
c019485a: 2c 37                        	subb	$55, %al
c019485c: 29 00                        	subl	%eax, (%eax)
c019485e: 64 72 69                     	jb	0xc01948ca <.stabstr+0x8ca>
c0194861: 76 65                        	jbe	0xc01948c8 <.stabstr+0x8c8>
c0194863: 72 73                        	jb	0xc01948d8 <.stabstr+0x8d8>
c0194865: 2f                           	das
c0194866: 63 6f 6e                     	arpl	%bp, 110(%edi)
c0194869: 73 6f                        	jae	0xc01948da <.stabstr+0x8da>
c019486b: 6c                           	insb	%dx, %es:(%edi)
c019486c: 65 2e 63 00                  	arpl	%ax, %cs:(%eax)
c0194870: 76 69                        	jbe	0xc01948db <.stabstr+0x8db>
c0194872: 64 65 6f                     	outsl	%gs:(%esi), %dx
c0194875: 5f                           	popl	%edi
c0194876: 6d                           	insl	%dx, %es:(%edi)
c0194877: 65 6d                        	insl	%dx, %es:(%edi)
c0194879: 6f                           	outsl	(%esi), %dx
c019487a: 72 79                        	jb	0xc01948f5 <.stabstr+0x8f5>
c019487c: 3a 53 28                     	cmpb	40(%ebx), %dl
c019487f: 30 2c 31                     	xorb	%ch, (%ecx,%esi)
c0194882: 29 3d 2a 28 30 2c            	subl	%edi, 741353514
c0194888: 32 29                        	xorb	(%ecx), %ch
c019488a: 3d 28 30 2c 33               	cmpl	$858533928, %eax
c019488f: 29 3d 40 73 31 36            	subl	%edi, 909210432
c0194895: 3b 72 28                     	cmpl	40(%edx), %esi
c0194898: 30 2c 33                     	xorb	%ch, (%ebx,%esi)
c019489b: 29 3b                        	subl	%edi, (%ebx)
c019489d: 30 3b                        	xorb	%bh, (%ebx)
c019489f: 36 35 35 33 35 3b            	xorl	$993342261, %eax
c01948a5: 00 75 69                     	addb	%dh, 105(%ebp)
c01948a8: 6e                           	outsb	(%esi), %dx
c01948a9: 74 31                        	je	0xc01948dc <.stabstr+0x8dc>
c01948ab: 36 5f                        	popl	%edi
c01948ad: 74 3a                        	je	0xc01948e9 <.stabstr+0x8e9>
c01948af: 74 28                        	je	0xc01948d9 <.stabstr+0x8d9>
c01948b1: 30 2c 32                     	xorb	%ch, (%edx,%esi)
c01948b4: 29 00                        	subl	%eax, (%eax)
c01948b6: 73 68                        	jae	0xc0194920 <.stabstr+0x920>
c01948b8: 6f                           	outsl	(%esi), %dx
c01948b9: 72 74                        	jb	0xc019492f <.stabstr+0x92f>
c01948bb: 20 75 6e                     	andb	%dh, 110(%ebp)
c01948be: 73 69                        	jae	0xc0194929 <.stabstr+0x929>
c01948c0: 67 6e                        	outsb	(%si), %dx
c01948c2: 65 64 20 69 6e               	andb	%ch, %fs:110(%ecx)
c01948c7: 74 3a                        	je	0xc0194903 <.stabstr+0x903>
c01948c9: 74 28                        	je	0xc01948f3 <.stabstr+0x8f3>
c01948cb: 30 2c 33                     	xorb	%ch, (%ebx,%esi)
c01948ce: 29 00                        	subl	%eax, (%eax)
c01948d0: 63 75 72                     	arpl	%si, 114(%ebp)
c01948d3: 73 6f                        	jae	0xc0194944 <.stabstr+0x944>
c01948d5: 72 5f                        	jb	0xc0194936 <.stabstr+0x936>
c01948d7: 78 3a                        	js	0xc0194913 <.stabstr+0x913>
c01948d9: 53                           	pushl	%ebx
c01948da: 28 30                        	subb	%dh, (%eax)
c01948dc: 2c 34                        	subb	$52, %al
c01948de: 29 3d 28 30 2c 35            	subl	%edi, 892088360
c01948e4: 29 3d 40 73 38 3b            	subl	%edi, 993555264
c01948ea: 72 28                        	jb	0xc0194914 <.stabstr+0x914>
c01948ec: 30 2c 35 29 3b 30 3b         	xorb	%ch, 993016617(,%esi)
c01948f3: 32 35 35 3b 00 75            	xorb	1962949429, %dh
c01948f9: 69 6e 74 38 5f 74 3a         	imull	$980705080, 116(%esi), %ebp
c0194900: 74 28                        	je	0xc019492a <.stabstr+0x92a>
c0194902: 30 2c 34                     	xorb	%ch, (%esp,%esi)
c0194905: 29 00                        	subl	%eax, (%eax)
c0194907: 75 6e                        	jne	0xc0194977 <.stabstr+0x977>
c0194909: 73 69                        	jae	0xc0194974 <.stabstr+0x974>
c019490b: 67 6e                        	outsb	(%si), %dx
c019490d: 65 64 20 63 68               	andb	%ah, %fs:104(%ebx)
c0194912: 61                           	popal
c0194913: 72 3a                        	jb	0xc019494f <.stabstr+0x94f>
c0194915: 74 28                        	je	0xc019493f <.stabstr+0x93f>
c0194917: 30 2c 35 29 00 63 75         	xorb	%ch, 1969422377(,%esi)
c019491e: 72 73                        	jb	0xc0194993 <.stabstr+0x993>
c0194920: 6f                           	outsl	(%esi), %dx
c0194921: 72 5f                        	jb	0xc0194982 <.stabstr+0x982>
c0194923: 79 3a                        	jns	0xc019495f <.stabstr+0x95f>
c0194925: 53                           	pushl	%ebx
c0194926: 28 30                        	subb	%dh, (%eax)
c0194928: 2c 34                        	subb	$52, %al
c019492a: 29 00                        	subl	%eax, (%eax)
c019492c: 6d                           	insl	%dx, %es:(%edi)
c019492d: 6f                           	outsl	(%esi), %dx
c019492e: 76 65                        	jbe	0xc0194995 <.stabstr+0x995>
c0194930: 5f                           	popl	%edi
c0194931: 63 75 72                     	arpl	%si, 114(%ebp)
c0194934: 73 6f                        	jae	0xc01949a5 <.stabstr+0x9a5>
c0194936: 72 3a                        	jb	0xc0194972 <.stabstr+0x972>
c0194938: 66 28 30                     	subb	%dh, (%eax)
c019493b: 2c 36                        	subb	$54, %al
c019493d: 29 3d 28 30 2c 36            	subl	%edi, 908865576
c0194943: 29 00                        	subl	%eax, (%eax)
c0194945: 76 6f                        	jbe	0xc01949b6 <.stabstr+0x9b6>
c0194947: 69 64 3a 74 28 30 2c 36      	imull	$908865576, 116(%edx,%edi), %esp
c019494f: 29 00                        	subl	%eax, (%eax)
c0194951: 63 75 72                     	arpl	%si, 114(%ebp)
c0194954: 73 6f                        	jae	0xc01949c5 <.stabstr+0x9c5>
c0194956: 72 5f                        	jb	0xc01949b7 <.stabstr+0x9b7>
c0194958: 6c                           	insb	%dx, %es:(%edi)
c0194959: 6f                           	outsl	(%esi), %dx
c019495a: 63 61 74                     	arpl	%sp, 116(%ecx)
c019495d: 69 6f 6e 3a 28 30 2c         	imull	$741353530, 110(%edi), %ebp
c0194964: 32 29                        	xorb	(%ecx), %ch
c0194966: 00 73 63                     	addb	%dh, 99(%ebx)
c0194969: 72 6f                        	jb	0xc01949da <.stabstr+0x9da>
c019496b: 6c                           	insb	%dx, %es:(%edi)
c019496c: 6c                           	insb	%dx, %es:(%edi)
c019496d: 3a 66 28                     	cmpb	40(%esi), %ah
c0194970: 30 2c 36                     	xorb	%ch, (%esi,%esi)
c0194973: 29 00                        	subl	%eax, (%eax)
c0194975: 61                           	popal
c0194976: 74 74                        	je	0xc01949ec <.stabstr+0x9ec>
c0194978: 72 69                        	jb	0xc01949e3 <.stabstr+0x9e3>
c019497a: 62 75 74                     	bound	%esi, 116(%ebp)
c019497d: 65 5f                        	popl	%edi
c019497f: 62 79 74                     	bound	%edi, 116(%ecx)
c0194982: 65 3a 28                     	cmpb	%gs:(%eax), %ch
c0194985: 30 2c 34                     	xorb	%ch, (%esp,%esi)
c0194988: 29 00                        	subl	%eax, (%eax)
c019498a: 62 6c 61 6e                  	bound	%ebp, 110(%ecx,%eiz,2)
c019498e: 6b 3a 28                     	imull	$40, (%edx), %edi
c0194991: 30 2c 32                     	xorb	%ch, (%edx,%esi)
c0194994: 29 00                        	subl	%eax, (%eax)
c0194996: 69 3a 28 30 2c 37            	imull	$925642792, (%edx), %edi
c019499c: 29 3d 72 28 30 2c            	subl	%edi, 741353586
c01949a2: 37                           	aaa
c01949a3: 29 3b                        	subl	%edi, (%ebx)
c01949a5: 2d 32 31 34 37               	subl	$926167346, %eax
c01949aa: 34 38                        	xorb	$56, %al
c01949ac: 33 36                        	xorl	(%esi), %esi
c01949ae: 34 38                        	xorb	$56, %al
c01949b0: 3b 32                        	cmpl	(%edx), %esi
c01949b2: 31 34 37                     	xorl	%esi, (%edi,%esi)
c01949b5: 34 38                        	xorb	$56, %al
c01949b7: 33 36                        	xorl	(%esi), %esi
c01949b9: 34 37                        	xorb	$55, %al
c01949bb: 3b 00                        	cmpl	(%eax), %eax
c01949bd: 69 6e 74 3a 74 28 30         	imull	$807957562, 116(%esi), %ebp
c01949c4: 2c 37                        	subb	$55, %al
c01949c6: 29 00                        	subl	%eax, (%eax)
c01949c8: 63 6f 6e                     	arpl	%bp, 110(%edi)
c01949cb: 73 6f                        	jae	0xc0194a3c <.stabstr+0xa3c>
c01949cd: 6c                           	insb	%dx, %es:(%edi)
c01949ce: 65 5f                        	popl	%edi
c01949d0: 69 6e 69 74 3a 46 28         	imull	$675691124, 105(%esi), %ebp
c01949d7: 30 2c 36                     	xorb	%ch, (%esi,%esi)
c01949da: 29 00                        	subl	%eax, (%eax)
c01949dc: 63 6f 6e                     	arpl	%bp, 110(%edi)
c01949df: 73 6f                        	jae	0xc0194a50 <.stabstr+0xa50>
c01949e1: 6c                           	insb	%dx, %es:(%edi)
c01949e2: 65 5f                        	popl	%edi
c01949e4: 63 6c 65 61                  	arpl	%bp, 97(%ebp,%eiz,2)
c01949e8: 72 3a                        	jb	0xc0194a24 <.stabstr+0xa24>
c01949ea: 46                           	incl	%esi
c01949eb: 28 30                        	subb	%dh, (%eax)
c01949ed: 2c 36                        	subb	$54, %al
c01949ef: 29 00                        	subl	%eax, (%eax)
c01949f1: 69 3a 28 30 2c 37            	imull	$925642792, (%edx), %edi
c01949f7: 29 00                        	subl	%eax, (%eax)
c01949f9: 63 6f 6e                     	arpl	%bp, 110(%edi)
c01949fc: 73 6f                        	jae	0xc0194a6d <.stabstr+0xa6d>
c01949fe: 6c                           	insb	%dx, %es:(%edi)
c01949ff: 65 5f                        	popl	%edi
c0194a01: 70 75                        	jo	0xc0194a78 <.stabstr+0xa78>
c0194a03: 74 63                        	je	0xc0194a68 <.stabstr+0xa68>
c0194a05: 5f                           	popl	%edi
c0194a06: 63 6f 6c                     	arpl	%bp, 108(%edi)
c0194a09: 6f                           	outsl	(%esi), %dx
c0194a0a: 72 3a                        	jb	0xc0194a46 <.stabstr+0xa46>
c0194a0c: 46                           	incl	%esi
c0194a0d: 28 30                        	subb	%dh, (%eax)
c0194a0f: 2c 36                        	subb	$54, %al
c0194a11: 29 00                        	subl	%eax, (%eax)
c0194a13: 63 3a                        	arpl	%di, (%edx)
c0194a15: 70 28                        	jo	0xc0194a3f <.stabstr+0xa3f>
c0194a17: 30 2c 37                     	xorb	%ch, (%edi,%esi)
c0194a1a: 29 00                        	subl	%eax, (%eax)
c0194a1c: 62 61 63                     	bound	%esp, 99(%ecx)
c0194a1f: 6b 3a 70                     	imull	$112, (%edx), %edi
c0194a22: 28 30                        	subb	%dh, (%eax)
c0194a24: 2c 38                        	subb	$56, %al
c0194a26: 29 3d 28 30 2c 39            	subl	%edi, 959197224
c0194a2c: 29 3d 78 65 72 65            	subl	%edi, 1701995896
c0194a32: 61                           	popal
c0194a33: 6c                           	insb	%dx, %es:(%edi)
c0194a34: 5f                           	popl	%edi
c0194a35: 63 6f 6c                     	arpl	%bp, 108(%edi)
c0194a38: 6f                           	outsl	(%esi), %dx
c0194a39: 72 3a                        	jb	0xc0194a75 <.stabstr+0xa75>
c0194a3b: 00 66 6f                     	addb	%ah, 111(%esi)
c0194a3e: 72 65                        	jb	0xc0194aa5 <.stabstr+0xaa5>
c0194a40: 3a 70 28                     	cmpb	40(%eax), %dh
c0194a43: 30 2c 38                     	xorb	%ch, (%eax,%edi)
c0194a46: 29 00                        	subl	%eax, (%eax)
c0194a48: 72 65                        	jb	0xc0194aaf <.stabstr+0xaaf>
c0194a4a: 61                           	popal
c0194a4b: 6c                           	insb	%dx, %es:(%edi)
c0194a4c: 5f                           	popl	%edi
c0194a4d: 63 6f 6c                     	arpl	%bp, 108(%edi)
c0194a50: 6f                           	outsl	(%esi), %dx
c0194a51: 72 3a                        	jb	0xc0194a8d <.stabstr+0xa8d>
c0194a53: 54                           	pushl	%esp
c0194a54: 28 30                        	subb	%dh, (%eax)
c0194a56: 2c 39                        	subb	$57, %al
c0194a58: 29 3d 65 72 63 5f            	subl	%edi, 1600352869
c0194a5e: 62 6c 61 63                  	bound	%ebp, 99(%ecx,%eiz,2)
c0194a62: 6b 3a 30                     	imull	$48, (%edx), %edi
c0194a65: 2c 72                        	subb	$114, %al
c0194a67: 63 5f 62                     	arpl	%bx, 98(%edi)
c0194a6a: 6c                           	insb	%dx, %es:(%edi)
c0194a6b: 75 65                        	jne	0xc0194ad2 <.stabstr+0xad2>
c0194a6d: 3a 31                        	cmpb	(%ecx), %dh
c0194a6f: 2c 72                        	subb	$114, %al
c0194a71: 63 5f 67                     	arpl	%bx, 103(%edi)
c0194a74: 72 65                        	jb	0xc0194adb <.stabstr+0xadb>
c0194a76: 65 6e                        	outsb	%gs:(%esi), %dx
c0194a78: 3a 32                        	cmpb	(%edx), %dh
c0194a7a: 2c 72                        	subb	$114, %al
c0194a7c: 63 5f 63                     	arpl	%bx, 99(%edi)
c0194a7f: 79 61                        	jns	0xc0194ae2 <.stabstr+0xae2>
c0194a81: 6e                           	outsb	(%esi), %dx
c0194a82: 3a 33                        	cmpb	(%ebx), %dh
c0194a84: 2c 72                        	subb	$114, %al
c0194a86: 63 5f 72                     	arpl	%bx, 114(%edi)
c0194a89: 65 64 3a 34 2c               	cmpb	%fs:(%esp,%ebp), %dh
c0194a8e: 72 63                        	jb	0xc0194af3 <.stabstr+0xaf3>
c0194a90: 5f                           	popl	%edi
c0194a91: 6d                           	insl	%dx, %es:(%edi)
c0194a92: 61                           	popal
c0194a93: 67 65 6e                     	outsb	%gs:(%si), %dx
c0194a96: 74 61                        	je	0xc0194af9 <.stabstr+0xaf9>
c0194a98: 3a 35 2c 72 63 5f            	cmpb	1600352812, %dh
c0194a9e: 62 72 6f                     	bound	%esi, 111(%edx)
c0194aa1: 77 6e                        	ja	0xc0194b11 <.stabstr+0xb11>
c0194aa3: 3a 36                        	cmpb	(%esi), %dh
c0194aa5: 2c 72                        	subb	$114, %al
c0194aa7: 63 5f 6c                     	arpl	%bx, 108(%edi)
c0194aaa: 69 67 68 74 5f 67 72         	imull	$1919377268, 104(%edi), %esp
c0194ab1: 65 79 3a                     	jns	0xc0194aee <.stabstr+0xaee>
c0194ab4: 37                           	aaa
c0194ab5: 2c 72                        	subb	$114, %al
c0194ab7: 63 5f 64                     	arpl	%bx, 100(%edi)
c0194aba: 61                           	popal
c0194abb: 72 6b                        	jb	0xc0194b28 <.stabstr+0xb28>
c0194abd: 5f                           	popl	%edi
c0194abe: 67 72 65                     	jb	0xc0194b26 <.stabstr+0xb26>
c0194ac1: 79 3a                        	jns	0xc0194afd <.stabstr+0xafd>
c0194ac3: 38 2c 72                     	cmpb	%ch, (%edx,%esi,2)
c0194ac6: 63 5f 6c                     	arpl	%bx, 108(%edi)
c0194ac9: 69 67 68 74 5f 62 6c         	imull	$1818386292, 104(%edi), %esp
c0194ad0: 75 65                        	jne	0xc0194b37 <.stabstr+0xb37>
c0194ad2: 3a 39                        	cmpb	(%ecx), %bh
c0194ad4: 2c 72                        	subb	$114, %al
c0194ad6: 63 5f 6c                     	arpl	%bx, 108(%edi)
c0194ad9: 69 67 68 74 5f 67 72         	imull	$1919377268, 104(%edi), %esp
c0194ae0: 65 65 6e                     	outsb	%gs:(%esi), %dx
c0194ae3: 3a 31                        	cmpb	(%ecx), %dh
c0194ae5: 30 2c 72                     	xorb	%ch, (%edx,%esi,2)
c0194ae8: 63 5f 6c                     	arpl	%bx, 108(%edi)
c0194aeb: 69 67 68 74 5f 63 79         	imull	$2036555636, 104(%edi), %esp
c0194af2: 61                           	popal
c0194af3: 6e                           	outsb	(%esi), %dx
c0194af4: 3a 31                        	cmpb	(%ecx), %dh
c0194af6: 31 2c 72                     	xorl	%ebp, (%edx,%esi,2)
c0194af9: 63 5f 6c                     	arpl	%bx, 108(%edi)
c0194afc: 69 67 68 74 5f 72 65         	imull	$1701994356, 104(%edi), %esp
c0194b03: 64 3a 31                     	cmpb	%fs:(%ecx), %dh
c0194b06: 32 2c 72                     	xorb	(%edx,%esi,2), %ch
c0194b09: 63 5f 6c                     	arpl	%bx, 108(%edi)
c0194b0c: 69 67 68 74 5f 6d 61         	imull	$1634557812, 104(%edi), %esp
c0194b13: 67 65 6e                     	outsb	%gs:(%si), %dx
c0194b16: 74 61                        	je	0xc0194b79 <.stabstr+0xb79>
c0194b18: 3a 31                        	cmpb	(%ecx), %dh
c0194b1a: 33 2c 72                     	xorl	(%edx,%esi,2), %ebp
c0194b1d: 63 5f 6c                     	arpl	%bx, 108(%edi)
c0194b20: 69 67 68 74 5f 62 72         	imull	$1919049588, 104(%edi), %esp
c0194b27: 6f                           	outsl	(%esi), %dx
c0194b28: 77 6e                        	ja	0xc0194b98 <.stabstr+0xb98>
c0194b2a: 3a 31                        	cmpb	(%ecx), %dh
c0194b2c: 34 2c                        	xorb	$44, %al
c0194b2e: 72 63                        	jb	0xc0194b93 <.stabstr+0xb93>
c0194b30: 5f                           	popl	%edi
c0194b31: 77 68                        	ja	0xc0194b9b <.stabstr+0xb9b>
c0194b33: 69 74 65 3a 31 35 2c 3b      	imull	$992752945, 58(%ebp,%eiz,2), %esi
c0194b3b: 00 62 61                     	addb	%ah, 97(%edx)
c0194b3e: 63 6b 5f                     	arpl	%bp, 95(%ebx)
c0194b41: 63 6f 6c                     	arpl	%bp, 108(%edi)
c0194b44: 6f                           	outsl	(%esi), %dx
c0194b45: 72 3a                        	jb	0xc0194b81 <.stabstr+0xb81>
c0194b47: 28 30                        	subb	%dh, (%eax)
c0194b49: 2c 34                        	subb	$52, %al
c0194b4b: 29 00                        	subl	%eax, (%eax)
c0194b4d: 66 6f                        	outsw	(%esi), %dx
c0194b4f: 72 65                        	jb	0xc0194bb6 <.stabstr+0xbb6>
c0194b51: 5f                           	popl	%edi
c0194b52: 63 6f 6c                     	arpl	%bp, 108(%edi)
c0194b55: 6f                           	outsl	(%esi), %dx
c0194b56: 72 3a                        	jb	0xc0194b92 <.stabstr+0xb92>
c0194b58: 28 30                        	subb	%dh, (%eax)
c0194b5a: 2c 34                        	subb	$52, %al
c0194b5c: 29 00                        	subl	%eax, (%eax)
c0194b5e: 61                           	popal
c0194b5f: 74 74                        	je	0xc0194bd5 <.stabstr+0xbd5>
c0194b61: 72 69                        	jb	0xc0194bcc <.stabstr+0xbcc>
c0194b63: 62 75 74                     	bound	%esi, 116(%ebp)
c0194b66: 65 3a 28                     	cmpb	%gs:(%eax), %ch
c0194b69: 30 2c 32                     	xorb	%ch, (%edx,%esi)
c0194b6c: 29 00                        	subl	%eax, (%eax)
c0194b6e: 63 3a                        	arpl	%di, (%edx)
c0194b70: 28 30                        	subb	%dh, (%eax)
c0194b72: 2c 31                        	subb	$49, %al
c0194b74: 30 29                        	xorb	%ch, (%ecx)
c0194b76: 3d 72 28 30 2c               	cmpl	$741353586, %eax
c0194b7b: 31 30                        	xorl	%esi, (%eax)
c0194b7d: 29 3b                        	subl	%edi, (%ebx)
c0194b7f: 30 3b                        	xorb	%bh, (%ebx)
c0194b81: 31 32                        	xorl	%esi, (%edx)
c0194b83: 37                           	aaa
c0194b84: 3b 00                        	cmpl	(%eax), %eax
c0194b86: 63 68 61                     	arpl	%bp, 97(%eax)
c0194b89: 72 3a                        	jb	0xc0194bc5 <.stabstr+0xbc5>
c0194b8b: 74 28                        	je	0xc0194bb5 <.stabstr+0xbb5>
c0194b8d: 30 2c 31                     	xorb	%ch, (%ecx,%esi)
c0194b90: 30 29                        	xorb	%ch, (%ecx)
c0194b92: 00 63 6f                     	addb	%ah, 111(%ebx)
c0194b95: 6e                           	outsb	(%esi), %dx
c0194b96: 73 6f                        	jae	0xc0194c07 <.stabstr+0xc07>
c0194b98: 6c                           	insb	%dx, %es:(%edi)
c0194b99: 65 5f                        	popl	%edi
c0194b9b: 77 72                        	ja	0xc0194c0f <.stabstr+0xc0f>
c0194b9d: 69 74 65 3a 46 28 30 2c      	imull	$741353542, 58(%ebp,%eiz,2), %esi
c0194ba5: 36 29 00                     	subl	%eax, %ss:(%eax)
c0194ba8: 63 73 74                     	arpl	%si, 116(%ebx)
c0194bab: 72 3a                        	jb	0xc0194be7 <.stabstr+0xbe7>
c0194bad: 70 28                        	jo	0xc0194bd7 <.stabstr+0xbd7>
c0194baf: 30 2c 31                     	xorb	%ch, (%ecx,%esi)
c0194bb2: 31 29                        	xorl	%ebp, (%ecx)
c0194bb4: 3d 2a 28 30 2c               	cmpl	$741353514, %eax
c0194bb9: 31 30                        	xorl	%esi, (%eax)
c0194bbb: 29 00                        	subl	%eax, (%eax)
c0194bbd: 63 6f 6e                     	arpl	%bp, 110(%edi)
c0194bc0: 73 6f                        	jae	0xc0194c31 <.stabstr+0xc31>
c0194bc2: 6c                           	insb	%dx, %es:(%edi)
c0194bc3: 65 5f                        	popl	%edi
c0194bc5: 77 72                        	ja	0xc0194c39 <.stabstr+0xc39>
c0194bc7: 69 74 65 5f 63 6f 6c 6f      	imull	$1869377379, 95(%ebp,%eiz,2), %esi
c0194bcf: 72 3a                        	jb	0xc0194c0b <.stabstr+0xc0b>
c0194bd1: 46                           	incl	%esi
c0194bd2: 28 30                        	subb	%dh, (%eax)
c0194bd4: 2c 36                        	subb	$54, %al
c0194bd6: 29 00                        	subl	%eax, (%eax)
c0194bd8: 63 73 74                     	arpl	%si, 116(%ebx)
c0194bdb: 72 3a                        	jb	0xc0194c17 <.stabstr+0xc17>
c0194bdd: 70 28                        	jo	0xc0194c07 <.stabstr+0xc07>
c0194bdf: 30 2c 31                     	xorb	%ch, (%ecx,%esi)
c0194be2: 31 29                        	xorl	%ebp, (%ecx)
c0194be4: 00 62 61                     	addb	%ah, 97(%edx)
c0194be7: 63 6b 3a                     	arpl	%bp, 58(%ebx)
c0194bea: 70 28                        	jo	0xc0194c14 <.stabstr+0xc14>
c0194bec: 30 2c 38                     	xorb	%ch, (%eax,%edi)
c0194bef: 29 00                        	subl	%eax, (%eax)
c0194bf1: 6c                           	insb	%dx, %es:(%edi)
c0194bf2: 69 62 2f 63 6f 6d 6d         	imull	$1835888483, 47(%edx), %esp
c0194bf9: 6f                           	outsl	(%esi), %dx
c0194bfa: 6e                           	outsb	(%esi), %dx
c0194bfb: 2e 63 00                     	arpl	%ax, %cs:(%eax)
c0194bfe: 6f                           	outsl	(%esi), %dx
c0194bff: 75 74                        	jne	0xc0194c75 <.stabstr+0xc75>
c0194c01: 62 3a                        	bound	%edi, (%edx)
c0194c03: 46                           	incl	%esi
c0194c04: 28 30                        	subb	%dh, (%eax)
c0194c06: 2c 31                        	subb	$49, %al
c0194c08: 29 3d 28 30 2c 31            	subl	%edi, 824979496
c0194c0e: 29 00                        	subl	%eax, (%eax)
c0194c10: 70 6f                        	jo	0xc0194c81 <.stabstr+0xc81>
c0194c12: 72 74                        	jb	0xc0194c88 <.stabstr+0xc88>
c0194c14: 3a 70 28                     	cmpb	40(%eax), %dh
c0194c17: 30 2c 32                     	xorb	%ch, (%edx,%esi)
c0194c1a: 29 3d 72 28 30 2c            	subl	%edi, 741353586
c0194c20: 32 29                        	xorb	(%ecx), %ch
c0194c22: 3b 2d 32 31 34 37            	cmpl	926167346, %ebp
c0194c28: 34 38                        	xorb	$56, %al
c0194c2a: 33 36                        	xorl	(%esi), %esi
c0194c2c: 34 38                        	xorb	$56, %al
c0194c2e: 3b 32                        	cmpl	(%edx), %esi
c0194c30: 31 34 37                     	xorl	%esi, (%edi,%esi)
c0194c33: 34 38                        	xorb	$56, %al
c0194c35: 33 36                        	xorl	(%esi), %esi
c0194c37: 34 37                        	xorb	$55, %al
c0194c39: 3b 00                        	cmpl	(%eax), %eax
c0194c3b: 76 61                        	jbe	0xc0194c9e <.stabstr+0xc9e>
c0194c3d: 6c                           	insb	%dx, %es:(%edi)
c0194c3e: 75 65                        	jne	0xc0194ca5 <.stabstr+0xca5>
c0194c40: 3a 70 28                     	cmpb	40(%eax), %dh
c0194c43: 30 2c 32                     	xorb	%ch, (%edx,%esi)
c0194c46: 29 00                        	subl	%eax, (%eax)
c0194c48: 69 6e 74 3a 74 28 30         	imull	$807957562, 116(%esi), %ebp
c0194c4f: 2c 32                        	subb	$50, %al
c0194c51: 29 00                        	subl	%eax, (%eax)
c0194c53: 70 6f                        	jo	0xc0194cc4 <.stabstr+0xcc4>
c0194c55: 72 74                        	jb	0xc0194ccb <.stabstr+0xccb>
c0194c57: 3a 28                        	cmpb	(%eax), %ch
c0194c59: 30 2c 33                     	xorb	%ch, (%ebx,%esi)
c0194c5c: 29 3d 28 30 2c 34            	subl	%edi, 875311144
c0194c62: 29 3d 40 73 31 36            	subl	%edi, 909210432
c0194c68: 3b 72 28                     	cmpl	40(%edx), %esi
c0194c6b: 30 2c 34                     	xorb	%ch, (%esp,%esi)
c0194c6e: 29 3b                        	subl	%edi, (%ebx)
c0194c70: 30 3b                        	xorb	%bh, (%ebx)
c0194c72: 36 35 35 33 35 3b            	xorl	$993342261, %eax
c0194c78: 00 76 61                     	addb	%dh, 97(%esi)
c0194c7b: 6c                           	insb	%dx, %es:(%edi)
c0194c7c: 75 65                        	jne	0xc0194ce3 <.stabstr+0xce3>
c0194c7e: 3a 28                        	cmpb	(%eax), %ch
c0194c80: 30 2c 35 29 3d 28 30         	xorb	%ch, 807943465(,%esi)
c0194c87: 2c 36                        	subb	$54, %al
c0194c89: 29 3d 40 73 38 3b            	subl	%edi, 993555264
c0194c8f: 72 28                        	jb	0xc0194cb9 <.stabstr+0xcb9>
c0194c91: 30 2c 36                     	xorb	%ch, (%esi,%esi)
c0194c94: 29 3b                        	subl	%edi, (%ebx)
c0194c96: 30 3b                        	xorb	%bh, (%ebx)
c0194c98: 32 35 35 3b 00 75            	xorb	1962949429, %dh
c0194c9e: 69 6e 74 31 36 5f 74         	imull	$1952396849, 116(%esi), %ebp
c0194ca5: 3a 74 28 30                  	cmpb	48(%eax,%ebp), %dh
c0194ca9: 2c 33                        	subb	$51, %al
c0194cab: 29 00                        	subl	%eax, (%eax)
c0194cad: 73 68                        	jae	0xc0194d17 <.stabstr+0xd17>
c0194caf: 6f                           	outsl	(%esi), %dx
c0194cb0: 72 74                        	jb	0xc0194d26 <.stabstr+0xd26>
c0194cb2: 20 75 6e                     	andb	%dh, 110(%ebp)
c0194cb5: 73 69                        	jae	0xc0194d20 <.stabstr+0xd20>
c0194cb7: 67 6e                        	outsb	(%si), %dx
c0194cb9: 65 64 20 69 6e               	andb	%ch, %fs:110(%ecx)
c0194cbe: 74 3a                        	je	0xc0194cfa <.stabstr+0xcfa>
c0194cc0: 74 28                        	je	0xc0194cea <.stabstr+0xcea>
c0194cc2: 30 2c 34                     	xorb	%ch, (%esp,%esi)
c0194cc5: 29 00                        	subl	%eax, (%eax)
c0194cc7: 75 69                        	jne	0xc0194d32 <.stabstr+0xd32>
c0194cc9: 6e                           	outsb	(%esi), %dx
c0194cca: 74 38                        	je	0xc0194d04 <.stabstr+0xd04>
c0194ccc: 5f                           	popl	%edi
c0194ccd: 74 3a                        	je	0xc0194d09 <.stabstr+0xd09>
c0194ccf: 74 28                        	je	0xc0194cf9 <.stabstr+0xcf9>
c0194cd1: 30 2c 35 29 00 75 6e         	xorb	%ch, 1853161513(,%esi)
c0194cd8: 73 69                        	jae	0xc0194d43 <.stabstr+0xd43>
c0194cda: 67 6e                        	outsb	(%si), %dx
c0194cdc: 65 64 20 63 68               	andb	%ah, %fs:104(%ebx)
c0194ce1: 61                           	popal
c0194ce2: 72 3a                        	jb	0xc0194d1e <.stabstr+0xd1e>
c0194ce4: 74 28                        	je	0xc0194d0e <.stabstr+0xd0e>
c0194ce6: 30 2c 36                     	xorb	%ch, (%esi,%esi)
c0194ce9: 29 00                        	subl	%eax, (%eax)
c0194ceb: 69 6e 62 3a 46 28 30         	imull	$807945786, 98(%esi), %ebp
c0194cf2: 2c 35                        	subb	$53, %al
c0194cf4: 29 00                        	subl	%eax, (%eax)
c0194cf6: 70 6f                        	jo	0xc0194d67 <.stabstr+0xd67>
c0194cf8: 72 74                        	jb	0xc0194d6e <.stabstr+0xd6e>
c0194cfa: 3a 70 28                     	cmpb	40(%eax), %dh
c0194cfd: 30 2c 32                     	xorb	%ch, (%edx,%esi)
c0194d00: 29 00                        	subl	%eax, (%eax)
c0194d02: 72 65                        	jb	0xc0194d69 <.stabstr+0xd69>
c0194d04: 74 3a                        	je	0xc0194d40 <.stabstr+0xd40>
c0194d06: 28 30                        	subb	%dh, (%eax)
c0194d08: 2c 35                        	subb	$53, %al
c0194d0a: 29 00                        	subl	%eax, (%eax)
c0194d0c: 70 6f                        	jo	0xc0194d7d <.stabstr+0xd7d>
c0194d0e: 72 74                        	jb	0xc0194d84 <.stabstr+0xd84>
c0194d10: 3a 28                        	cmpb	(%eax), %ch
c0194d12: 30 2c 33                     	xorb	%ch, (%ebx,%esi)
c0194d15: 29 00                        	subl	%eax, (%eax)
c0194d17: 69 6e 77 3a 46 28 30         	imull	$807945786, 119(%esi), %ebp
c0194d1e: 2c 33                        	subb	$51, %al
c0194d20: 29 00                        	subl	%eax, (%eax)
c0194d22: 72 65                        	jb	0xc0194d89 <.stabstr+0xd89>
c0194d24: 74 3a                        	je	0xc0194d60 <.stabstr+0xd60>
c0194d26: 28 30                        	subb	%dh, (%eax)
c0194d28: 2c 33                        	subb	$51, %al
c0194d2a: 29 00                        	subl	%eax, (%eax)
c0194d2c: 6c                           	insb	%dx, %es:(%edi)
c0194d2d: 69 62 2f 73 74 72 69         	imull	$1769108595, 47(%edx), %esp
c0194d34: 6e                           	outsb	(%esi), %dx
c0194d35: 67 2e 63 00                  	arpl	%ax, %cs:(%bx,%si)
c0194d39: 6d                           	insl	%dx, %es:(%edi)
c0194d3a: 65 6d                        	insl	%dx, %es:(%edi)
c0194d3c: 63 70 79                     	arpl	%si, 121(%eax)
c0194d3f: 3a 46 28                     	cmpb	40(%esi), %al
c0194d42: 30 2c 31                     	xorb	%ch, (%ecx,%esi)
c0194d45: 29 3d 28 30 2c 31            	subl	%edi, 824979496
c0194d4b: 29 00                        	subl	%eax, (%eax)
c0194d4d: 63 68 61                     	arpl	%bp, 97(%eax)
c0194d50: 72 3a                        	jb	0xc0194d8c <.stabstr+0xd8c>
c0194d52: 74 28                        	je	0xc0194d7c <.stabstr+0xd7c>
c0194d54: 30 2c 32                     	xorb	%ch, (%edx,%esi)
c0194d57: 29 3d 72 28 30 2c            	subl	%edi, 741353586
c0194d5d: 32 29                        	xorb	(%ecx), %ch
c0194d5f: 3b 30                        	cmpl	(%eax), %esi
c0194d61: 3b 31                        	cmpl	(%ecx), %esi
c0194d63: 32 37                        	xorb	(%edi), %dh
c0194d65: 3b 00                        	cmpl	(%eax), %eax
c0194d67: 6c                           	insb	%dx, %es:(%edi)
c0194d68: 6f                           	outsl	(%esi), %dx
c0194d69: 6e                           	outsb	(%esi), %dx
c0194d6a: 67 20 75 6e                  	andb	%dh, 110(%di)
c0194d6e: 73 69                        	jae	0xc0194dd9 <.stabstr+0xdd9>
c0194d70: 67 6e                        	outsb	(%si), %dx
c0194d72: 65 64 20 69 6e               	andb	%ch, %fs:110(%ecx)
c0194d77: 74 3a                        	je	0xc0194db3 <.stabstr+0xdb3>
c0194d79: 74 28                        	je	0xc0194da3 <.stabstr+0xda3>
c0194d7b: 30 2c 33                     	xorb	%ch, (%ebx,%esi)
c0194d7e: 29 3d 72 28 30 2c            	subl	%edi, 741353586
c0194d84: 33 29                        	xorl	(%ecx), %ebp
c0194d86: 3b 30                        	cmpl	(%eax), %esi
c0194d88: 3b 30                        	cmpl	(%eax), %esi
c0194d8a: 33 37                        	xorl	(%edi), %esi
c0194d8c: 37                           	aaa
c0194d8d: 37                           	aaa
c0194d8e: 37                           	aaa
c0194d8f: 37                           	aaa
c0194d90: 37                           	aaa
c0194d91: 37                           	aaa
c0194d92: 37                           	aaa
c0194d93: 37                           	aaa
c0194d94: 37                           	aaa
c0194d95: 3b 00                        	cmpl	(%eax), %eax
c0194d97: 75 69                        	jne	0xc0194e02 <.stabstr+0xe02>
c0194d99: 6e                           	outsb	(%esi), %dx
c0194d9a: 74 33                        	je	0xc0194dcf <.stabstr+0xdcf>
c0194d9c: 32 5f 74                     	xorb	116(%edi), %bl
c0194d9f: 3a 74 28 30                  	cmpb	48(%eax,%ebp), %dh
c0194da3: 2c 34                        	subb	$52, %al
c0194da5: 29 3d 28 30 2c 35            	subl	%edi, 892088360
c0194dab: 29 3d 72 28 30 2c            	subl	%edi, 741353586
c0194db1: 35 29 3b 30 3b               	xorl	$993016617, %eax
c0194db6: 30 33                        	xorb	%dh, (%ebx)
c0194db8: 37                           	aaa
c0194db9: 37                           	aaa
c0194dba: 37                           	aaa
c0194dbb: 37                           	aaa
c0194dbc: 37                           	aaa
c0194dbd: 37                           	aaa
c0194dbe: 37                           	aaa
c0194dbf: 37                           	aaa
c0194dc0: 37                           	aaa
c0194dc1: 37                           	aaa
c0194dc2: 3b 00                        	cmpl	(%eax), %eax
c0194dc4: 75 6e                        	jne	0xc0194e34 <.stabstr+0xe34>
c0194dc6: 73 69                        	jae	0xc0194e31 <.stabstr+0xe31>
c0194dc8: 67 6e                        	outsb	(%si), %dx
c0194dca: 65 64 20 69 6e               	andb	%ch, %fs:110(%ecx)
c0194dcf: 74 3a                        	je	0xc0194e0b <.stabstr+0xe0b>
c0194dd1: 74 28                        	je	0xc0194dfb <.stabstr+0xdfb>
c0194dd3: 30 2c 35 29 00 64 65         	xorb	%ch, 1701052457(,%esi)
c0194dda: 73 74                        	jae	0xc0194e50 <.stabstr+0xe50>
c0194ddc: 3a 70 28                     	cmpb	40(%eax), %dh
c0194ddf: 30 2c 36                     	xorb	%ch, (%esi,%esi)
c0194de2: 29 3d 2a 28 30 2c            	subl	%edi, 741353514
c0194de8: 31 29                        	xorl	%ebp, (%ecx)
c0194dea: 00 73 72                     	addb	%dh, 114(%ebx)
c0194ded: 63 3a                        	arpl	%di, (%edx)
c0194def: 70 28                        	jo	0xc0194e19 <.stabstr+0xe19>
c0194df1: 30 2c 37                     	xorb	%ch, (%edi,%esi)
c0194df4: 29 3d 2a 28 30 2c            	subl	%edi, 741353514
c0194dfa: 38 29                        	cmpb	%ch, (%ecx)
c0194dfc: 3d 6b 28 30 2c               	cmpl	$741353579, %eax
c0194e01: 31 29                        	xorl	%ebp, (%ecx)
c0194e03: 00 6c 65 6e                  	addb	%ch, 110(%ebp,%eiz,2)
c0194e07: 3a 70 28                     	cmpb	40(%eax), %dh
c0194e0a: 30 2c 39                     	xorb	%ch, (%ecx,%edi)
c0194e0d: 29 3d 28 30 2c 35            	subl	%edi, 892088360
c0194e13: 29 00                        	subl	%eax, (%eax)
c0194e15: 73 69                        	jae	0xc0194e80 <.stabstr+0xe80>
c0194e17: 7a 65                        	jp	0xc0194e7e <.stabstr+0xe7e>
c0194e19: 5f                           	popl	%edi
c0194e1a: 74 3a                        	je	0xc0194e56 <.stabstr+0xe56>
c0194e1c: 74 28                        	je	0xc0194e46 <.stabstr+0xe46>
c0194e1e: 30 2c 39                     	xorb	%ch, (%ecx,%edi)
c0194e21: 29 00                        	subl	%eax, (%eax)
c0194e23: 64 65 73 74                  	jae	0xc0194e9b <.stabstr+0xe9b>
c0194e27: 5f                           	popl	%edi
c0194e28: 62 3a                        	bound	%edi, (%edx)
c0194e2a: 28 30                        	subb	%dh, (%eax)
c0194e2c: 2c 31                        	subb	$49, %al
c0194e2e: 30 29                        	xorb	%ch, (%ecx)
c0194e30: 3d 2a 28 30 2c               	cmpl	$741353514, %eax
c0194e35: 32 29                        	xorb	(%ecx), %ch
c0194e37: 00 73 72                     	addb	%dh, 114(%ebx)
c0194e3a: 63 5f 62                     	arpl	%bx, 98(%edi)
c0194e3d: 3a 28                        	cmpb	(%eax), %ch
c0194e3f: 30 2c 31                     	xorb	%ch, (%ecx,%esi)
c0194e42: 30 29                        	xorb	%ch, (%ecx)
c0194e44: 00 64 65 73                  	addb	%ah, 115(%ebp,%eiz,2)
c0194e48: 74 5f                        	je	0xc0194ea9 <.stabstr+0xea9>
c0194e4a: 77 3a                        	ja	0xc0194e86 <.stabstr+0xe86>
c0194e4c: 28 30                        	subb	%dh, (%eax)
c0194e4e: 2c 31                        	subb	$49, %al
c0194e50: 31 29                        	xorl	%ebp, (%ecx)
c0194e52: 3d 2a 28 30 2c               	cmpl	$741353514, %eax
c0194e57: 33 29                        	xorl	(%ecx), %ebp
c0194e59: 00 73 72                     	addb	%dh, 114(%ebx)
c0194e5c: 63 5f 77                     	arpl	%bx, 119(%edi)
c0194e5f: 3a 28                        	cmpb	(%eax), %ch
c0194e61: 30 2c 31                     	xorb	%ch, (%ecx,%esi)
c0194e64: 31 29                        	xorl	%ebp, (%ecx)
c0194e66: 00 6d 65                     	addb	%ch, 101(%ebp)
c0194e69: 6d                           	insl	%dx, %es:(%edi)
c0194e6a: 73 65                        	jae	0xc0194ed1 <.stabstr+0xed1>
c0194e6c: 74 3a                        	je	0xc0194ea8 <.stabstr+0xea8>
c0194e6e: 46                           	incl	%esi
c0194e6f: 28 30                        	subb	%dh, (%eax)
c0194e71: 2c 31                        	subb	$49, %al
c0194e73: 29 00                        	subl	%eax, (%eax)
c0194e75: 64 65 73 74                  	jae	0xc0194eed <.stabstr+0xeed>
c0194e79: 3a 70 28                     	cmpb	40(%eax), %dh
c0194e7c: 30 2c 36                     	xorb	%ch, (%esi,%esi)
c0194e7f: 29 00                        	subl	%eax, (%eax)
c0194e81: 76 61                        	jbe	0xc0194ee4 <.stabstr+0xee4>
c0194e83: 6c                           	insb	%dx, %es:(%edi)
c0194e84: 3a 70 28                     	cmpb	40(%eax), %dh
c0194e87: 30 2c 31                     	xorb	%ch, (%ecx,%esi)
c0194e8a: 32 29                        	xorb	(%ecx), %ch
c0194e8c: 3d 72 28 30 2c               	cmpl	$741353586, %eax
c0194e91: 31 32                        	xorl	%esi, (%edx)
c0194e93: 29 3b                        	subl	%edi, (%ebx)
c0194e95: 2d 32 31 34 37               	subl	$926167346, %eax
c0194e9a: 34 38                        	xorb	$56, %al
c0194e9c: 33 36                        	xorl	(%esi), %esi
c0194e9e: 34 38                        	xorb	$56, %al
c0194ea0: 3b 32                        	cmpl	(%edx), %esi
c0194ea2: 31 34 37                     	xorl	%esi, (%edi,%esi)
c0194ea5: 34 38                        	xorb	$56, %al
c0194ea7: 33 36                        	xorl	(%esi), %esi
c0194ea9: 34 37                        	xorb	$55, %al
c0194eab: 3b 00                        	cmpl	(%eax), %eax
c0194ead: 6c                           	insb	%dx, %es:(%edi)
c0194eae: 65 6e                        	outsb	%gs:(%esi), %dx
c0194eb0: 3a 70 28                     	cmpb	40(%eax), %dh
c0194eb3: 30 2c 39                     	xorb	%ch, (%ecx,%edi)
c0194eb6: 29 00                        	subl	%eax, (%eax)
c0194eb8: 69 6e 74 3a 74 28 30         	imull	$807957562, 116(%esi), %ebp
c0194ebf: 2c 31                        	subb	$49, %al
c0194ec1: 32 29                        	xorb	(%ecx), %ch
c0194ec3: 00 64 65 73                  	addb	%ah, 115(%ebp,%eiz,2)
c0194ec7: 74 5f                        	je	0xc0194f28 <.stabstr+0xf28>
c0194ec9: 62 3a                        	bound	%edi, (%edx)
c0194ecb: 28 30                        	subb	%dh, (%eax)
c0194ecd: 2c 31                        	subb	$49, %al
c0194ecf: 30 29                        	xorb	%ch, (%ecx)
c0194ed1: 00 76 61                     	addb	%dh, 97(%esi)
c0194ed4: 6c                           	insb	%dx, %es:(%edi)
c0194ed5: 3a 28                        	cmpb	(%eax), %ch
c0194ed7: 30 2c 31                     	xorb	%ch, (%ecx,%esi)
c0194eda: 33 29                        	xorl	(%ecx), %ebp
c0194edc: 3d 28 30 2c 31               	cmpl	$824979496, %eax
c0194ee1: 34 29                        	xorb	$41, %al
c0194ee3: 3d 40 73 38 3b               	cmpl	$993555264, %eax
c0194ee8: 72 28                        	jb	0xc0194f12 <.stabstr+0xf12>
c0194eea: 30 2c 31                     	xorb	%ch, (%ecx,%esi)
c0194eed: 34 29                        	xorb	$41, %al
c0194eef: 3b 30                        	cmpl	(%eax), %esi
c0194ef1: 3b 32                        	cmpl	(%edx), %esi
c0194ef3: 35 35 3b 00 75               	xorl	$1962949429, %eax
c0194ef8: 69 6e 74 38 5f 74 3a         	imull	$980705080, 116(%esi), %ebp
c0194eff: 74 28                        	je	0xc0194f29 <.stabstr+0xf29>
c0194f01: 30 2c 31                     	xorb	%ch, (%ecx,%esi)
c0194f04: 33 29                        	xorl	(%ecx), %ebp
c0194f06: 00 75 6e                     	addb	%dh, 110(%ebp)
c0194f09: 73 69                        	jae	0xc0194f74 <.stabstr+0xf74>
c0194f0b: 67 6e                        	outsb	(%si), %dx
c0194f0d: 65 64 20 63 68               	andb	%ah, %fs:104(%ebx)
c0194f12: 61                           	popal
c0194f13: 72 3a                        	jb	0xc0194f4f <.stabstr+0xf4f>
c0194f15: 74 28                        	je	0xc0194f3f <.stabstr+0xf3f>
c0194f17: 30 2c 31                     	xorb	%ch, (%ecx,%esi)
c0194f1a: 34 29                        	xorb	$41, %al
c0194f1c: 00 62 7a                     	addb	%ah, 122(%edx)
c0194f1f: 65 72 6f                     	jb	0xc0194f91 <.stabstr+0xf91>
c0194f22: 3a 46 28                     	cmpb	40(%esi), %al
c0194f25: 30 2c 31                     	xorb	%ch, (%ecx,%esi)
c0194f28: 29 00                        	subl	%eax, (%eax)
c0194f2a: 73 74                        	jae	0xc0194fa0 <.stabstr+0xfa0>
c0194f2c: 72 63                        	jb	0xc0194f91 <.stabstr+0xf91>
c0194f2e: 6d                           	insl	%dx, %es:(%edi)
c0194f2f: 70 3a                        	jo	0xc0194f6b <.stabstr+0xf6b>
c0194f31: 46                           	incl	%esi
c0194f32: 28 30                        	subb	%dh, (%eax)
c0194f34: 2c 31                        	subb	$49, %al
c0194f36: 32 29                        	xorb	(%ecx), %ch
c0194f38: 00 73 74                     	addb	%dh, 116(%ebx)
c0194f3b: 72 31                        	jb	0xc0194f6e <.stabstr+0xf6e>
c0194f3d: 3a 70 28                     	cmpb	40(%eax), %dh
c0194f40: 30 2c 31                     	xorb	%ch, (%ecx,%esi)
c0194f43: 35 29 3d 2a 28               	xorl	$673856809, %eax
c0194f48: 30 2c 31                     	xorb	%ch, (%ecx,%esi)
c0194f4b: 36 29 3d 6b 28 30 2c         	subl	%edi, %ss:741353579
c0194f52: 32 29                        	xorb	(%ecx), %ch
c0194f54: 00 73 74                     	addb	%dh, 116(%ebx)
c0194f57: 72 32                        	jb	0xc0194f8b <.stabstr+0xf8b>
c0194f59: 3a 70 28                     	cmpb	40(%eax), %dh
c0194f5c: 30 2c 31                     	xorb	%ch, (%ecx,%esi)
c0194f5f: 35 29 00 72 65               	xorl	$1701969961, %eax
c0194f64: 74 3a                        	je	0xc0194fa0 <.stabstr+0xfa0>
c0194f66: 28 30                        	subb	%dh, (%eax)
c0194f68: 2c 31                        	subb	$49, %al
c0194f6a: 32 29                        	xorb	(%ecx), %ch
c0194f6c: 00 73 74                     	addb	%dh, 116(%ebx)
c0194f6f: 72 63                        	jb	0xc0194fd4 <.stabstr+0xfd4>
c0194f71: 70 79                        	jo	0xc0194fec <.stabstr+0xfec>
c0194f73: 3a 46 28                     	cmpb	40(%esi), %al
c0194f76: 30 2c 31                     	xorb	%ch, (%ecx,%esi)
c0194f79: 29 00                        	subl	%eax, (%eax)
c0194f7b: 64 65 73 74                  	jae	0xc0194ff3 <.stabstr+0xff3>
c0194f7f: 3a 70 28                     	cmpb	40(%eax), %dh
c0194f82: 30 2c 31                     	xorb	%ch, (%ecx,%esi)
c0194f85: 30 29                        	xorb	%ch, (%ecx)
c0194f87: 00 73 72                     	addb	%dh, 114(%ebx)
c0194f8a: 63 3a                        	arpl	%di, (%edx)
c0194f8c: 70 28                        	jo	0xc0194fb6 <.stabstr+0xfb6>
c0194f8e: 30 2c 31                     	xorb	%ch, (%ecx,%esi)
c0194f91: 35 29 00 73 74               	xorl	$1953693737, %eax
c0194f96: 72 63                        	jb	0xc0194ffb <.stabstr+0xffb>
c0194f98: 61                           	popal
c0194f99: 74 3a                        	je	0xc0194fd5 <.stabstr+0xfd5>
c0194f9b: 46                           	incl	%esi
c0194f9c: 28 30                        	subb	%dh, (%eax)
c0194f9e: 2c 31                        	subb	$49, %al
c0194fa0: 29 00                        	subl	%eax, (%eax)
c0194fa2: 73 74                        	jae	0xc0195018 <.stabstr+0x1018>
c0194fa4: 72 6c                        	jb	0xc0195012 <.stabstr+0x1012>
c0194fa6: 65 6e                        	outsb	%gs:(%esi), %dx
c0194fa8: 3a 46 28                     	cmpb	40(%esi), %al
c0194fab: 30 2c 39                     	xorb	%ch, (%ecx,%edi)
c0194fae: 29 00                        	subl	%eax, (%eax)
c0194fb0: 6c                           	insb	%dx, %es:(%edi)
c0194fb1: 65 6e                        	outsb	%gs:(%esi), %dx
c0194fb3: 3a 28                        	cmpb	(%eax), %ch
c0194fb5: 30 2c 39                     	xorb	%ch, (%ecx,%edi)
c0194fb8: 29 00                        	subl	%eax, (%eax)
c0194fba: 6d                           	insl	%dx, %es:(%edi)
c0194fbb: 6d                           	insl	%dx, %es:(%edi)
c0194fbc: 2f                           	das
c0194fbd: 6d                           	insl	%dx, %es:(%edi)
c0194fbe: 6d                           	insl	%dx, %es:(%edi)
c0194fbf: 2e 63 00                     	arpl	%ax, %cs:(%eax)
c0194fc2: 66 72 61                     	jb	0xc0195026 <.stabstr+0x1026>
c0194fc5: 6d                           	insl	%dx, %es:(%edi)
c0194fc6: 65 5f                        	popl	%edi
c0194fc8: 6e                           	outsb	(%esi), %dx
c0194fc9: 75 6d                        	jne	0xc0195038 <.stabstr+0x1038>
c0194fcb: 3a 53 28                     	cmpb	40(%ebx), %dl
c0194fce: 30 2c 31                     	xorb	%ch, (%ecx,%esi)
c0194fd1: 29 3d 28 30 2c 32            	subl	%edi, 841756712
c0194fd7: 29 3d 72 28 30 2c            	subl	%edi, 741353586
c0194fdd: 32 29                        	xorb	(%ecx), %ch
c0194fdf: 3b 30                        	cmpl	(%eax), %esi
c0194fe1: 3b 30                        	cmpl	(%eax), %esi
c0194fe3: 33 37                        	xorl	(%edi), %esi
c0194fe5: 37                           	aaa
c0194fe6: 37                           	aaa
c0194fe7: 37                           	aaa
c0194fe8: 37                           	aaa
c0194fe9: 37                           	aaa
c0194fea: 37                           	aaa
c0194feb: 37                           	aaa
c0194fec: 37                           	aaa
c0194fed: 37                           	aaa
c0194fee: 3b 00                        	cmpl	(%eax), %eax
c0194ff0: 75 69                        	jne	0xc019505b <.stabstr+0x105b>
c0194ff2: 6e                           	outsb	(%esi), %dx
c0194ff3: 74 33                        	je	0xc0195028 <.stabstr+0x1028>
c0194ff5: 32 5f 74                     	xorb	116(%edi), %bl
c0194ff8: 3a 74 28 30                  	cmpb	48(%eax,%ebp), %dh
c0194ffc: 2c 31                        	subb	$49, %al
c0194ffe: 29 00                        	subl	%eax, (%eax)
c0195000: 75 6e                        	jne	0xc0195070 <.stabstr+0x1070>
c0195002: 73 69                        	jae	0xc019506d <.stabstr+0x106d>
c0195004: 67 6e                        	outsb	(%si), %dx
c0195006: 65 64 20 69 6e               	andb	%ch, %fs:110(%ecx)
c019500b: 74 3a                        	je	0xc0195047 <.stabstr+0x1047>
c019500d: 74 28                        	je	0xc0195037 <.stabstr+0x1037>
c019500f: 30 2c 32                     	xorb	%ch, (%edx,%esi)
c0195012: 29 00                        	subl	%eax, (%eax)
c0195014: 66 72 61                     	jb	0xc0195078 <.stabstr+0x1078>
c0195017: 6d                           	insl	%dx, %es:(%edi)
c0195018: 65 5f                        	popl	%edi
c019501a: 73 74                        	jae	0xc0195090 <.stabstr+0x1090>
c019501c: 61                           	popal
c019501d: 63 6b 3a                     	arpl	%bp, 58(%ebx)
c0195020: 53                           	pushl	%ebx
c0195021: 28 30                        	subb	%dh, (%eax)
c0195023: 2c 33                        	subb	$51, %al
c0195025: 29 3d 61 72 28 30            	subl	%edi, 807957089
c019502b: 2c 34                        	subb	$52, %al
c019502d: 29 3d 72 28 30 2c            	subl	%edi, 741353586
c0195033: 34 29                        	xorb	$41, %al
c0195035: 3b 30                        	cmpl	(%eax), %esi
c0195037: 3b 30                        	cmpl	(%eax), %esi
c0195039: 33 37                        	xorl	(%edi), %esi
c019503b: 37                           	aaa
c019503c: 37                           	aaa
c019503d: 37                           	aaa
c019503e: 37                           	aaa
c019503f: 37                           	aaa
c0195040: 37                           	aaa
c0195041: 37                           	aaa
c0195042: 37                           	aaa
c0195043: 37                           	aaa
c0195044: 3b 3b                        	cmpl	(%ebx), %edi
c0195046: 30 3b                        	xorb	%bh, (%ebx)
c0195048: 31 33                        	xorl	%esi, (%ebx)
c019504a: 31 30                        	xorl	%esi, (%eax)
c019504c: 37                           	aaa
c019504d: 32 3b                        	xorb	(%ebx), %bh
c019504f: 28 30                        	subb	%dh, (%eax)
c0195051: 2c 31                        	subb	$49, %al
c0195053: 29 00                        	subl	%eax, (%eax)
c0195055: 66 72 61                     	jb	0xc01950b9 <.stabstr+0x10b9>
c0195058: 6d                           	insl	%dx, %es:(%edi)
c0195059: 65 5f                        	popl	%edi
c019505b: 73 74                        	jae	0xc01950d1 <.stabstr+0x10d1>
c019505d: 61                           	popal
c019505e: 63 6b 5f                     	arpl	%bp, 95(%ebx)
c0195061: 74 6f                        	je	0xc01950d2 <.stabstr+0x10d2>
c0195063: 70 3a                        	jo	0xc019509f <.stabstr+0x109f>
c0195065: 53                           	pushl	%ebx
c0195066: 28 30                        	subb	%dh, (%eax)
c0195068: 2c 31                        	subb	$49, %al
c019506a: 29 00                        	subl	%eax, (%eax)
c019506c: 6d                           	insl	%dx, %es:(%edi)
c019506d: 6d                           	insl	%dx, %es:(%edi)
c019506e: 5f                           	popl	%edi
c019506f: 69 6e 69 74 3a 46 28         	imull	$675691124, 105(%esi), %ebp
c0195076: 30 2c 35 29 3d 28 30         	xorb	%ch, 807943465(,%esi)
c019507d: 2c 35                        	subb	$53, %al
c019507f: 29 00                        	subl	%eax, (%eax)
c0195081: 6d                           	insl	%dx, %es:(%edi)
c0195082: 6d                           	insl	%dx, %es:(%edi)
c0195083: 61                           	popal
c0195084: 70 5f                        	jo	0xc01950e5 <.stabstr+0x10e5>
c0195086: 65 6e                        	outsb	%gs:(%esi), %dx
c0195088: 74 72                        	je	0xc01950fc <.stabstr+0x10fc>
c019508a: 79 5f                        	jns	0xc01950eb <.stabstr+0x10eb>
c019508c: 74 3a                        	je	0xc01950c8 <.stabstr+0x10c8>
c019508e: 54                           	pushl	%esp
c019508f: 28 30                        	subb	%dh, (%eax)
c0195091: 2c 36                        	subb	$54, %al
c0195093: 29 3d 73 32 34 73            	subl	%edi, 1932800627
c0195099: 69 7a 65 3a 28 30 2c         	imull	$741353530, 101(%edx), %edi
c01950a0: 31 29                        	xorl	%ebp, (%ecx)
c01950a2: 2c 30                        	subb	$48, %al
c01950a4: 2c 33                        	subb	$51, %al
c01950a6: 32 3b                        	xorb	(%ebx), %bh
c01950a8: 62 61 73                     	bound	%esp, 115(%ecx)
c01950ab: 65 5f                        	popl	%edi
c01950ad: 61                           	popal
c01950ae: 64 64 72 5f                  	jb	0xc0195111 <.stabstr+0x1111>
c01950b2: 6c                           	insb	%dx, %es:(%edi)
c01950b3: 6f                           	outsl	(%esi), %dx
c01950b4: 77 3a                        	ja	0xc01950f0 <.stabstr+0x10f0>
c01950b6: 28 30                        	subb	%dh, (%eax)
c01950b8: 2c 31                        	subb	$49, %al
c01950ba: 29 2c 33                     	subl	%ebp, (%ebx,%esi)
c01950bd: 32 2c 33                     	xorb	(%ebx,%esi), %ch
c01950c0: 32 3b                        	xorb	(%ebx), %bh
c01950c2: 62 61 73                     	bound	%esp, 115(%ecx)
c01950c5: 65 5f                        	popl	%edi
c01950c7: 61                           	popal
c01950c8: 64 64 72 5f                  	jb	0xc019512b <.stabstr+0x112b>
c01950cc: 68 69 67 68 3a               	pushl	$979920745
c01950d1: 28 30                        	subb	%dh, (%eax)
c01950d3: 2c 31                        	subb	$49, %al
c01950d5: 29 2c 36                     	subl	%ebp, (%esi,%esi)
c01950d8: 34 2c                        	xorb	$44, %al
c01950da: 33 32                        	xorl	(%edx), %esi
c01950dc: 3b 6c 65 6e                  	cmpl	110(%ebp,%eiz,2), %ebp
c01950e0: 67 74 68                     	je	0xc019514b <.stabstr+0x114b>
c01950e3: 5f                           	popl	%edi
c01950e4: 6c                           	insb	%dx, %es:(%edi)
c01950e5: 6f                           	outsl	(%esi), %dx
c01950e6: 77 3a                        	ja	0xc0195122 <.stabstr+0x1122>
c01950e8: 28 30                        	subb	%dh, (%eax)
c01950ea: 2c 31                        	subb	$49, %al
c01950ec: 29 2c 39                     	subl	%ebp, (%ecx,%edi)
c01950ef: 36 2c 33                     	subb	$51, %al
c01950f2: 32 3b                        	xorb	(%ebx), %bh
c01950f4: 6c                           	insb	%dx, %es:(%edi)
c01950f5: 65 6e                        	outsb	%gs:(%esi), %dx
c01950f7: 67 74 68                     	je	0xc0195162 <.stabstr+0x1162>
c01950fa: 5f                           	popl	%edi
c01950fb: 68 69 67 68 3a               	pushl	$979920745
c0195100: 28 30                        	subb	%dh, (%eax)
c0195102: 2c 31                        	subb	$49, %al
c0195104: 29 2c 31                     	subl	%ebp, (%ecx,%esi)
c0195107: 32 38                        	xorb	(%eax), %bh
c0195109: 2c 33                        	subb	$51, %al
c019510b: 32 3b                        	xorb	(%ebx), %bh
c019510d: 74 79                        	je	0xc0195188 <.stabstr+0x1188>
c019510f: 70 65                        	jo	0xc0195176 <.stabstr+0x1176>
c0195111: 3a 28                        	cmpb	(%eax), %ch
c0195113: 30 2c 31                     	xorb	%ch, (%ecx,%esi)
c0195116: 29 2c 31                     	subl	%ebp, (%ecx,%esi)
c0195119: 36 30 2c 33                  	xorb	%ch, %ss:(%ebx,%esi)
c019511d: 32 3b                        	xorb	(%ebx), %bh
c019511f: 3b 00                        	cmpl	(%eax), %eax
c0195121: 76 6f                        	jbe	0xc0195192 <.stabstr+0x1192>
c0195123: 69 64 3a 74 28 30 2c 35      	imull	$892088360, 116(%edx,%edi), %esp
c019512b: 29 00                        	subl	%eax, (%eax)
c019512d: 6d                           	insl	%dx, %es:(%edi)
c019512e: 6d                           	insl	%dx, %es:(%edi)
c019512f: 61                           	popal
c0195130: 70 5f                        	jo	0xc0195191 <.stabstr+0x1191>
c0195132: 73 74                        	jae	0xc01951a8 <.stabstr+0x11a8>
c0195134: 61                           	popal
c0195135: 72 74                        	jb	0xc01951ab <.stabstr+0x11ab>
c0195137: 5f                           	popl	%edi
c0195138: 61                           	popal
c0195139: 64 64 72 3a                  	jb	0xc0195177 <.stabstr+0x1177>
c019513d: 28 30                        	subb	%dh, (%eax)
c019513f: 2c 37                        	subb	$55, %al
c0195141: 29 3d 2a 28 30 2c            	subl	%edi, 741353514
c0195147: 38 29                        	cmpb	%ch, (%ecx)
c0195149: 3d 28 30 2c 36               	cmpl	$908865576, %eax
c019514e: 29 00                        	subl	%eax, (%eax)
c0195150: 6d                           	insl	%dx, %es:(%edi)
c0195151: 6d                           	insl	%dx, %es:(%edi)
c0195152: 61                           	popal
c0195153: 70 5f                        	jo	0xc01951b4 <.stabstr+0x11b4>
c0195155: 65 6e                        	outsb	%gs:(%esi), %dx
c0195157: 74 72                        	je	0xc01951cb <.stabstr+0x11cb>
c0195159: 79 5f                        	jns	0xc01951ba <.stabstr+0x11ba>
c019515b: 74 3a                        	je	0xc0195197 <.stabstr+0x1197>
c019515d: 74 28                        	je	0xc0195187 <.stabstr+0x1187>
c019515f: 30 2c 38                     	xorb	%ch, (%eax,%edi)
c0195162: 29 00                        	subl	%eax, (%eax)
c0195164: 6d                           	insl	%dx, %es:(%edi)
c0195165: 6d                           	insl	%dx, %es:(%edi)
c0195166: 61                           	popal
c0195167: 70 5f                        	jo	0xc01951c8 <.stabstr+0x11c8>
c0195169: 65 6e                        	outsb	%gs:(%esi), %dx
c019516b: 64 5f                        	popl	%edi
c019516d: 61                           	popal
c019516e: 64 64 72 3a                  	jb	0xc01951ac <.stabstr+0x11ac>
c0195172: 28 30                        	subb	%dh, (%eax)
c0195174: 2c 37                        	subb	$55, %al
c0195176: 29 00                        	subl	%eax, (%eax)
c0195178: 66 72 61                     	jb	0xc01951dc <.stabstr+0x11dc>
c019517b: 6d                           	insl	%dx, %es:(%edi)
c019517c: 65 5f                        	popl	%edi
c019517e: 73 74                        	jae	0xc01951f4 <.stabstr+0x11f4>
c0195180: 61                           	popal
c0195181: 72 74                        	jb	0xc01951f7 <.stabstr+0x11f7>
c0195183: 5f                           	popl	%edi
c0195184: 61                           	popal
c0195185: 64 64 72 3a                  	jb	0xc01951c3 <.stabstr+0x11c3>
c0195189: 28 30                        	subb	%dh, (%eax)
c019518b: 2c 31                        	subb	$49, %al
c019518d: 29 00                        	subl	%eax, (%eax)
c019518f: 66 72 61                     	jb	0xc01951f3 <.stabstr+0x11f3>
c0195192: 6d                           	insl	%dx, %es:(%edi)
c0195193: 65 5f                        	popl	%edi
c0195195: 65 6e                        	outsb	%gs:(%esi), %dx
c0195197: 64 5f                        	popl	%edi
c0195199: 61                           	popal
c019519a: 64 64 72 3a                  	jb	0xc01951d8 <.stabstr+0x11d8>
c019519e: 28 30                        	subb	%dh, (%eax)
c01951a0: 2c 31                        	subb	$49, %al
c01951a2: 29 00                        	subl	%eax, (%eax)
c01951a4: 6d                           	insl	%dx, %es:(%edi)
c01951a5: 6d                           	insl	%dx, %es:(%edi)
c01951a6: 61                           	popal
c01951a7: 70 3a                        	jo	0xc01951e3 <.stabstr+0x11e3>
c01951a9: 28 30                        	subb	%dh, (%eax)
c01951ab: 2c 37                        	subb	$55, %al
c01951ad: 29 00                        	subl	%eax, (%eax)
c01951af: 66 72 61                     	jb	0xc0195213 <.stabstr+0x1213>
c01951b2: 6d                           	insl	%dx, %es:(%edi)
c01951b3: 65 5f                        	popl	%edi
c01951b5: 61                           	popal
c01951b6: 64 64 72 3a                  	jb	0xc01951f4 <.stabstr+0x11f4>
c01951ba: 28 30                        	subb	%dh, (%eax)
c01951bc: 2c 31                        	subb	$49, %al
c01951be: 29 00                        	subl	%eax, (%eax)
c01951c0: 61                           	popal
c01951c1: 6c                           	insb	%dx, %es:(%edi)
c01951c2: 6c                           	insb	%dx, %es:(%edi)
c01951c3: 6f                           	outsl	(%esi), %dx
c01951c4: 63 5f 66                     	arpl	%bx, 102(%edi)
c01951c7: 72 61                        	jb	0xc019522a <.stabstr+0x122a>
c01951c9: 6d                           	insl	%dx, %es:(%edi)
c01951ca: 65 3a 46 28                  	cmpb	%gs:40(%esi), %al
c01951ce: 30 2c 31                     	xorb	%ch, (%ecx,%esi)
c01951d1: 29 00                        	subl	%eax, (%eax)
c01951d3: 70 3a                        	jo	0xc019520f <.stabstr+0x120f>
c01951d5: 28 30                        	subb	%dh, (%eax)
c01951d7: 2c 31                        	subb	$49, %al
c01951d9: 29 00                        	subl	%eax, (%eax)
c01951db: 66 72 65                     	jb	0xc0195243 <.stabstr+0x1243>
c01951de: 65 5f                        	popl	%edi
c01951e0: 66 72 61                     	jb	0xc0195244 <.stabstr+0x1244>
c01951e3: 6d                           	insl	%dx, %es:(%edi)
c01951e4: 65 3a 46 28                  	cmpb	%gs:40(%esi), %al
c01951e8: 30 2c 35 29 00 70 3a         	xorb	%ch, 980418601(,%esi)
c01951ef: 70 28                        	jo	0xc0195219 <.stabstr+0x1219>
c01951f1: 30 2c 31                     	xorb	%ch, (%ecx,%esi)
c01951f4: 29 00                        	subl	%eax, (%eax)
c01951f6: 6b 65 72 6e                  	imull	$110, 114(%ebp), %esp
c01951fa: 65 6c                        	insb	%dx, %es:(%edi)
c01951fc: 2f                           	das
c01951fd: 69 73 72 2e 63 00 69         	imull	$1761633070, 114(%ebx), %esi
c0195204: 6e                           	outsb	(%esi), %dx
c0195205: 74 72                        	je	0xc0195279 <.stabstr+0x1279>
c0195207: 5f                           	popl	%edi
c0195208: 68 61 6e 64 6c               	pushl	$1818521185
c019520d: 65 72 5f                     	jb	0xc019526f <.stabstr+0x126f>
c0195210: 74 61                        	je	0xc0195273 <.stabstr+0x1273>
c0195212: 62 6c 65 3a                  	bound	%ebp, 58(%ebp,%eiz,2)
c0195216: 47                           	incl	%edi
c0195217: 28 30                        	subb	%dh, (%eax)
c0195219: 2c 31                        	subb	$49, %al
c019521b: 29 3d 61 72 28 30            	subl	%edi, 807957089
c0195221: 2c 32                        	subb	$50, %al
c0195223: 29 3d 72 28 30 2c            	subl	%edi, 741353586
c0195229: 32 29                        	xorb	(%ecx), %ch
c019522b: 3b 30                        	cmpl	(%eax), %esi
c019522d: 3b 30                        	cmpl	(%eax), %esi
c019522f: 33 37                        	xorl	(%edi), %esi
c0195231: 37                           	aaa
c0195232: 37                           	aaa
c0195233: 37                           	aaa
c0195234: 37                           	aaa
c0195235: 37                           	aaa
c0195236: 37                           	aaa
c0195237: 37                           	aaa
c0195238: 37                           	aaa
c0195239: 37                           	aaa
c019523a: 3b 3b                        	cmpl	(%ebx), %edi
c019523c: 30 3b                        	xorb	%bh, (%ebx)
c019523e: 32 35 35 3b 28 30            	xorb	807942965, %dh
c0195244: 2c 33                        	subb	$51, %al
c0195246: 29 3d 28 30 2c 34            	subl	%edi, 875311144
c019524c: 29 3d 2a 28 30 2c            	subl	%edi, 741353514
c0195252: 35 29 3d 66 28               	xorl	$677788969, %eax
c0195257: 30 2c 36                     	xorb	%ch, (%esi,%esi)
c019525a: 29 3d 28 30 2c 36            	subl	%edi, 908865576
c0195260: 29 00                        	subl	%eax, (%eax)
c0195262: 69 6e 74 72 5f 68 61         	imull	$1634230130, 116(%esi), %ebp
c0195269: 6e                           	outsb	(%esi), %dx
c019526a: 64 6c                        	insb	%dx, %es:(%edi)
c019526c: 65 72 5f                     	jb	0xc01952ce <.stabstr+0x12ce>
c019526f: 74 3a                        	je	0xc01952ab <.stabstr+0x12ab>
c0195271: 74 28                        	je	0xc019529b <.stabstr+0x129b>
c0195273: 30 2c 33                     	xorb	%ch, (%ebx,%esi)
c0195276: 29 00                        	subl	%eax, (%eax)
c0195278: 72 65                        	jb	0xc01952df <.stabstr+0x12df>
c019527a: 67 69 73 74 65 72 5f 69      	imull	$1767862885, 116(%bp,%di), %esi
c0195282: 6e                           	outsb	(%esi), %dx
c0195283: 74 72                        	je	0xc01952f7 <.stabstr+0x12f7>
c0195285: 5f                           	popl	%edi
c0195286: 68 61 6e 64 6c               	pushl	$1818521185
c019528b: 65 72 3a                     	jb	0xc01952c8 <.stabstr+0x12c8>
c019528e: 46                           	incl	%esi
c019528f: 28 30                        	subb	%dh, (%eax)
c0195291: 2c 36                        	subb	$54, %al
c0195293: 29 00                        	subl	%eax, (%eax)
c0195295: 69 64 78 3a 70 28 30 2c      	imull	$741353584, 58(%eax,%edi,2), %esp
c019529d: 37                           	aaa
c019529e: 29 3d 72 28 30 2c            	subl	%edi, 741353586
c01952a4: 37                           	aaa
c01952a5: 29 3b                        	subl	%edi, (%ebx)
c01952a7: 2d 32 31 34 37               	subl	$926167346, %eax
c01952ac: 34 38                        	xorb	$56, %al
c01952ae: 33 36                        	xorl	(%esi), %esi
c01952b0: 34 38                        	xorb	$56, %al
c01952b2: 3b 32                        	cmpl	(%edx), %esi
c01952b4: 31 34 37                     	xorl	%esi, (%edi,%esi)
c01952b7: 34 38                        	xorb	$56, %al
c01952b9: 33 36                        	xorl	(%esi), %esi
c01952bb: 34 37                        	xorb	$55, %al
c01952bd: 3b 00                        	cmpl	(%eax), %eax
c01952bf: 68 61 6e 64 6c               	pushl	$1818521185
c01952c4: 65 72 3a                     	jb	0xc0195301 <.stabstr+0x1301>
c01952c7: 70 28                        	jo	0xc01952f1 <.stabstr+0x12f1>
c01952c9: 30 2c 33                     	xorb	%ch, (%ebx,%esi)
c01952cc: 29 00                        	subl	%eax, (%eax)
c01952ce: 69 64 78 3a 28 30 2c 38      	imull	$942420008, 58(%eax,%edi,2), %esp
c01952d6: 29 3d 28 30 2c 39            	subl	%edi, 959197224
c01952dc: 29 3d 40 73 38 3b            	subl	%edi, 993555264
c01952e2: 72 28                        	jb	0xc019530c <.stabstr+0x130c>
c01952e4: 30 2c 39                     	xorb	%ch, (%ecx,%edi)
c01952e7: 29 3b                        	subl	%edi, (%ebx)
c01952e9: 30 3b                        	xorb	%bh, (%ebx)
c01952eb: 32 35 35 3b 00 75            	xorb	1962949429, %dh
c01952f1: 69 6e 74 38 5f 74 3a         	imull	$980705080, 116(%esi), %ebp
c01952f8: 74 28                        	je	0xc0195322 <.stabstr+0x1322>
c01952fa: 30 2c 38                     	xorb	%ch, (%eax,%edi)
c01952fd: 29 00                        	subl	%eax, (%eax)
c01952ff: 75 6e                        	jne	0xc019536f <.stabstr+0x136f>
c0195301: 73 69                        	jae	0xc019536c <.stabstr+0x136c>
c0195303: 67 6e                        	outsb	(%si), %dx
c0195305: 65 64 20 63 68               	andb	%ah, %fs:104(%ebx)
c019530a: 61                           	popal
c019530b: 72 3a                        	jb	0xc0195347 <.stabstr+0x1347>
c019530d: 74 28                        	je	0xc0195337 <.stabstr+0x1337>
c019530f: 30 2c 39                     	xorb	%ch, (%ecx,%edi)
c0195312: 29 00                        	subl	%eax, (%eax)
c0195314: 69 73 72 5f 68 61 6e         	imull	$1851877471, 114(%ebx), %esi
c019531b: 64 6c                        	insb	%dx, %es:(%edi)
c019531d: 65 72 3a                     	jb	0xc019535a <.stabstr+0x135a>
c0195320: 46                           	incl	%esi
c0195321: 28 30                        	subb	%dh, (%eax)
c0195323: 2c 36                        	subb	$54, %al
c0195325: 29 00                        	subl	%eax, (%eax)
c0195327: 72 65                        	jb	0xc019538e <.stabstr+0x138e>
c0195329: 67 73 3a                     	jae	0xc0195366 <.stabstr+0x1366>
c019532c: 70 28                        	jo	0xc0195356 <.stabstr+0x1356>
c019532e: 30 2c 31                     	xorb	%ch, (%ecx,%esi)
c0195331: 30 29                        	xorb	%ch, (%ecx)
c0195333: 3d 2a 28 30 2c               	cmpl	$741353514, %eax
c0195338: 31 31                        	xorl	%esi, (%ecx)
c019533a: 29 3d 28 30 2c 31            	subl	%edi, 824979496
c0195340: 32 29                        	xorb	(%ecx), %ch
c0195342: 3d 78 73 70 74               	cmpl	$1953526648, %eax
c0195347: 5f                           	popl	%edi
c0195348: 72 65                        	jb	0xc01953af <.stabstr+0x13af>
c019534a: 67 73 5f                     	jae	0xc01953ac <.stabstr+0x13ac>
c019534d: 74 3a                        	je	0xc0195389 <.stabstr+0x1389>
c019534f: 00 70 74                     	addb	%dh, 116(%eax)
c0195352: 5f                           	popl	%edi
c0195353: 72 65                        	jb	0xc01953ba <.stabstr+0x13ba>
c0195355: 67 73 5f                     	jae	0xc01953b7 <.stabstr+0x13b7>
c0195358: 74 3a                        	je	0xc0195394 <.stabstr+0x1394>
c019535a: 54                           	pushl	%esp
c019535b: 28 30                        	subb	%dh, (%eax)
c019535d: 2c 31                        	subb	$49, %al
c019535f: 32 29                        	xorb	(%ecx), %ch
c0195361: 3d 73 36 34 64               	cmpl	$1681143411, %eax
c0195366: 73 3a                        	jae	0xc01953a2 <.stabstr+0x13a2>
c0195368: 28 30                        	subb	%dh, (%eax)
c019536a: 2c 31                        	subb	$49, %al
c019536c: 33 29                        	xorl	(%ecx), %ebp
c019536e: 3d 28 30 2c 31               	cmpl	$824979496, %eax
c0195373: 34 29                        	xorb	$41, %al
c0195375: 3d 72 28 30 2c               	cmpl	$741353586, %eax
c019537a: 31 34 29                     	xorl	%esi, (%ecx,%ebp)
c019537d: 3b 30                        	cmpl	(%eax), %esi
c019537f: 3b 30                        	cmpl	(%eax), %esi
c0195381: 33 37                        	xorl	(%edi), %esi
c0195383: 37                           	aaa
c0195384: 37                           	aaa
c0195385: 37                           	aaa
c0195386: 37                           	aaa
c0195387: 37                           	aaa
c0195388: 37                           	aaa
c0195389: 37                           	aaa
c019538a: 37                           	aaa
c019538b: 37                           	aaa
c019538c: 3b 2c 30                     	cmpl	(%eax,%esi), %ebp
c019538f: 2c 33                        	subb	$51, %al
c0195391: 32 3b                        	xorb	(%ebx), %bh
c0195393: 65 64 69 3a 28 30 2c 31      	imull	$824979496, %fs:(%edx), %edi
c019539b: 33 29                        	xorl	(%ecx), %ebp
c019539d: 2c 33                        	subb	$51, %al
c019539f: 32 2c 33                     	xorb	(%ebx,%esi), %ch
c01953a2: 32 3b                        	xorb	(%ebx), %bh
c01953a4: 65 73 69                     	jae	0xc0195410 <.stabstr+0x1410>
c01953a7: 3a 28                        	cmpb	(%eax), %ch
c01953a9: 30 2c 31                     	xorb	%ch, (%ecx,%esi)
c01953ac: 33 29                        	xorl	(%ecx), %ebp
c01953ae: 2c 36                        	subb	$54, %al
c01953b0: 34 2c                        	xorb	$44, %al
c01953b2: 33 32                        	xorl	(%edx), %esi
c01953b4: 3b 65 62                     	cmpl	98(%ebp), %esp
c01953b7: 70 3a                        	jo	0xc01953f3 <.stabstr+0x13f3>
c01953b9: 28 30                        	subb	%dh, (%eax)
c01953bb: 2c 31                        	subb	$49, %al
c01953bd: 33 29                        	xorl	(%ecx), %ebp
c01953bf: 2c 39                        	subb	$57, %al
c01953c1: 36 2c 33                     	subb	$51, %al
c01953c4: 32 3b                        	xorb	(%ebx), %bh
c01953c6: 65 73 70                     	jae	0xc0195439 <.stabstr+0x1439>
c01953c9: 3a 28                        	cmpb	(%eax), %ch
c01953cb: 30 2c 31                     	xorb	%ch, (%ecx,%esi)
c01953ce: 33 29                        	xorl	(%ecx), %ebp
c01953d0: 2c 31                        	subb	$49, %al
c01953d2: 32 38                        	xorb	(%eax), %bh
c01953d4: 2c 33                        	subb	$51, %al
c01953d6: 32 3b                        	xorb	(%ebx), %bh
c01953d8: 65 62 78 3a                  	bound	%edi, %gs:58(%eax)
c01953dc: 28 30                        	subb	%dh, (%eax)
c01953de: 2c 31                        	subb	$49, %al
c01953e0: 33 29                        	xorl	(%ecx), %ebp
c01953e2: 2c 31                        	subb	$49, %al
c01953e4: 36 30 2c 33                  	xorb	%ch, %ss:(%ebx,%esi)
c01953e8: 32 3b                        	xorb	(%ebx), %bh
c01953ea: 65 64 78 3a                  	js	0xc0195428 <.stabstr+0x1428>
c01953ee: 28 30                        	subb	%dh, (%eax)
c01953f0: 2c 31                        	subb	$49, %al
c01953f2: 33 29                        	xorl	(%ecx), %ebp
c01953f4: 2c 31                        	subb	$49, %al
c01953f6: 39 32                        	cmpl	%esi, (%edx)
c01953f8: 2c 33                        	subb	$51, %al
c01953fa: 32 3b                        	xorb	(%ebx), %bh
c01953fc: 65 63 78 3a                  	arpl	%di, %gs:58(%eax)
c0195400: 28 30                        	subb	%dh, (%eax)
c0195402: 2c 31                        	subb	$49, %al
c0195404: 33 29                        	xorl	(%ecx), %ebp
c0195406: 2c 32                        	subb	$50, %al
c0195408: 32 34 2c                     	xorb	(%esp,%ebp), %dh
c019540b: 33 32                        	xorl	(%edx), %esi
c019540d: 3b 65 61                     	cmpl	97(%ebp), %esp
c0195410: 78 3a                        	js	0xc019544c <.stabstr+0x144c>
c0195412: 28 30                        	subb	%dh, (%eax)
c0195414: 2c 31                        	subb	$49, %al
c0195416: 33 29                        	xorl	(%ecx), %ebp
c0195418: 2c 32                        	subb	$50, %al
c019541a: 35 36 2c 33 32               	xorl	$842214454, %eax
c019541f: 3b 69 6e                     	cmpl	110(%ecx), %ebp
c0195422: 74 72                        	je	0xc0195496 <.stabstr+0x1496>
c0195424: 5f                           	popl	%edi
c0195425: 6e                           	outsb	(%esi), %dx
c0195426: 6f                           	outsl	(%esi), %dx
c0195427: 3a 28                        	cmpb	(%eax), %ch
c0195429: 30 2c 31                     	xorb	%ch, (%ecx,%esi)
c019542c: 33 29                        	xorl	(%ecx), %ebp
c019542e: 2c 32                        	subb	$50, %al
c0195430: 38 38                        	cmpb	%bh, (%eax)
c0195432: 2c 33                        	subb	$51, %al
c0195434: 32 3b                        	xorb	(%ebx), %bh
c0195436: 65 72 72                     	jb	0xc01954ab <.stabstr+0x14ab>
c0195439: 5f                           	popl	%edi
c019543a: 63 6f 64                     	arpl	%bp, 100(%edi)
c019543d: 65 3a 28                     	cmpb	%gs:(%eax), %ch
c0195440: 30 2c 31                     	xorb	%ch, (%ecx,%esi)
c0195443: 33 29                        	xorl	(%ecx), %ebp
c0195445: 2c 33                        	subb	$51, %al
c0195447: 32 30                        	xorb	(%eax), %dh
c0195449: 2c 33                        	subb	$51, %al
c019544b: 32 3b                        	xorb	(%ebx), %bh
c019544d: 65 69 70 3a 28 30 2c 31      	imull	$824979496, %gs:58(%eax), %esi
c0195455: 33 29                        	xorl	(%ecx), %ebp
c0195457: 2c 33                        	subb	$51, %al
c0195459: 35 32 2c 33 32               	xorl	$842214450, %eax
c019545e: 3b 63 73                     	cmpl	115(%ebx), %esp
c0195461: 3a 28                        	cmpb	(%eax), %ch
c0195463: 30 2c 31                     	xorb	%ch, (%ecx,%esi)
c0195466: 33 29                        	xorl	(%ecx), %ebp
c0195468: 2c 33                        	subb	$51, %al
c019546a: 38 34 2c                     	cmpb	%dh, (%esp,%ebp)
c019546d: 33 32                        	xorl	(%edx), %esi
c019546f: 3b 65 66                     	cmpl	102(%ebp), %esp
c0195472: 6c                           	insb	%dx, %es:(%edi)
c0195473: 61                           	popal
c0195474: 67 73 3a                     	jae	0xc01954b1 <.stabstr+0x14b1>
c0195477: 28 30                        	subb	%dh, (%eax)
c0195479: 2c 31                        	subb	$49, %al
c019547b: 33 29                        	xorl	(%ecx), %ebp
c019547d: 2c 34                        	subb	$52, %al
c019547f: 31 36                        	xorl	%esi, (%esi)
c0195481: 2c 33                        	subb	$51, %al
c0195483: 32 3b                        	xorb	(%ebx), %bh
c0195485: 75 73                        	jne	0xc01954fa <.stabstr+0x14fa>
c0195487: 72 5f                        	jb	0xc01954e8 <.stabstr+0x14e8>
c0195489: 65 73 70                     	jae	0xc01954fc <.stabstr+0x14fc>
c019548c: 3a 28                        	cmpb	(%eax), %ch
c019548e: 30 2c 31                     	xorb	%ch, (%ecx,%esi)
c0195491: 33 29                        	xorl	(%ecx), %ebp
c0195493: 2c 34                        	subb	$52, %al
c0195495: 34 38                        	xorb	$56, %al
c0195497: 2c 33                        	subb	$51, %al
c0195499: 32 3b                        	xorb	(%ebx), %bh
c019549b: 73 73                        	jae	0xc0195510 <.stabstr+0x1510>
c019549d: 3a 28                        	cmpb	(%eax), %ch
c019549f: 30 2c 31                     	xorb	%ch, (%ecx,%esi)
c01954a2: 33 29                        	xorl	(%ecx), %ebp
c01954a4: 2c 34                        	subb	$52, %al
c01954a6: 38 30                        	cmpb	%dh, (%eax)
c01954a8: 2c 33                        	subb	$51, %al
c01954aa: 32 3b                        	xorb	(%ebx), %bh
c01954ac: 3b 00                        	cmpl	(%eax), %eax
c01954ae: 75 69                        	jne	0xc0195519 <.stabstr+0x1519>
c01954b0: 6e                           	outsb	(%esi), %dx
c01954b1: 74 33                        	je	0xc01954e6 <.stabstr+0x14e6>
c01954b3: 32 5f 74                     	xorb	116(%edi), %bl
c01954b6: 3a 74 28 30                  	cmpb	48(%eax,%ebp), %dh
c01954ba: 2c 31                        	subb	$49, %al
c01954bc: 33 29                        	xorl	(%ecx), %ebp
c01954be: 00 75 6e                     	addb	%dh, 110(%ebp)
c01954c1: 73 69                        	jae	0xc019552c <.stabstr+0x152c>
c01954c3: 67 6e                        	outsb	(%si), %dx
c01954c5: 65 64 20 69 6e               	andb	%ch, %fs:110(%ecx)
c01954ca: 74 3a                        	je	0xc0195506 <.stabstr+0x1506>
c01954cc: 74 28                        	je	0xc01954f6 <.stabstr+0x14f6>
c01954ce: 30 2c 31                     	xorb	%ch, (%ecx,%esi)
c01954d1: 34 29                        	xorb	$41, %al
c01954d3: 00 69 6e                     	addb	%ch, 110(%ecx)
c01954d6: 74 72                        	je	0xc019554a <.stabstr+0x154a>
c01954d8: 5f                           	popl	%edi
c01954d9: 6e                           	outsb	(%esi), %dx
c01954da: 6f                           	outsl	(%esi), %dx
c01954db: 3a 28                        	cmpb	(%eax), %ch
c01954dd: 30 2c 31                     	xorb	%ch, (%ecx,%esi)
c01954e0: 33 29                        	xorl	(%ecx), %ebp
c01954e2: 00 69 72                     	addb	%ch, 114(%ecx)
c01954e5: 71 5f                        	jno	0xc0195546 <.stabstr+0x1546>
c01954e7: 68 61 6e 64 6c               	pushl	$1818521185
c01954ec: 65 72 3a                     	jb	0xc0195529 <.stabstr+0x1529>
c01954ef: 46                           	incl	%esi
c01954f0: 28 30                        	subb	%dh, (%eax)
c01954f2: 2c 36                        	subb	$54, %al
c01954f4: 29 00                        	subl	%eax, (%eax)
c01954f6: 72 65                        	jb	0xc019555d <.stabstr+0x155d>
c01954f8: 67 73 3a                     	jae	0xc0195535 <.stabstr+0x1535>
c01954fb: 70 28                        	jo	0xc0195525 <.stabstr+0x1525>
c01954fd: 30 2c 31                     	xorb	%ch, (%ecx,%esi)
c0195500: 30 29                        	xorb	%ch, (%ecx)
c0195502: 00 6b 65                     	addb	%ch, 101(%ebx)
c0195505: 72 6e                        	jb	0xc0195575 <.stabstr+0x1575>
c0195507: 65 6c                        	insb	%dx, %es:(%edi)
c0195509: 2f                           	das
c019550a: 70 72                        	jo	0xc019557e <.stabstr+0x157e>
c019550c: 69 6e 74 6b 2e 63 00         	imull	$6499947, 116(%esi), %ebp
c0195513: 63 70 72                     	arpl	%si, 114(%eax)
c0195516: 69 6e 74 6b 3a 46 28         	imull	$675691115, 116(%esi), %ebp
c019551d: 30 2c 31                     	xorb	%ch, (%ecx,%esi)
c0195520: 29 3d 28 30 2c 31            	subl	%edi, 824979496
c0195526: 29 00                        	subl	%eax, (%eax)
c0195528: 66 6d                        	insw	%dx, %es:(%edi)
c019552a: 74 3a                        	je	0xc0195566 <.stabstr+0x1566>
c019552c: 70 28                        	jo	0xc0195556 <.stabstr+0x1556>
c019552e: 30 2c 32                     	xorb	%ch, (%edx,%esi)
c0195531: 29 3d 2a 28 30 2c            	subl	%edi, 741353514
c0195537: 33 29                        	xorl	(%ecx), %ebp
c0195539: 3d 6b 28 30 2c               	cmpl	$741353579, %eax
c019553e: 34 29                        	xorb	$41, %al
c0195540: 3d 72 28 30 2c               	cmpl	$741353586, %eax
c0195545: 34 29                        	xorb	$41, %al
c0195547: 3b 30                        	cmpl	(%eax), %esi
c0195549: 3b 31                        	cmpl	(%ecx), %esi
c019554b: 32 37                        	xorb	(%edi), %dh
c019554d: 3b 00                        	cmpl	(%eax), %eax
c019554f: 63 68 61                     	arpl	%bp, 97(%eax)
c0195552: 72 3a                        	jb	0xc019558e <.stabstr+0x158e>
c0195554: 74 28                        	je	0xc019557e <.stabstr+0x157e>
c0195556: 30 2c 34                     	xorb	%ch, (%esp,%esi)
c0195559: 29 00                        	subl	%eax, (%eax)
c019555b: 62 75 66                     	bound	%esi, 102(%ebp)
c019555e: 3a 56 28                     	cmpb	40(%esi), %dl
c0195561: 30 2c 35 29 3d 61 72         	xorb	%ch, 1918975273(,%esi)
c0195568: 28 30                        	subb	%dh, (%eax)
c019556a: 2c 36                        	subb	$54, %al
c019556c: 29 3d 72 28 30 2c            	subl	%edi, 741353586
c0195572: 36 29 3b                     	subl	%edi, %ss:(%ebx)
c0195575: 30 3b                        	xorb	%bh, (%ebx)
c0195577: 30 33                        	xorb	%dh, (%ebx)
c0195579: 37                           	aaa
c019557a: 37                           	aaa
c019557b: 37                           	aaa
c019557c: 37                           	aaa
c019557d: 37                           	aaa
c019557e: 37                           	aaa
c019557f: 37                           	aaa
c0195580: 37                           	aaa
c0195581: 37                           	aaa
c0195582: 37                           	aaa
c0195583: 3b 3b                        	cmpl	(%ebx), %edi
c0195585: 30 3b                        	xorb	%bh, (%ebx)
c0195587: 31 30                        	xorl	%esi, (%eax)
c0195589: 32 33                        	xorb	(%ebx), %dh
c019558b: 3b 28                        	cmpl	(%eax), %ebp
c019558d: 30 2c 34                     	xorb	%ch, (%esp,%esi)
c0195590: 29 00                        	subl	%eax, (%eax)
c0195592: 61                           	popal
c0195593: 72 67                        	jb	0xc01955fc <.stabstr+0x15fc>
c0195595: 73 3a                        	jae	0xc01955d1 <.stabstr+0x15d1>
c0195597: 28 30                        	subb	%dh, (%eax)
c0195599: 2c 37                        	subb	$55, %al
c019559b: 29 3d 28 30 2c 38            	subl	%edi, 942420008
c01955a1: 29 3d 2a 28 30 2c            	subl	%edi, 741353514
c01955a7: 34 29                        	xorb	$41, %al
c01955a9: 00 76 61                     	addb	%dh, 97(%esi)
c01955ac: 5f                           	popl	%edi
c01955ad: 6c                           	insb	%dx, %es:(%edi)
c01955ae: 69 73 74 3a 74 28 30         	imull	$807957562, 116(%ebx), %esi
c01955b5: 2c 37                        	subb	$55, %al
c01955b7: 29 00                        	subl	%eax, (%eax)
c01955b9: 5f                           	popl	%edi
c01955ba: 5f                           	popl	%edi
c01955bb: 62 75 69                     	bound	%esi, 105(%ebp)
c01955be: 6c                           	insb	%dx, %es:(%edi)
c01955bf: 74 69                        	je	0xc019562a <.stabstr+0x162a>
c01955c1: 6e                           	outsb	(%esi), %dx
c01955c2: 5f                           	popl	%edi
c01955c3: 76 61                        	jbe	0xc0195626 <.stabstr+0x1626>
c01955c5: 5f                           	popl	%edi
c01955c6: 6c                           	insb	%dx, %es:(%edi)
c01955c7: 69 73 74 3a 74 28 30         	imull	$807957562, 116(%ebx), %esi
c01955ce: 2c 38                        	subb	$56, %al
c01955d0: 29 00                        	subl	%eax, (%eax)
c01955d2: 69 3a 28 30 2c 39            	imull	$959197224, (%edx), %edi
c01955d8: 29 3d 72 28 30 2c            	subl	%edi, 741353586
c01955de: 39 29                        	cmpl	%ebp, (%ecx)
c01955e0: 3b 2d 32 31 34 37            	cmpl	926167346, %ebp
c01955e6: 34 38                        	xorb	$56, %al
c01955e8: 33 36                        	xorl	(%esi), %esi
c01955ea: 34 38                        	xorb	$56, %al
c01955ec: 3b 32                        	cmpl	(%edx), %esi
c01955ee: 31 34 37                     	xorl	%esi, (%edi,%esi)
c01955f1: 34 38                        	xorb	$56, %al
c01955f3: 33 36                        	xorl	(%esi), %esi
c01955f5: 34 37                        	xorb	$55, %al
c01955f7: 3b 00                        	cmpl	(%eax), %eax
c01955f9: 69 6e 74 3a 74 28 30         	imull	$807957562, 116(%esi), %ebp
c0195600: 2c 39                        	subb	$57, %al
c0195602: 29 00                        	subl	%eax, (%eax)
c0195604: 70 72                        	jo	0xc0195678 <.stabstr+0x1678>
c0195606: 69 6e 74 6b 3a 46 28         	imull	$675691115, 116(%esi), %ebp
c019560d: 30 2c 31                     	xorb	%ch, (%ecx,%esi)
c0195610: 29 00                        	subl	%eax, (%eax)
c0195612: 66 6d                        	insw	%dx, %es:(%edi)
c0195614: 74 3a                        	je	0xc0195650 <.stabstr+0x1650>
c0195616: 70 28                        	jo	0xc0195640 <.stabstr+0x1640>
c0195618: 30 2c 32                     	xorb	%ch, (%edx,%esi)
c019561b: 29 00                        	subl	%eax, (%eax)
c019561d: 62 75 66                     	bound	%esi, 102(%ebp)
c0195620: 3a 56 28                     	cmpb	40(%esi), %dl
c0195623: 30 2c 35 29 00 61 72         	xorb	%ch, 1918959657(,%esi)
c019562a: 67 73 3a                     	jae	0xc0195667 <.stabstr+0x1667>
c019562d: 28 30                        	subb	%dh, (%eax)
c019562f: 2c 37                        	subb	$55, %al
c0195631: 29 00                        	subl	%eax, (%eax)
c0195633: 69 3a 28 30 2c 39            	imull	$959197224, (%edx), %edi
c0195639: 29 00                        	subl	%eax, (%eax)
c019563b: 6b 65 72 6e                  	imull	$110, 114(%ebp), %esp
c019563f: 65 6c                        	insb	%dx, %es:(%edi)
c0195641: 2f                           	das
c0195642: 76 73                        	jbe	0xc01956b7 <.stabstr+0x16b7>
c0195644: 70 72                        	jo	0xc01956b8 <.stabstr+0x16b8>
c0195646: 69 6e 74 66 2e 63 00         	imull	$6499942, 116(%esi), %ebp
c019564d: 73 6b                        	jae	0xc01956ba <.stabstr+0x16ba>
c019564f: 69 70 5f 61 74 6f 69         	imull	$1768911969, 95(%eax), %esi
c0195656: 3a 66 28                     	cmpb	40(%esi), %ah
c0195659: 30 2c 31                     	xorb	%ch, (%ecx,%esi)
c019565c: 29 3d 72 28 30 2c            	subl	%edi, 741353586
c0195662: 31 29                        	xorl	%ebp, (%ecx)
c0195664: 3b 2d 32 31 34 37            	cmpl	926167346, %ebp
c019566a: 34 38                        	xorb	$56, %al
c019566c: 33 36                        	xorl	(%esi), %esi
c019566e: 34 38                        	xorb	$56, %al
c0195670: 3b 32                        	cmpl	(%edx), %esi
c0195672: 31 34 37                     	xorl	%esi, (%edi,%esi)
c0195675: 34 38                        	xorb	$56, %al
c0195677: 33 36                        	xorl	(%esi), %esi
c0195679: 34 37                        	xorb	$55, %al
c019567b: 3b 00                        	cmpl	(%eax), %eax
c019567d: 73 3a                        	jae	0xc01956b9 <.stabstr+0x16b9>
c019567f: 70 28                        	jo	0xc01956a9 <.stabstr+0x16a9>
c0195681: 30 2c 32                     	xorb	%ch, (%edx,%esi)
c0195684: 29 3d 2a 28 30 2c            	subl	%edi, 741353514
c019568a: 33 29                        	xorl	(%ecx), %ebp
c019568c: 3d 2a 28 30 2c               	cmpl	$741353514, %eax
c0195691: 34 29                        	xorb	$41, %al
c0195693: 3d 6b 28 30 2c               	cmpl	$741353579, %eax
c0195698: 35 29 3d 72 28               	xorl	$678575401, %eax
c019569d: 30 2c 35 29 3b 30 3b         	xorb	%ch, 993016617(,%esi)
c01956a4: 31 32                        	xorl	%esi, (%edx)
c01956a6: 37                           	aaa
c01956a7: 3b 00                        	cmpl	(%eax), %eax
c01956a9: 63 68 61                     	arpl	%bp, 97(%eax)
c01956ac: 72 3a                        	jb	0xc01956e8 <.stabstr+0x16e8>
c01956ae: 74 28                        	je	0xc01956d8 <.stabstr+0x16d8>
c01956b0: 30 2c 35 29 00 69 3a         	xorb	%ch, 979959849(,%esi)
c01956b7: 28 30                        	subb	%dh, (%eax)
c01956b9: 2c 31                        	subb	$49, %al
c01956bb: 29 00                        	subl	%eax, (%eax)
c01956bd: 6e                           	outsb	(%esi), %dx
c01956be: 75 6d                        	jne	0xc019572d <.stabstr+0x172d>
c01956c0: 62 65 72                     	bound	%esp, 114(%ebp)
c01956c3: 3a 66 28                     	cmpb	40(%esi), %ah
c01956c6: 30 2c 36                     	xorb	%ch, (%esi,%esi)
c01956c9: 29 3d 2a 28 30 2c            	subl	%edi, 741353514
c01956cf: 35 29 00 73 74               	xorl	$1953693737, %eax
c01956d4: 72 3a                        	jb	0xc0195710 <.stabstr+0x1710>
c01956d6: 70 28                        	jo	0xc0195700 <.stabstr+0x1700>
c01956d8: 30 2c 36                     	xorb	%ch, (%esi,%esi)
c01956db: 29 00                        	subl	%eax, (%eax)
c01956dd: 6e                           	outsb	(%esi), %dx
c01956de: 75 6d                        	jne	0xc019574d <.stabstr+0x174d>
c01956e0: 3a 70 28                     	cmpb	40(%eax), %dh
c01956e3: 30 2c 31                     	xorb	%ch, (%ecx,%esi)
c01956e6: 29 00                        	subl	%eax, (%eax)
c01956e8: 62 61 73                     	bound	%esp, 115(%ecx)
c01956eb: 65 3a 70 28                  	cmpb	%gs:40(%eax), %dh
c01956ef: 30 2c 31                     	xorb	%ch, (%ecx,%esi)
c01956f2: 29 00                        	subl	%eax, (%eax)
c01956f4: 73 69                        	jae	0xc019575f <.stabstr+0x175f>
c01956f6: 7a 65                        	jp	0xc019575d <.stabstr+0x175d>
c01956f8: 3a 70 28                     	cmpb	40(%eax), %dh
c01956fb: 30 2c 31                     	xorb	%ch, (%ecx,%esi)
c01956fe: 29 00                        	subl	%eax, (%eax)
c0195700: 70 72                        	jo	0xc0195774 <.stabstr+0x1774>
c0195702: 65 63 69 73                  	arpl	%bp, %gs:115(%ecx)
c0195706: 69 6f 6e 3a 70 28 30         	imull	$807956538, 110(%edi), %ebp
c019570d: 2c 31                        	subb	$49, %al
c019570f: 29 00                        	subl	%eax, (%eax)
c0195711: 74 79                        	je	0xc019578c <.stabstr+0x178c>
c0195713: 70 65                        	jo	0xc019577a <.stabstr+0x177a>
c0195715: 3a 70 28                     	cmpb	40(%eax), %dh
c0195718: 30 2c 31                     	xorb	%ch, (%ecx,%esi)
c019571b: 29 00                        	subl	%eax, (%eax)
c019571d: 63 3a                        	arpl	%di, (%edx)
c019571f: 28 30                        	subb	%dh, (%eax)
c0195721: 2c 35                        	subb	$53, %al
c0195723: 29 00                        	subl	%eax, (%eax)
c0195725: 73 69                        	jae	0xc0195790 <.stabstr+0x1790>
c0195727: 67 6e                        	outsb	(%si), %dx
c0195729: 3a 28                        	cmpb	(%eax), %ch
c019572b: 30 2c 35 29 00 74 6d         	xorb	%ch, 1836318761(,%esi)
c0195732: 70 3a                        	jo	0xc019576e <.stabstr+0x176e>
c0195734: 28 30                        	subb	%dh, (%eax)
c0195736: 2c 37                        	subb	$55, %al
c0195738: 29 3d 61 72 28 30            	subl	%edi, 807957089
c019573e: 2c 38                        	subb	$56, %al
c0195740: 29 3d 72 28 30 2c            	subl	%edi, 741353586
c0195746: 38 29                        	cmpb	%ch, (%ecx)
c0195748: 3b 30                        	cmpl	(%eax), %esi
c019574a: 3b 30                        	cmpl	(%eax), %esi
c019574c: 33 37                        	xorl	(%edi), %esi
c019574e: 37                           	aaa
c019574f: 37                           	aaa
c0195750: 37                           	aaa
c0195751: 37                           	aaa
c0195752: 37                           	aaa
c0195753: 37                           	aaa
c0195754: 37                           	aaa
c0195755: 37                           	aaa
c0195756: 37                           	aaa
c0195757: 3b 3b                        	cmpl	(%ebx), %edi
c0195759: 30 3b                        	xorb	%bh, (%ebx)
c019575b: 33 35 3b 28 30 2c            	xorl	741353531, %esi
c0195761: 35 29 00 64 69               	xorl	$1768161321, %eax
c0195766: 67 69 74 73 3a 28 30 2c      	imull	$741353530, 115(%si), %esi
c019576e: 33 29                        	xorl	(%ecx), %ebp
c0195770: 00 5f 5f                     	addb	%bl, 95(%edi)
c0195773: 72 65                        	jb	0xc01957da <.stabstr+0x17da>
c0195775: 73 3a                        	jae	0xc01957b1 <.stabstr+0x17b1>
c0195777: 28 30                        	subb	%dh, (%eax)
c0195779: 2c 31                        	subb	$49, %al
c019577b: 29 00                        	subl	%eax, (%eax)
c019577d: 76 73                        	jbe	0xc01957f2 <.stabstr+0x17f2>
c019577f: 70 72                        	jo	0xc01957f3 <.stabstr+0x17f3>
c0195781: 69 6e 74 66 3a 46 28         	imull	$675691110, 116(%esi), %ebp
c0195788: 30 2c 31                     	xorb	%ch, (%ecx,%esi)
c019578b: 29 00                        	subl	%eax, (%eax)
c019578d: 6c                           	insb	%dx, %es:(%edi)
c019578e: 6f                           	outsl	(%esi), %dx
c019578f: 6e                           	outsb	(%esi), %dx
c0195790: 67 20 75 6e                  	andb	%dh, 110(%di)
c0195794: 73 69                        	jae	0xc01957ff <.stabstr+0x17ff>
c0195796: 67 6e                        	outsb	(%si), %dx
c0195798: 65 64 20 69 6e               	andb	%ch, %fs:110(%ecx)
c019579d: 74 3a                        	je	0xc01957d9 <.stabstr+0x17d9>
c019579f: 74 28                        	je	0xc01957c9 <.stabstr+0x17c9>
c01957a1: 30 2c 39                     	xorb	%ch, (%ecx,%edi)
c01957a4: 29 3d 72 28 30 2c            	subl	%edi, 741353586
c01957aa: 39 29                        	cmpl	%ebp, (%ecx)
c01957ac: 3b 30                        	cmpl	(%eax), %esi
c01957ae: 3b 30                        	cmpl	(%eax), %esi
c01957b0: 33 37                        	xorl	(%edi), %esi
c01957b2: 37                           	aaa
c01957b3: 37                           	aaa
c01957b4: 37                           	aaa
c01957b5: 37                           	aaa
c01957b6: 37                           	aaa
c01957b7: 37                           	aaa
c01957b8: 37                           	aaa
c01957b9: 37                           	aaa
c01957ba: 37                           	aaa
c01957bb: 3b 00                        	cmpl	(%eax), %eax
c01957bd: 75 6e                        	jne	0xc019582d <.stabstr+0x182d>
c01957bf: 73 69                        	jae	0xc019582a <.stabstr+0x182a>
c01957c1: 67 6e                        	outsb	(%si), %dx
c01957c3: 65 64 20 63 68               	andb	%ah, %fs:104(%ebx)
c01957c8: 61                           	popal
c01957c9: 72 3a                        	jb	0xc0195805 <.stabstr+0x1805>
c01957cb: 74 28                        	je	0xc01957f5 <.stabstr+0x17f5>
c01957cd: 30 2c 31                     	xorb	%ch, (%ecx,%esi)
c01957d0: 30 29                        	xorb	%ch, (%ecx)
c01957d2: 3d 40 73 38 3b               	cmpl	$993555264, %eax
c01957d7: 72 28                        	jb	0xc0195801 <.stabstr+0x1801>
c01957d9: 30 2c 31                     	xorb	%ch, (%ecx,%esi)
c01957dc: 30 29                        	xorb	%ch, (%ecx)
c01957de: 3b 30                        	cmpl	(%eax), %esi
c01957e0: 3b 32                        	cmpl	(%edx), %esi
c01957e2: 35 35 3b 00 62               	xorl	$1644182325, %eax
c01957e7: 75 66                        	jne	0xc019584f <.stabstr+0x184f>
c01957e9: 3a 70 28                     	cmpb	40(%eax), %dh
c01957ec: 30 2c 36                     	xorb	%ch, (%esi,%esi)
c01957ef: 29 00                        	subl	%eax, (%eax)
c01957f1: 66 6d                        	insw	%dx, %es:(%edi)
c01957f3: 74 3a                        	je	0xc019582f <.stabstr+0x182f>
c01957f5: 70 28                        	jo	0xc019581f <.stabstr+0x181f>
c01957f7: 30 2c 33                     	xorb	%ch, (%ebx,%esi)
c01957fa: 29 00                        	subl	%eax, (%eax)
c01957fc: 61                           	popal
c01957fd: 72 67                        	jb	0xc0195866 <.stabstr+0x1866>
c01957ff: 73 3a                        	jae	0xc019583b <.stabstr+0x183b>
c0195801: 70 28                        	jo	0xc019582b <.stabstr+0x182b>
c0195803: 30 2c 31                     	xorb	%ch, (%ecx,%esi)
c0195806: 31 29                        	xorl	%ebp, (%ecx)
c0195808: 3d 28 30 2c 31               	cmpl	$824979496, %eax
c019580d: 32 29                        	xorb	(%ecx), %ch
c019580f: 3d 2a 28 30 2c               	cmpl	$741353514, %eax
c0195814: 35 29 00 76 61               	xorl	$1635123241, %eax
c0195819: 5f                           	popl	%edi
c019581a: 6c                           	insb	%dx, %es:(%edi)
c019581b: 69 73 74 3a 74 28 30         	imull	$807957562, 116(%ebx), %esi
c0195822: 2c 31                        	subb	$49, %al
c0195824: 31 29                        	xorl	%ebp, (%ecx)
c0195826: 00 5f 5f                     	addb	%bl, 95(%edi)
c0195829: 62 75 69                     	bound	%esi, 105(%ebp)
c019582c: 6c                           	insb	%dx, %es:(%edi)
c019582d: 74 69                        	je	0xc0195898 <.stabstr+0x1898>
c019582f: 6e                           	outsb	(%esi), %dx
c0195830: 5f                           	popl	%edi
c0195831: 76 61                        	jbe	0xc0195894 <.stabstr+0x1894>
c0195833: 5f                           	popl	%edi
c0195834: 6c                           	insb	%dx, %es:(%edi)
c0195835: 69 73 74 3a 74 28 30         	imull	$807957562, 116(%ebx), %esi
c019583c: 2c 31                        	subb	$49, %al
c019583e: 32 29                        	xorb	(%ecx), %ch
c0195840: 00 6c 65 6e                  	addb	%ch, 110(%ebp,%eiz,2)
c0195844: 3a 28                        	cmpb	(%eax), %ch
c0195846: 30 2c 31                     	xorb	%ch, (%ecx,%esi)
c0195849: 29 00                        	subl	%eax, (%eax)
c019584b: 73 74                        	jae	0xc01958c1 <.stabstr+0x18c1>
c019584d: 72 3a                        	jb	0xc0195889 <.stabstr+0x1889>
c019584f: 28 30                        	subb	%dh, (%eax)
c0195851: 2c 36                        	subb	$54, %al
c0195853: 29 00                        	subl	%eax, (%eax)
c0195855: 73 3a                        	jae	0xc0195891 <.stabstr+0x1891>
c0195857: 28 30                        	subb	%dh, (%eax)
c0195859: 2c 36                        	subb	$54, %al
c019585b: 29 00                        	subl	%eax, (%eax)
c019585d: 69 70 3a 28 30 2c 31         	imull	$824979496, 58(%eax), %esi
c0195864: 33 29                        	xorl	(%ecx), %ebp
c0195866: 3d 2a 28 30 2c               	cmpl	$741353514, %eax
c019586b: 31 29                        	xorl	%ebp, (%ecx)
c019586d: 00 66 6c                     	addb	%ah, 108(%esi)
c0195870: 61                           	popal
c0195871: 67 73 3a                     	jae	0xc01958ae <.stabstr+0x18ae>
c0195874: 28 30                        	subb	%dh, (%eax)
c0195876: 2c 31                        	subb	$49, %al
c0195878: 29 00                        	subl	%eax, (%eax)
c019587a: 66 69 65 6c 64 5f            	imulw	$24420, 108(%ebp), %sp
c0195880: 77 69                        	ja	0xc01958eb <.stabstr+0x18eb>
c0195882: 64 74 68                     	je	0xc01958ed <.stabstr+0x18ed>
c0195885: 3a 28                        	cmpb	(%eax), %ch
c0195887: 30 2c 31                     	xorb	%ch, (%ecx,%esi)
c019588a: 29 00                        	subl	%eax, (%eax)
c019588c: 70 72                        	jo	0xc0195900 <.stabstr+0x1900>
c019588e: 65 63 69 73                  	arpl	%bp, %gs:115(%ecx)
c0195892: 69 6f 6e 3a 28 30 2c         	imull	$741353530, 110(%edi), %ebp
c0195899: 31 29                        	xorl	%ebp, (%ecx)
c019589b: 00 6b 65                     	addb	%ch, 101(%ebx)
c019589e: 72 6e                        	jb	0xc019590e <.stabstr+0x190e>
c01958a0: 65 6c                        	insb	%dx, %es:(%edi)
c01958a2: 2f                           	das
c01958a3: 64 65 62 75 67               	bound	%esi, %gs:103(%ebp)
c01958a8: 2e 63 00                     	arpl	%ax, %cs:(%eax)
c01958ab: 6b 65 72 6e                  	imull	$110, 114(%ebp), %esp
c01958af: 65 6c                        	insb	%dx, %es:(%edi)
c01958b1: 5f                           	popl	%edi
c01958b2: 65 6c                        	insb	%dx, %es:(%edi)
c01958b4: 66 3a 53 28                  	cmpb	40(%ebx), %dl
c01958b8: 30 2c 31                     	xorb	%ch, (%ecx,%esi)
c01958bb: 29 3d 28 30 2c 32            	subl	%edi, 841756712
c01958c1: 29 3d 78 73 65 6c            	subl	%edi, 1818588024
c01958c7: 66 5f                        	popw	%di
c01958c9: 74 3a                        	je	0xc0195905 <.stabstr+0x1905>
c01958cb: 00 65 6c                     	addb	%ah, 108(%ebp)
c01958ce: 66 5f                        	popw	%di
c01958d0: 74 3a                        	je	0xc019590c <.stabstr+0x190c>
c01958d2: 54                           	pushl	%esp
c01958d3: 28 30                        	subb	%dh, (%eax)
c01958d5: 2c 32                        	subb	$50, %al
c01958d7: 29 3d 73 31 36 73            	subl	%edi, 1932931443
c01958dd: 79 6d                        	jns	0xc019594c <.stabstr+0x194c>
c01958df: 74 61                        	je	0xc0195942 <.stabstr+0x1942>
c01958e1: 62 3a                        	bound	%edi, (%edx)
c01958e3: 28 30                        	subb	%dh, (%eax)
c01958e5: 2c 33                        	subb	$51, %al
c01958e7: 29 3d 2a 28 30 2c            	subl	%edi, 741353514
c01958ed: 34 29                        	xorb	$41, %al
c01958ef: 3d 28 30 2c 35               	cmpl	$892088360, %eax
c01958f4: 29 3d 78 73 65 6c            	subl	%edi, 1818588024
c01958fa: 66 5f                        	popw	%di
c01958fc: 73 79                        	jae	0xc0195977 <.stabstr+0x1977>
c01958fe: 6d                           	insl	%dx, %es:(%edi)
c01958ff: 62 6f 6c                     	bound	%ebp, 108(%edi)
c0195902: 5f                           	popl	%edi
c0195903: 74 3a                        	je	0xc019593f <.stabstr+0x193f>
c0195905: 2c 30                        	subb	$48, %al
c0195907: 2c 33                        	subb	$51, %al
c0195909: 32 3b                        	xorb	(%ebx), %bh
c019590b: 73 79                        	jae	0xc0195986 <.stabstr+0x1986>
c019590d: 6d                           	insl	%dx, %es:(%edi)
c019590e: 74 61                        	je	0xc0195971 <.stabstr+0x1971>
c0195910: 62 73 7a                     	bound	%esi, 122(%ebx)
c0195913: 3a 28                        	cmpb	(%eax), %ch
c0195915: 30 2c 36                     	xorb	%ch, (%esi,%esi)
c0195918: 29 3d 28 30 2c 37            	subl	%edi, 925642792
c019591e: 29 3d 72 28 30 2c            	subl	%edi, 741353586
c0195924: 37                           	aaa
c0195925: 29 3b                        	subl	%edi, (%ebx)
c0195927: 30 3b                        	xorb	%bh, (%ebx)
c0195929: 30 33                        	xorb	%dh, (%ebx)
c019592b: 37                           	aaa
c019592c: 37                           	aaa
c019592d: 37                           	aaa
c019592e: 37                           	aaa
c019592f: 37                           	aaa
c0195930: 37                           	aaa
c0195931: 37                           	aaa
c0195932: 37                           	aaa
c0195933: 37                           	aaa
c0195934: 37                           	aaa
c0195935: 3b 2c 33                     	cmpl	(%ebx,%esi), %ebp
c0195938: 32 2c 33                     	xorb	(%ebx,%esi), %ch
c019593b: 32 3b                        	xorb	(%ebx), %bh
c019593d: 73 74                        	jae	0xc01959b3 <.stabstr+0x19b3>
c019593f: 72 74                        	jb	0xc01959b5 <.stabstr+0x19b5>
c0195941: 61                           	popal
c0195942: 62 3a                        	bound	%edi, (%edx)
c0195944: 28 30                        	subb	%dh, (%eax)
c0195946: 2c 38                        	subb	$56, %al
c0195948: 29 3d 2a 28 30 2c            	subl	%edi, 741353514
c019594e: 39 29                        	cmpl	%ebp, (%ecx)
c0195950: 3d 6b 28 30 2c               	cmpl	$741353579, %eax
c0195955: 31 30                        	xorl	%esi, (%eax)
c0195957: 29 3d 72 28 30 2c            	subl	%edi, 741353586
c019595d: 31 30                        	xorl	%esi, (%eax)
c019595f: 29 3b                        	subl	%edi, (%ebx)
c0195961: 30 3b                        	xorb	%bh, (%ebx)
c0195963: 31 32                        	xorl	%esi, (%edx)
c0195965: 37                           	aaa
c0195966: 3b 2c 36                     	cmpl	(%esi,%esi), %ebp
c0195969: 34 2c                        	xorb	$44, %al
c019596b: 33 32                        	xorl	(%edx), %esi
c019596d: 3b 73 74                     	cmpl	116(%ebx), %esi
c0195970: 72 74                        	jb	0xc01959e6 <.stabstr+0x19e6>
c0195972: 61                           	popal
c0195973: 62 73 7a                     	bound	%esi, 122(%ebx)
c0195976: 3a 28                        	cmpb	(%eax), %ch
c0195978: 30 2c 36                     	xorb	%ch, (%esi,%esi)
c019597b: 29 2c 39                     	subl	%ebp, (%ecx,%edi)
c019597e: 36 2c 33                     	subb	$51, %al
c0195981: 32 3b                        	xorb	(%ebx), %bh
c0195983: 3b 00                        	cmpl	(%eax), %eax
c0195985: 65 6c                        	insb	%dx, %es:(%edi)
c0195987: 66 5f                        	popw	%di
c0195989: 74 3a                        	je	0xc01959c5 <.stabstr+0x19c5>
c019598b: 74 28                        	je	0xc01959b5 <.stabstr+0x19b5>
c019598d: 30 2c 31                     	xorb	%ch, (%ecx,%esi)
c0195990: 29 00                        	subl	%eax, (%eax)
c0195992: 65 6c                        	insb	%dx, %es:(%edi)
c0195994: 66 5f                        	popw	%di
c0195996: 73 79                        	jae	0xc0195a11 <.stabstr+0x1a11>
c0195998: 6d                           	insl	%dx, %es:(%edi)
c0195999: 62 6f 6c                     	bound	%ebp, 108(%edi)
c019599c: 5f                           	popl	%edi
c019599d: 74 3a                        	je	0xc01959d9 <.stabstr+0x19d9>
c019599f: 54                           	pushl	%esp
c01959a0: 28 30                        	subb	%dh, (%eax)
c01959a2: 2c 35                        	subb	$53, %al
c01959a4: 29 3d 73 31 36 6e            	subl	%edi, 1849045363
c01959aa: 61                           	popal
c01959ab: 6d                           	insl	%dx, %es:(%edi)
c01959ac: 65 3a 28                     	cmpb	%gs:(%eax), %ch
c01959af: 30 2c 36                     	xorb	%ch, (%esi,%esi)
c01959b2: 29 2c 30                     	subl	%ebp, (%eax,%esi)
c01959b5: 2c 33                        	subb	$51, %al
c01959b7: 32 3b                        	xorb	(%ebx), %bh
c01959b9: 76 61                        	jbe	0xc0195a1c <.stabstr+0x1a1c>
c01959bb: 6c                           	insb	%dx, %es:(%edi)
c01959bc: 75 65                        	jne	0xc0195a23 <.stabstr+0x1a23>
c01959be: 3a 28                        	cmpb	(%eax), %ch
c01959c0: 30 2c 36                     	xorb	%ch, (%esi,%esi)
c01959c3: 29 2c 33                     	subl	%ebp, (%ebx,%esi)
c01959c6: 32 2c 33                     	xorb	(%ebx,%esi), %ch
c01959c9: 32 3b                        	xorb	(%ebx), %bh
c01959cb: 73 69                        	jae	0xc0195a36 <.stabstr+0x1a36>
c01959cd: 7a 65                        	jp	0xc0195a34 <.stabstr+0x1a34>
c01959cf: 3a 28                        	cmpb	(%eax), %ch
c01959d1: 30 2c 36                     	xorb	%ch, (%esi,%esi)
c01959d4: 29 2c 36                     	subl	%ebp, (%esi,%esi)
c01959d7: 34 2c                        	xorb	$44, %al
c01959d9: 33 32                        	xorl	(%edx), %esi
c01959db: 3b 69 6e                     	cmpl	110(%ecx), %ebp
c01959de: 66 6f                        	outsw	(%esi), %dx
c01959e0: 3a 28                        	cmpb	(%eax), %ch
c01959e2: 30 2c 31                     	xorb	%ch, (%ecx,%esi)
c01959e5: 31 29                        	xorl	%ebp, (%ecx)
c01959e7: 3d 28 30 2c 31               	cmpl	$824979496, %eax
c01959ec: 32 29                        	xorb	(%ecx), %ch
c01959ee: 3d 40 73 38 3b               	cmpl	$993555264, %eax
c01959f3: 72 28                        	jb	0xc0195a1d <.stabstr+0x1a1d>
c01959f5: 30 2c 31                     	xorb	%ch, (%ecx,%esi)
c01959f8: 32 29                        	xorb	(%ecx), %ch
c01959fa: 3b 30                        	cmpl	(%eax), %esi
c01959fc: 3b 32                        	cmpl	(%edx), %esi
c01959fe: 35 35 3b 2c 39               	xorl	$959200053, %eax
c0195a03: 36 2c 38                     	subb	$56, %al
c0195a06: 3b 6f 74                     	cmpl	116(%edi), %ebp
c0195a09: 68 65 72 3a 28               	pushl	$674919013
c0195a0e: 30 2c 31                     	xorb	%ch, (%ecx,%esi)
c0195a11: 31 29                        	xorl	%ebp, (%ecx)
c0195a13: 2c 31                        	subb	$49, %al
c0195a15: 30 34 2c                     	xorb	%dh, (%esp,%ebp)
c0195a18: 38 3b                        	cmpb	%bh, (%ebx)
c0195a1a: 73 68                        	jae	0xc0195a84 <.stabstr+0x1a84>
c0195a1c: 6e                           	outsb	(%esi), %dx
c0195a1d: 64 78 3a                     	js	0xc0195a5a <.stabstr+0x1a5a>
c0195a20: 28 30                        	subb	%dh, (%eax)
c0195a22: 2c 31                        	subb	$49, %al
c0195a24: 33 29                        	xorl	(%ecx), %ebp
c0195a26: 3d 28 30 2c 31               	cmpl	$824979496, %eax
c0195a2b: 34 29                        	xorb	$41, %al
c0195a2d: 3d 40 73 31 36               	cmpl	$909210432, %eax
c0195a32: 3b 72 28                     	cmpl	40(%edx), %esi
c0195a35: 30 2c 31                     	xorb	%ch, (%ecx,%esi)
c0195a38: 34 29                        	xorb	$41, %al
c0195a3a: 3b 30                        	cmpl	(%eax), %esi
c0195a3c: 3b 36                        	cmpl	(%esi), %esi
c0195a3e: 35 35 33 35 3b               	xorl	$993342261, %eax
c0195a43: 2c 31                        	subb	$49, %al
c0195a45: 31 32                        	xorl	%esi, (%edx)
c0195a47: 2c 31                        	subb	$49, %al
c0195a49: 36 3b 3b                     	cmpl	%ss:(%ebx), %edi
c0195a4c: 00 75 69                     	addb	%dh, 105(%ebp)
c0195a4f: 6e                           	outsb	(%esi), %dx
c0195a50: 74 33                        	je	0xc0195a85 <.stabstr+0x1a85>
c0195a52: 32 5f 74                     	xorb	116(%edi), %bl
c0195a55: 3a 74 28 30                  	cmpb	48(%eax,%ebp), %dh
c0195a59: 2c 36                        	subb	$54, %al
c0195a5b: 29 00                        	subl	%eax, (%eax)
c0195a5d: 75 6e                        	jne	0xc0195acd <.stabstr+0x1acd>
c0195a5f: 73 69                        	jae	0xc0195aca <.stabstr+0x1aca>
c0195a61: 67 6e                        	outsb	(%si), %dx
c0195a63: 65 64 20 69 6e               	andb	%ch, %fs:110(%ecx)
c0195a68: 74 3a                        	je	0xc0195aa4 <.stabstr+0x1aa4>
c0195a6a: 74 28                        	je	0xc0195a94 <.stabstr+0x1a94>
c0195a6c: 30 2c 37                     	xorb	%ch, (%edi,%esi)
c0195a6f: 29 00                        	subl	%eax, (%eax)
c0195a71: 75 69                        	jne	0xc0195adc <.stabstr+0x1adc>
c0195a73: 6e                           	outsb	(%esi), %dx
c0195a74: 74 38                        	je	0xc0195aae <.stabstr+0x1aae>
c0195a76: 5f                           	popl	%edi
c0195a77: 74 3a                        	je	0xc0195ab3 <.stabstr+0x1ab3>
c0195a79: 74 28                        	je	0xc0195aa3 <.stabstr+0x1aa3>
c0195a7b: 30 2c 31                     	xorb	%ch, (%ecx,%esi)
c0195a7e: 31 29                        	xorl	%ebp, (%ecx)
c0195a80: 00 75 6e                     	addb	%dh, 110(%ebp)
c0195a83: 73 69                        	jae	0xc0195aee <.stabstr+0x1aee>
c0195a85: 67 6e                        	outsb	(%si), %dx
c0195a87: 65 64 20 63 68               	andb	%ah, %fs:104(%ebx)
c0195a8c: 61                           	popal
c0195a8d: 72 3a                        	jb	0xc0195ac9 <.stabstr+0x1ac9>
c0195a8f: 74 28                        	je	0xc0195ab9 <.stabstr+0x1ab9>
c0195a91: 30 2c 31                     	xorb	%ch, (%ecx,%esi)
c0195a94: 32 29                        	xorb	(%ecx), %ch
c0195a96: 00 75 69                     	addb	%dh, 105(%ebp)
c0195a99: 6e                           	outsb	(%esi), %dx
c0195a9a: 74 31                        	je	0xc0195acd <.stabstr+0x1acd>
c0195a9c: 36 5f                        	popl	%edi
c0195a9e: 74 3a                        	je	0xc0195ada <.stabstr+0x1ada>
c0195aa0: 74 28                        	je	0xc0195aca <.stabstr+0x1aca>
c0195aa2: 30 2c 31                     	xorb	%ch, (%ecx,%esi)
c0195aa5: 33 29                        	xorl	(%ecx), %ebp
c0195aa7: 00 73 68                     	addb	%dh, 104(%ebx)
c0195aaa: 6f                           	outsl	(%esi), %dx
c0195aab: 72 74                        	jb	0xc0195b21 <.stabstr+0x1b21>
c0195aad: 20 75 6e                     	andb	%dh, 110(%ebp)
c0195ab0: 73 69                        	jae	0xc0195b1b <.stabstr+0x1b1b>
c0195ab2: 67 6e                        	outsb	(%si), %dx
c0195ab4: 65 64 20 69 6e               	andb	%ch, %fs:110(%ecx)
c0195ab9: 74 3a                        	je	0xc0195af5 <.stabstr+0x1af5>
c0195abb: 74 28                        	je	0xc0195ae5 <.stabstr+0x1ae5>
c0195abd: 30 2c 31                     	xorb	%ch, (%ecx,%esi)
c0195ac0: 34 29                        	xorb	$41, %al
c0195ac2: 00 64 65 62                  	addb	%ah, 98(%ebp,%eiz,2)
c0195ac6: 75 67                        	jne	0xc0195b2f <.stabstr+0x1b2f>
c0195ac8: 5f                           	popl	%edi
c0195ac9: 69 6e 69 74 3a 46 28         	imull	$675691124, 105(%esi), %ebp
c0195ad0: 30 2c 31                     	xorb	%ch, (%ecx,%esi)
c0195ad3: 35 29 3d 28 30               	xorl	$807943465, %eax
c0195ad8: 2c 31                        	subb	$49, %al
c0195ada: 35 29 00 76 6f               	xorl	$1870004265, %eax
c0195adf: 69 64 3a 74 28 30 2c 31      	imull	$824979496, 116(%edx,%edi), %esp
c0195ae7: 35 29 00 70 61               	xorl	$1634730025, %eax
c0195aec: 6e                           	outsb	(%esi), %dx
c0195aed: 69 63 3a 46 28 30 2c         	imull	$741353542, 58(%ebx), %esp
c0195af4: 31 35 29 00 6d 73            	xorl	%esi, 1936523305
c0195afa: 67 3a 70 28                  	cmpb	40(%bx,%si), %dh
c0195afe: 30 2c 38                     	xorb	%ch, (%eax,%edi)
c0195b01: 29 00                        	subl	%eax, (%eax)
c0195b03: 65 62 70 3a                  	bound	%esi, %gs:58(%eax)
c0195b07: 28 30                        	subb	%dh, (%eax)
c0195b09: 2c 31                        	subb	$49, %al
c0195b0b: 36 29 3d 2a 28 30 2c         	subl	%edi, %ss:741353514
c0195b12: 36 29 00                     	subl	%eax, %ss:(%eax)
c0195b15: 65 69 70 3a 28 30 2c 31      	imull	$824979496, %gs:58(%eax), %esi
c0195b1d: 36 29 00                     	subl	%eax, %ss:(%eax)
c0195b20: 70 72                        	jo	0xc0195b94 <.stabstr+0x1b94>
c0195b22: 69 6e 74 5f 73 72 65         	imull	$1701999455, 116(%esi), %ebp
c0195b29: 67 3a 46 28                  	cmpb	40(%bp), %al
c0195b2d: 30 2c 31                     	xorb	%ch, (%ecx,%esi)
c0195b30: 35 29 00 72 6f               	xorl	$1869742121, %eax
c0195b35: 75 6e                        	jne	0xc0195ba5 <.stabstr+0x1ba5>
c0195b37: 64 3a 56 28                  	cmpb	%fs:40(%esi), %dl
c0195b3b: 30 2c 31                     	xorb	%ch, (%ecx,%esi)
c0195b3e: 37                           	aaa
c0195b3f: 29 3d 72 28 30 2c            	subl	%edi, 741353586
c0195b45: 31 37                        	xorl	%esi, (%edi)
c0195b47: 29 3b                        	subl	%edi, (%ebx)
c0195b49: 2d 32 31 34 37               	subl	$926167346, %eax
c0195b4e: 34 38                        	xorb	$56, %al
c0195b50: 33 36                        	xorl	(%esi), %esi
c0195b52: 34 38                        	xorb	$56, %al
c0195b54: 3b 32                        	cmpl	(%edx), %esi
c0195b56: 31 34 37                     	xorl	%esi, (%edi,%esi)
c0195b59: 34 38                        	xorb	$56, %al
c0195b5b: 33 36                        	xorl	(%esi), %esi
c0195b5d: 34 37                        	xorb	$55, %al
c0195b5f: 3b 00                        	cmpl	(%eax), %eax
c0195b61: 69 6e 74 3a 74 28 30         	imull	$807957562, 116(%esi), %ebp
c0195b68: 2c 31                        	subb	$49, %al
c0195b6a: 37                           	aaa
c0195b6b: 29 00                        	subl	%eax, (%eax)
c0195b6d: 63 73 3a                     	arpl	%si, 58(%ebx)
c0195b70: 28 30                        	subb	%dh, (%eax)
c0195b72: 2c 31                        	subb	$49, %al
c0195b74: 33 29                        	xorl	(%ecx), %ebp
c0195b76: 00 64 73 3a                  	addb	%ah, 58(%ebx,%esi,2)
c0195b7a: 28 30                        	subb	%dh, (%eax)
c0195b7c: 2c 31                        	subb	$49, %al
c0195b7e: 33 29                        	xorl	(%ecx), %ebp
c0195b80: 00 65 73                     	addb	%ah, 115(%ebp)
c0195b83: 3a 28                        	cmpb	(%eax), %ch
c0195b85: 30 2c 31                     	xorb	%ch, (%ecx,%esi)
c0195b88: 33 29                        	xorl	(%ecx), %ebp
c0195b8a: 00 73 73                     	addb	%dh, 115(%ebx)
c0195b8d: 3a 28                        	cmpb	(%eax), %ch
c0195b8f: 30 2c 31                     	xorb	%ch, (%ecx,%esi)
c0195b92: 33 29                        	xorl	(%ecx), %ebp
c0195b94: 00 70 72                     	addb	%dh, 114(%eax)
c0195b97: 69 6e 74 5f 6d 6d 5f         	imull	$1601006943, 116(%esi), %ebp
c0195b9e: 6d                           	insl	%dx, %es:(%edi)
c0195b9f: 61                           	popal
c0195ba0: 70 3a                        	jo	0xc0195bdc <.stabstr+0x1bdc>
c0195ba2: 46                           	incl	%esi
c0195ba3: 28 30                        	subb	%dh, (%eax)
c0195ba5: 2c 31                        	subb	$49, %al
c0195ba7: 35 29 00 6d 6d               	xorl	$1835860009, %eax
c0195bac: 61                           	popal
c0195bad: 70 5f                        	jo	0xc0195c0e <.stabstr+0x1c0e>
c0195baf: 65 6e                        	outsb	%gs:(%esi), %dx
c0195bb1: 74 72                        	je	0xc0195c25 <.stabstr+0x1c25>
c0195bb3: 79 5f                        	jns	0xc0195c14 <.stabstr+0x1c14>
c0195bb5: 74 3a                        	je	0xc0195bf1 <.stabstr+0x1bf1>
c0195bb7: 54                           	pushl	%esp
c0195bb8: 28 30                        	subb	%dh, (%eax)
c0195bba: 2c 31                        	subb	$49, %al
c0195bbc: 38 29                        	cmpb	%ch, (%ecx)
c0195bbe: 3d 73 32 34 73               	cmpl	$1932800627, %eax
c0195bc3: 69 7a 65 3a 28 30 2c         	imull	$741353530, 101(%edx), %edi
c0195bca: 36 29 2c 30                  	subl	%ebp, %ss:(%eax,%esi)
c0195bce: 2c 33                        	subb	$51, %al
c0195bd0: 32 3b                        	xorb	(%ebx), %bh
c0195bd2: 62 61 73                     	bound	%esp, 115(%ecx)
c0195bd5: 65 5f                        	popl	%edi
c0195bd7: 61                           	popal
c0195bd8: 64 64 72 5f                  	jb	0xc0195c3b <.stabstr+0x1c3b>
c0195bdc: 6c                           	insb	%dx, %es:(%edi)
c0195bdd: 6f                           	outsl	(%esi), %dx
c0195bde: 77 3a                        	ja	0xc0195c1a <.stabstr+0x1c1a>
c0195be0: 28 30                        	subb	%dh, (%eax)
c0195be2: 2c 36                        	subb	$54, %al
c0195be4: 29 2c 33                     	subl	%ebp, (%ebx,%esi)
c0195be7: 32 2c 33                     	xorb	(%ebx,%esi), %ch
c0195bea: 32 3b                        	xorb	(%ebx), %bh
c0195bec: 62 61 73                     	bound	%esp, 115(%ecx)
c0195bef: 65 5f                        	popl	%edi
c0195bf1: 61                           	popal
c0195bf2: 64 64 72 5f                  	jb	0xc0195c55 <.stabstr+0x1c55>
c0195bf6: 68 69 67 68 3a               	pushl	$979920745
c0195bfb: 28 30                        	subb	%dh, (%eax)
c0195bfd: 2c 36                        	subb	$54, %al
c0195bff: 29 2c 36                     	subl	%ebp, (%esi,%esi)
c0195c02: 34 2c                        	xorb	$44, %al
c0195c04: 33 32                        	xorl	(%edx), %esi
c0195c06: 3b 6c 65 6e                  	cmpl	110(%ebp,%eiz,2), %ebp
c0195c0a: 67 74 68                     	je	0xc0195c75 <.stabstr+0x1c75>
c0195c0d: 5f                           	popl	%edi
c0195c0e: 6c                           	insb	%dx, %es:(%edi)
c0195c0f: 6f                           	outsl	(%esi), %dx
c0195c10: 77 3a                        	ja	0xc0195c4c <.stabstr+0x1c4c>
c0195c12: 28 30                        	subb	%dh, (%eax)
c0195c14: 2c 36                        	subb	$54, %al
c0195c16: 29 2c 39                     	subl	%ebp, (%ecx,%edi)
c0195c19: 36 2c 33                     	subb	$51, %al
c0195c1c: 32 3b                        	xorb	(%ebx), %bh
c0195c1e: 6c                           	insb	%dx, %es:(%edi)
c0195c1f: 65 6e                        	outsb	%gs:(%esi), %dx
c0195c21: 67 74 68                     	je	0xc0195c8c <.stabstr+0x1c8c>
c0195c24: 5f                           	popl	%edi
c0195c25: 68 69 67 68 3a               	pushl	$979920745
c0195c2a: 28 30                        	subb	%dh, (%eax)
c0195c2c: 2c 36                        	subb	$54, %al
c0195c2e: 29 2c 31                     	subl	%ebp, (%ecx,%esi)
c0195c31: 32 38                        	xorb	(%eax), %bh
c0195c33: 2c 33                        	subb	$51, %al
c0195c35: 32 3b                        	xorb	(%ebx), %bh
c0195c37: 74 79                        	je	0xc0195cb2 <.stabstr+0x1cb2>
c0195c39: 70 65                        	jo	0xc0195ca0 <.stabstr+0x1ca0>
c0195c3b: 3a 28                        	cmpb	(%eax), %ch
c0195c3d: 30 2c 36                     	xorb	%ch, (%esi,%esi)
c0195c40: 29 2c 31                     	subl	%ebp, (%ecx,%esi)
c0195c43: 36 30 2c 33                  	xorb	%ch, %ss:(%ebx,%esi)
c0195c47: 32 3b                        	xorb	(%ebx), %bh
c0195c49: 3b 00                        	cmpl	(%eax), %eax
c0195c4b: 6d                           	insl	%dx, %es:(%edi)
c0195c4c: 6d                           	insl	%dx, %es:(%edi)
c0195c4d: 61                           	popal
c0195c4e: 70 5f                        	jo	0xc0195caf <.stabstr+0x1caf>
c0195c50: 73 74                        	jae	0xc0195cc6 <.stabstr+0x1cc6>
c0195c52: 61                           	popal
c0195c53: 72 74                        	jb	0xc0195cc9 <.stabstr+0x1cc9>
c0195c55: 5f                           	popl	%edi
c0195c56: 61                           	popal
c0195c57: 64 64 72 3a                  	jb	0xc0195c95 <.stabstr+0x1c95>
c0195c5b: 28 30                        	subb	%dh, (%eax)
c0195c5d: 2c 31                        	subb	$49, %al
c0195c5f: 39 29                        	cmpl	%ebp, (%ecx)
c0195c61: 3d 2a 28 30 2c               	cmpl	$741353514, %eax
c0195c66: 32 30                        	xorb	(%eax), %dh
c0195c68: 29 3d 28 30 2c 31            	subl	%edi, 824979496
c0195c6e: 38 29                        	cmpb	%ch, (%ecx)
c0195c70: 00 6d 6d                     	addb	%ch, 109(%ebp)
c0195c73: 61                           	popal
c0195c74: 70 5f                        	jo	0xc0195cd5 <.stabstr+0x1cd5>
c0195c76: 65 6e                        	outsb	%gs:(%esi), %dx
c0195c78: 74 72                        	je	0xc0195cec <.stabstr+0x1cec>
c0195c7a: 79 5f                        	jns	0xc0195cdb <.stabstr+0x1cdb>
c0195c7c: 74 3a                        	je	0xc0195cb8 <.stabstr+0x1cb8>
c0195c7e: 74 28                        	je	0xc0195ca8 <.stabstr+0x1ca8>
c0195c80: 30 2c 32                     	xorb	%ch, (%edx,%esi)
c0195c83: 30 29                        	xorb	%ch, (%ecx)
c0195c85: 00 6d 6d                     	addb	%ch, 109(%ebp)
c0195c88: 61                           	popal
c0195c89: 70 5f                        	jo	0xc0195cea <.stabstr+0x1cea>
c0195c8b: 65 6e                        	outsb	%gs:(%esi), %dx
c0195c8d: 64 5f                        	popl	%edi
c0195c8f: 61                           	popal
c0195c90: 64 64 72 3a                  	jb	0xc0195cce <.stabstr+0x1cce>
c0195c94: 28 30                        	subb	%dh, (%eax)
c0195c96: 2c 31                        	subb	$49, %al
c0195c98: 39 29                        	cmpl	%ebp, (%ecx)
c0195c9a: 00 6d 6d                     	addb	%ch, 109(%ebp)
c0195c9d: 61                           	popal
c0195c9e: 70 3a                        	jo	0xc0195cda <.stabstr+0x1cda>
c0195ca0: 28 30                        	subb	%dh, (%eax)
c0195ca2: 2c 31                        	subb	$49, %al
c0195ca4: 39 29                        	cmpl	%ebp, (%ecx)
c0195ca6: 00 72 6f                     	addb	%dh, 111(%edx)
c0195ca9: 75 6e                        	jne	0xc0195d19 <.stabstr+0x1d19>
c0195cab: 64 3a 56 28                  	cmpb	%fs:40(%esi), %dl
c0195caf: 30 2c 31                     	xorb	%ch, (%ecx,%esi)
c0195cb2: 37                           	aaa
c0195cb3: 29 00                        	subl	%eax, (%eax)
c0195cb5: 6b 65 72 6e                  	imull	$110, 114(%ebp), %esp
c0195cb9: 65 6c                        	insb	%dx, %es:(%edi)
c0195cbb: 2f                           	das
c0195cbc: 65 6c                        	insb	%dx, %es:(%edi)
c0195cbe: 66 2e 63 00                  	arpl	%ax, %cs:(%eax)
c0195cc2: 65 6c                        	insb	%dx, %es:(%edi)
c0195cc4: 66 5f                        	popw	%di
c0195cc6: 66 72 6f                     	jb	0xc0195d38 <.stabstr+0x1d38>
c0195cc9: 6d                           	insl	%dx, %es:(%edi)
c0195cca: 5f                           	popl	%edi
c0195ccb: 6d                           	insl	%dx, %es:(%edi)
c0195ccc: 75 6c                        	jne	0xc0195d3a <.stabstr+0x1d3a>
c0195cce: 74 69                        	je	0xc0195d39 <.stabstr+0x1d39>
c0195cd0: 62 6f 6f                     	bound	%ebp, 111(%edi)
c0195cd3: 74 3a                        	je	0xc0195d0f <.stabstr+0x1d0f>
c0195cd5: 46                           	incl	%esi
c0195cd6: 28 30                        	subb	%dh, (%eax)
c0195cd8: 2c 31                        	subb	$49, %al
c0195cda: 29 3d 28 30 2c 32            	subl	%edi, 841756712
c0195ce0: 29 3d 78 73 65 6c            	subl	%edi, 1818588024
c0195ce6: 66 5f                        	popw	%di
c0195ce8: 74 3a                        	je	0xc0195d24 <.stabstr+0x1d24>
c0195cea: 00 63 68                     	addb	%ah, 104(%ebx)
c0195ced: 61                           	popal
c0195cee: 72 3a                        	jb	0xc0195d2a <.stabstr+0x1d2a>
c0195cf0: 74 28                        	je	0xc0195d1a <.stabstr+0x1d1a>
c0195cf2: 30 2c 33                     	xorb	%ch, (%ebx,%esi)
c0195cf5: 29 3d 72 28 30 2c            	subl	%edi, 741353586
c0195cfb: 33 29                        	xorl	(%ecx), %ebp
c0195cfd: 3b 30                        	cmpl	(%eax), %esi
c0195cff: 3b 31                        	cmpl	(%ecx), %esi
c0195d01: 32 37                        	xorb	(%edi), %dh
c0195d03: 3b 00                        	cmpl	(%eax), %eax
c0195d05: 65 6c                        	insb	%dx, %es:(%edi)
c0195d07: 66 5f                        	popw	%di
c0195d09: 73 65                        	jae	0xc0195d70 <.stabstr+0x1d70>
c0195d0b: 63 74 69 6f                  	arpl	%si, 111(%ecx,%ebp,2)
c0195d0f: 6e                           	outsb	(%esi), %dx
c0195d10: 5f                           	popl	%edi
c0195d11: 68 65 61 64 65               	pushl	$1701077349
c0195d16: 72 5f                        	jb	0xc0195d77 <.stabstr+0x1d77>
c0195d18: 74 3a                        	je	0xc0195d54 <.stabstr+0x1d54>
c0195d1a: 54                           	pushl	%esp
c0195d1b: 28 30                        	subb	%dh, (%eax)
c0195d1d: 2c 34                        	subb	$52, %al
c0195d1f: 29 3d 73 34 30 6e            	subl	%edi, 1848652915
c0195d25: 61                           	popal
c0195d26: 6d                           	insl	%dx, %es:(%edi)
c0195d27: 65 3a 28                     	cmpb	%gs:(%eax), %ch
c0195d2a: 30 2c 35 29 3d 28 30         	xorb	%ch, 807943465(,%esi)
c0195d31: 2c 36                        	subb	$54, %al
c0195d33: 29 3d 72 28 30 2c            	subl	%edi, 741353586
c0195d39: 36 29 3b                     	subl	%edi, %ss:(%ebx)
c0195d3c: 30 3b                        	xorb	%bh, (%ebx)
c0195d3e: 30 33                        	xorb	%dh, (%ebx)
c0195d40: 37                           	aaa
c0195d41: 37                           	aaa
c0195d42: 37                           	aaa
c0195d43: 37                           	aaa
c0195d44: 37                           	aaa
c0195d45: 37                           	aaa
c0195d46: 37                           	aaa
c0195d47: 37                           	aaa
c0195d48: 37                           	aaa
c0195d49: 37                           	aaa
c0195d4a: 3b 2c 30                     	cmpl	(%eax,%esi), %ebp
c0195d4d: 2c 33                        	subb	$51, %al
c0195d4f: 32 3b                        	xorb	(%ebx), %bh
c0195d51: 74 79                        	je	0xc0195dcc <.stabstr+0x1dcc>
c0195d53: 70 65                        	jo	0xc0195dba <.stabstr+0x1dba>
c0195d55: 3a 28                        	cmpb	(%eax), %ch
c0195d57: 30 2c 35 29 2c 33 32         	xorb	%ch, 842214441(,%esi)
c0195d5e: 2c 33                        	subb	$51, %al
c0195d60: 32 3b                        	xorb	(%ebx), %bh
c0195d62: 66 6c                        	insb	%dx, %es:(%edi)
c0195d64: 61                           	popal
c0195d65: 67 73 3a                     	jae	0xc0195da2 <.stabstr+0x1da2>
c0195d68: 28 30                        	subb	%dh, (%eax)
c0195d6a: 2c 35                        	subb	$53, %al
c0195d6c: 29 2c 36                     	subl	%ebp, (%esi,%esi)
c0195d6f: 34 2c                        	xorb	$44, %al
c0195d71: 33 32                        	xorl	(%edx), %esi
c0195d73: 3b 61 64                     	cmpl	100(%ecx), %esp
c0195d76: 64 72 3a                     	jb	0xc0195db3 <.stabstr+0x1db3>
c0195d79: 28 30                        	subb	%dh, (%eax)
c0195d7b: 2c 35                        	subb	$53, %al
c0195d7d: 29 2c 39                     	subl	%ebp, (%ecx,%edi)
c0195d80: 36 2c 33                     	subb	$51, %al
c0195d83: 32 3b                        	xorb	(%ebx), %bh
c0195d85: 6f                           	outsl	(%esi), %dx
c0195d86: 66 66 73 65                  	jae	0xc0195def <.stabstr+0x1def>
c0195d8a: 74 3a                        	je	0xc0195dc6 <.stabstr+0x1dc6>
c0195d8c: 28 30                        	subb	%dh, (%eax)
c0195d8e: 2c 35                        	subb	$53, %al
c0195d90: 29 2c 31                     	subl	%ebp, (%ecx,%esi)
c0195d93: 32 38                        	xorb	(%eax), %bh
c0195d95: 2c 33                        	subb	$51, %al
c0195d97: 32 3b                        	xorb	(%ebx), %bh
c0195d99: 73 69                        	jae	0xc0195e04 <.stabstr+0x1e04>
c0195d9b: 7a 65                        	jp	0xc0195e02 <.stabstr+0x1e02>
c0195d9d: 3a 28                        	cmpb	(%eax), %ch
c0195d9f: 30 2c 35 29 2c 31 36         	xorb	%ch, 909192233(,%esi)
c0195da6: 30 2c 33                     	xorb	%ch, (%ebx,%esi)
c0195da9: 32 3b                        	xorb	(%ebx), %bh
c0195dab: 6c                           	insb	%dx, %es:(%edi)
c0195dac: 69 6e 6b 3a 28 30 2c         	imull	$741353530, 107(%esi), %ebp
c0195db3: 35 29 2c 31 39               	xorl	$959523881, %eax
c0195db8: 32 2c 33                     	xorb	(%ebx,%esi), %ch
c0195dbb: 32 3b                        	xorb	(%ebx), %bh
c0195dbd: 69 6e 66 6f 3a 28 30         	imull	$807942767, 102(%esi), %ebp
c0195dc4: 2c 35                        	subb	$53, %al
c0195dc6: 29 2c 32                     	subl	%ebp, (%edx,%esi)
c0195dc9: 32 34 2c                     	xorb	(%esp,%ebp), %dh
c0195dcc: 33 32                        	xorl	(%edx), %esi
c0195dce: 3b 61 64                     	cmpl	100(%ecx), %esp
c0195dd1: 64 72 61                     	jb	0xc0195e35 <.stabstr+0x1e35>
c0195dd4: 6c                           	insb	%dx, %es:(%edi)
c0195dd5: 69 67 6e 3a 28 30 2c         	imull	$741353530, 110(%edi), %esp
c0195ddc: 35 29 2c 32 35               	xorl	$892480553, %eax
c0195de1: 36 2c 33                     	subb	$51, %al
c0195de4: 32 3b                        	xorb	(%ebx), %bh
c0195de6: 65 6e                        	outsb	%gs:(%esi), %dx
c0195de8: 74 73                        	je	0xc0195e5d <.stabstr+0x1e5d>
c0195dea: 69 7a 65 3a 28 30 2c         	imull	$741353530, 101(%edx), %edi
c0195df1: 35 29 2c 32 38               	xorl	$942812201, %eax
c0195df6: 38 2c 33                     	cmpb	%ch, (%ebx,%esi)
c0195df9: 32 3b                        	xorb	(%ebx), %bh
c0195dfb: 3b 00                        	cmpl	(%eax), %eax
c0195dfd: 65 6c                        	insb	%dx, %es:(%edi)
c0195dff: 66 5f                        	popw	%di
c0195e01: 73 79                        	jae	0xc0195e7c <.stabstr+0x1e7c>
c0195e03: 6d                           	insl	%dx, %es:(%edi)
c0195e04: 62 6f 6c                     	bound	%ebp, 108(%edi)
c0195e07: 5f                           	popl	%edi
c0195e08: 74 3a                        	je	0xc0195e44 <.stabstr+0x1e44>
c0195e0a: 54                           	pushl	%esp
c0195e0b: 28 30                        	subb	%dh, (%eax)
c0195e0d: 2c 37                        	subb	$55, %al
c0195e0f: 29 3d 73 31 36 6e            	subl	%edi, 1849045363
c0195e15: 61                           	popal
c0195e16: 6d                           	insl	%dx, %es:(%edi)
c0195e17: 65 3a 28                     	cmpb	%gs:(%eax), %ch
c0195e1a: 30 2c 35 29 2c 30 2c         	xorb	%ch, 741354537(,%esi)
c0195e21: 33 32                        	xorl	(%edx), %esi
c0195e23: 3b 76 61                     	cmpl	97(%esi), %esi
c0195e26: 6c                           	insb	%dx, %es:(%edi)
c0195e27: 75 65                        	jne	0xc0195e8e <.stabstr+0x1e8e>
c0195e29: 3a 28                        	cmpb	(%eax), %ch
c0195e2b: 30 2c 35 29 2c 33 32         	xorb	%ch, 842214441(,%esi)
c0195e32: 2c 33                        	subb	$51, %al
c0195e34: 32 3b                        	xorb	(%ebx), %bh
c0195e36: 73 69                        	jae	0xc0195ea1 <.stabstr+0x1ea1>
c0195e38: 7a 65                        	jp	0xc0195e9f <.stabstr+0x1e9f>
c0195e3a: 3a 28                        	cmpb	(%eax), %ch
c0195e3c: 30 2c 35 29 2c 36 34         	xorb	%ch, 875965481(,%esi)
c0195e43: 2c 33                        	subb	$51, %al
c0195e45: 32 3b                        	xorb	(%ebx), %bh
c0195e47: 69 6e 66 6f 3a 28 30         	imull	$807942767, 102(%esi), %ebp
c0195e4e: 2c 38                        	subb	$56, %al
c0195e50: 29 3d 28 30 2c 39            	subl	%edi, 959197224
c0195e56: 29 3d 40 73 38 3b            	subl	%edi, 993555264
c0195e5c: 72 28                        	jb	0xc0195e86 <.stabstr+0x1e86>
c0195e5e: 30 2c 39                     	xorb	%ch, (%ecx,%edi)
c0195e61: 29 3b                        	subl	%edi, (%ebx)
c0195e63: 30 3b                        	xorb	%bh, (%ebx)
c0195e65: 32 35 35 3b 2c 39            	xorb	959200053, %dh
c0195e6b: 36 2c 38                     	subb	$56, %al
c0195e6e: 3b 6f 74                     	cmpl	116(%edi), %ebp
c0195e71: 68 65 72 3a 28               	pushl	$674919013
c0195e76: 30 2c 38                     	xorb	%ch, (%eax,%edi)
c0195e79: 29 2c 31                     	subl	%ebp, (%ecx,%esi)
c0195e7c: 30 34 2c                     	xorb	%dh, (%esp,%ebp)
c0195e7f: 38 3b                        	cmpb	%bh, (%ebx)
c0195e81: 73 68                        	jae	0xc0195eeb <.stabstr+0x1eeb>
c0195e83: 6e                           	outsb	(%esi), %dx
c0195e84: 64 78 3a                     	js	0xc0195ec1 <.stabstr+0x1ec1>
c0195e87: 28 30                        	subb	%dh, (%eax)
c0195e89: 2c 31                        	subb	$49, %al
c0195e8b: 30 29                        	xorb	%ch, (%ecx)
c0195e8d: 3d 28 30 2c 31               	cmpl	$824979496, %eax
c0195e92: 31 29                        	xorl	%ebp, (%ecx)
c0195e94: 3d 40 73 31 36               	cmpl	$909210432, %eax
c0195e99: 3b 72 28                     	cmpl	40(%edx), %esi
c0195e9c: 30 2c 31                     	xorb	%ch, (%ecx,%esi)
c0195e9f: 31 29                        	xorl	%ebp, (%ecx)
c0195ea1: 3b 30                        	cmpl	(%eax), %esi
c0195ea3: 3b 36                        	cmpl	(%esi), %esi
c0195ea5: 35 35 33 35 3b               	xorl	$993342261, %eax
c0195eaa: 2c 31                        	subb	$49, %al
c0195eac: 31 32                        	xorl	%esi, (%edx)
c0195eae: 2c 31                        	subb	$49, %al
c0195eb0: 36 3b 3b                     	cmpl	%ss:(%ebx), %edi
c0195eb3: 00 65 6c                     	addb	%ah, 108(%ebp)
c0195eb6: 66 5f                        	popw	%di
c0195eb8: 74 3a                        	je	0xc0195ef4 <.stabstr+0x1ef4>
c0195eba: 54                           	pushl	%esp
c0195ebb: 28 30                        	subb	%dh, (%eax)
c0195ebd: 2c 32                        	subb	$50, %al
c0195ebf: 29 3d 73 31 36 73            	subl	%edi, 1932931443
c0195ec5: 79 6d                        	jns	0xc0195f34 <.stabstr+0x1f34>
c0195ec7: 74 61                        	je	0xc0195f2a <.stabstr+0x1f2a>
c0195ec9: 62 3a                        	bound	%edi, (%edx)
c0195ecb: 28 30                        	subb	%dh, (%eax)
c0195ecd: 2c 31                        	subb	$49, %al
c0195ecf: 32 29                        	xorb	(%ecx), %ch
c0195ed1: 3d 2a 28 30 2c               	cmpl	$741353514, %eax
c0195ed6: 31 33                        	xorl	%esi, (%ebx)
c0195ed8: 29 3d 28 30 2c 37            	subl	%edi, 925642792
c0195ede: 29 2c 30                     	subl	%ebp, (%eax,%esi)
c0195ee1: 2c 33                        	subb	$51, %al
c0195ee3: 32 3b                        	xorb	(%ebx), %bh
c0195ee5: 73 79                        	jae	0xc0195f60 <.stabstr+0x1f60>
c0195ee7: 6d                           	insl	%dx, %es:(%edi)
c0195ee8: 74 61                        	je	0xc0195f4b <.stabstr+0x1f4b>
c0195eea: 62 73 7a                     	bound	%esi, 122(%ebx)
c0195eed: 3a 28                        	cmpb	(%eax), %ch
c0195eef: 30 2c 35 29 2c 33 32         	xorb	%ch, 842214441(,%esi)
c0195ef6: 2c 33                        	subb	$51, %al
c0195ef8: 32 3b                        	xorb	(%ebx), %bh
c0195efa: 73 74                        	jae	0xc0195f70 <.stabstr+0x1f70>
c0195efc: 72 74                        	jb	0xc0195f72 <.stabstr+0x1f72>
c0195efe: 61                           	popal
c0195eff: 62 3a                        	bound	%edi, (%edx)
c0195f01: 28 30                        	subb	%dh, (%eax)
c0195f03: 2c 31                        	subb	$49, %al
c0195f05: 34 29                        	xorb	$41, %al
c0195f07: 3d 2a 28 30 2c               	cmpl	$741353514, %eax
c0195f0c: 31 35 29 3d 6b 28            	xorl	%esi, 678116649
c0195f12: 30 2c 33                     	xorb	%ch, (%ebx,%esi)
c0195f15: 29 2c 36                     	subl	%ebp, (%esi,%esi)
c0195f18: 34 2c                        	xorb	$44, %al
c0195f1a: 33 32                        	xorl	(%edx), %esi
c0195f1c: 3b 73 74                     	cmpl	116(%ebx), %esi
c0195f1f: 72 74                        	jb	0xc0195f95 <.stabstr+0x1f95>
c0195f21: 61                           	popal
c0195f22: 62 73 7a                     	bound	%esi, 122(%ebx)
c0195f25: 3a 28                        	cmpb	(%eax), %ch
c0195f27: 30 2c 35 29 2c 39 36         	xorb	%ch, 909716521(,%esi)
c0195f2e: 2c 33                        	subb	$51, %al
c0195f30: 32 3b                        	xorb	(%ebx), %bh
c0195f32: 3b 00                        	cmpl	(%eax), %eax
c0195f34: 75 69                        	jne	0xc0195f9f <.stabstr+0x1f9f>
c0195f36: 6e                           	outsb	(%esi), %dx
c0195f37: 74 31                        	je	0xc0195f6a <.stabstr+0x1f6a>
c0195f39: 36 5f                        	popl	%edi
c0195f3b: 74 3a                        	je	0xc0195f77 <.stabstr+0x1f77>
c0195f3d: 74 28                        	je	0xc0195f67 <.stabstr+0x1f67>
c0195f3f: 30 2c 31                     	xorb	%ch, (%ecx,%esi)
c0195f42: 30 29                        	xorb	%ch, (%ecx)
c0195f44: 00 73 68                     	addb	%dh, 104(%ebx)
c0195f47: 6f                           	outsl	(%esi), %dx
c0195f48: 72 74                        	jb	0xc0195fbe <.stabstr+0x1fbe>
c0195f4a: 20 75 6e                     	andb	%dh, 110(%ebp)
c0195f4d: 73 69                        	jae	0xc0195fb8 <.stabstr+0x1fb8>
c0195f4f: 67 6e                        	outsb	(%si), %dx
c0195f51: 65 64 20 69 6e               	andb	%ch, %fs:110(%ecx)
c0195f56: 74 3a                        	je	0xc0195f92 <.stabstr+0x1f92>
c0195f58: 74 28                        	je	0xc0195f82 <.stabstr+0x1f82>
c0195f5a: 30 2c 31                     	xorb	%ch, (%ecx,%esi)
c0195f5d: 31 29                        	xorl	%ebp, (%ecx)
c0195f5f: 00 6d 62                     	addb	%ch, 98(%ebp)
c0195f62: 3a 70 28                     	cmpb	40(%eax), %dh
c0195f65: 30 2c 31                     	xorb	%ch, (%ecx,%esi)
c0195f68: 36 29 3d 2a 28 30 2c         	subl	%edi, %ss:741353514
c0195f6f: 31 37                        	xorl	%esi, (%edi)
c0195f71: 29 3d 28 30 2c 31            	subl	%edi, 824979496
c0195f77: 38 29                        	cmpb	%ch, (%ecx)
c0195f79: 3d 78 73 6d 75               	cmpl	$1970107256, %eax
c0195f7e: 6c                           	insb	%dx, %es:(%edi)
c0195f7f: 74 69                        	je	0xc0195fea <.stabstr+0x1fea>
c0195f81: 62 6f 6f                     	bound	%ebp, 111(%edi)
c0195f84: 74 5f                        	je	0xc0195fe5 <.stabstr+0x1fe5>
c0195f86: 74 3a                        	je	0xc0195fc2 <.stabstr+0x1fc2>
c0195f88: 00 6d 75                     	addb	%ch, 117(%ebp)
c0195f8b: 6c                           	insb	%dx, %es:(%edi)
c0195f8c: 74 69                        	je	0xc0195ff7 <.stabstr+0x1ff7>
c0195f8e: 62 6f 6f                     	bound	%ebp, 111(%edi)
c0195f91: 74 5f                        	je	0xc0195ff2 <.stabstr+0x1ff2>
c0195f93: 74 3a                        	je	0xc0195fcf <.stabstr+0x1fcf>
c0195f95: 54                           	pushl	%esp
c0195f96: 28 30                        	subb	%dh, (%eax)
c0195f98: 2c 31                        	subb	$49, %al
c0195f9a: 38 29                        	cmpb	%ch, (%ecx)
c0195f9c: 3d 73 39 36 66               	cmpl	$1714829683, %eax
c0195fa1: 6c                           	insb	%dx, %es:(%edi)
c0195fa2: 61                           	popal
c0195fa3: 67 73 3a                     	jae	0xc0195fe0 <.stabstr+0x1fe0>
c0195fa6: 28 30                        	subb	%dh, (%eax)
c0195fa8: 2c 35                        	subb	$53, %al
c0195faa: 29 2c 30                     	subl	%ebp, (%eax,%esi)
c0195fad: 2c 33                        	subb	$51, %al
c0195faf: 32 3b                        	xorb	(%ebx), %bh
c0195fb1: 6d                           	insl	%dx, %es:(%edi)
c0195fb2: 65 6d                        	insl	%dx, %es:(%edi)
c0195fb4: 5f                           	popl	%edi
c0195fb5: 6c                           	insb	%dx, %es:(%edi)
c0195fb6: 6f                           	outsl	(%esi), %dx
c0195fb7: 77 65                        	ja	0xc019601e <.stabstr+0x201e>
c0195fb9: 72 3a                        	jb	0xc0195ff5 <.stabstr+0x1ff5>
c0195fbb: 28 30                        	subb	%dh, (%eax)
c0195fbd: 2c 35                        	subb	$53, %al
c0195fbf: 29 2c 33                     	subl	%ebp, (%ebx,%esi)
c0195fc2: 32 2c 33                     	xorb	(%ebx,%esi), %ch
c0195fc5: 32 3b                        	xorb	(%ebx), %bh
c0195fc7: 6d                           	insl	%dx, %es:(%edi)
c0195fc8: 65 6d                        	insl	%dx, %es:(%edi)
c0195fca: 5f                           	popl	%edi
c0195fcb: 75 70                        	jne	0xc019603d <.stabstr+0x203d>
c0195fcd: 70 65                        	jo	0xc0196034 <.stabstr+0x2034>
c0195fcf: 72 3a                        	jb	0xc019600b <.stabstr+0x200b>
c0195fd1: 28 30                        	subb	%dh, (%eax)
c0195fd3: 2c 35                        	subb	$53, %al
c0195fd5: 29 2c 36                     	subl	%ebp, (%esi,%esi)
c0195fd8: 34 2c                        	xorb	$44, %al
c0195fda: 33 32                        	xorl	(%edx), %esi
c0195fdc: 3b 62 6f                     	cmpl	111(%edx), %esp
c0195fdf: 6f                           	outsl	(%esi), %dx
c0195fe0: 74 5f                        	je	0xc0196041 <.stabstr+0x2041>
c0195fe2: 64 65 76 69                  	jbe	0xc019604f <.stabstr+0x204f>
c0195fe6: 63 65 3a                     	arpl	%sp, 58(%ebp)
c0195fe9: 28 30                        	subb	%dh, (%eax)
c0195feb: 2c 35                        	subb	$53, %al
c0195fed: 29 2c 39                     	subl	%ebp, (%ecx,%edi)
c0195ff0: 36 2c 33                     	subb	$51, %al
c0195ff3: 32 3b                        	xorb	(%ebx), %bh
c0195ff5: 63 6d 64                     	arpl	%bp, 100(%ebp)
c0195ff8: 6c                           	insb	%dx, %es:(%edi)
c0195ff9: 69 6e 65 3a 28 30 2c         	imull	$741353530, 101(%esi), %ebp
c0196000: 35 29 2c 31 32               	xorl	$842083369, %eax
c0196005: 38 2c 33                     	cmpb	%ch, (%ebx,%esi)
c0196008: 32 3b                        	xorb	(%ebx), %bh
c019600a: 6d                           	insl	%dx, %es:(%edi)
c019600b: 6f                           	outsl	(%esi), %dx
c019600c: 64 73 5f                     	jae	0xc019606e <.stabstr+0x206e>
c019600f: 63 6f 75                     	arpl	%bp, 117(%edi)
c0196012: 6e                           	outsb	(%esi), %dx
c0196013: 74 3a                        	je	0xc019604f <.stabstr+0x204f>
c0196015: 28 30                        	subb	%dh, (%eax)
c0196017: 2c 35                        	subb	$53, %al
c0196019: 29 2c 31                     	subl	%ebp, (%ecx,%esi)
c019601c: 36 30 2c 33                  	xorb	%ch, %ss:(%ebx,%esi)
c0196020: 32 3b                        	xorb	(%ebx), %bh
c0196022: 6d                           	insl	%dx, %es:(%edi)
c0196023: 6f                           	outsl	(%esi), %dx
c0196024: 64 73 5f                     	jae	0xc0196086 <.stabstr+0x2086>
c0196027: 61                           	popal
c0196028: 64 64 72 3a                  	jb	0xc0196066 <.stabstr+0x2066>
c019602c: 28 30                        	subb	%dh, (%eax)
c019602e: 2c 35                        	subb	$53, %al
c0196030: 29 2c 31                     	subl	%ebp, (%ecx,%esi)
c0196033: 39 32                        	cmpl	%esi, (%edx)
c0196035: 2c 33                        	subb	$51, %al
c0196037: 32 3b                        	xorb	(%ebx), %bh
c0196039: 6e                           	outsb	(%esi), %dx
c019603a: 75 6d                        	jne	0xc01960a9 <.stabstr+0x20a9>
c019603c: 3a 28                        	cmpb	(%eax), %ch
c019603e: 30 2c 35 29 2c 32 32         	xorb	%ch, 842148905(,%esi)
c0196045: 34 2c                        	xorb	$44, %al
c0196047: 33 32                        	xorl	(%edx), %esi
c0196049: 3b 73 69                     	cmpl	105(%ebx), %esi
c019604c: 7a 65                        	jp	0xc01960b3 <.stabstr+0x20b3>
c019604e: 3a 28                        	cmpb	(%eax), %ch
c0196050: 30 2c 35 29 2c 32 35         	xorb	%ch, 892480553(,%esi)
c0196057: 36 2c 33                     	subb	$51, %al
c019605a: 32 3b                        	xorb	(%ebx), %bh
c019605c: 61                           	popal
c019605d: 64 64 72 3a                  	jb	0xc019609b <.stabstr+0x209b>
c0196061: 28 30                        	subb	%dh, (%eax)
c0196063: 2c 35                        	subb	$53, %al
c0196065: 29 2c 32                     	subl	%ebp, (%edx,%esi)
c0196068: 38 38                        	cmpb	%bh, (%eax)
c019606a: 2c 33                        	subb	$51, %al
c019606c: 32 3b                        	xorb	(%ebx), %bh
c019606e: 73 68                        	jae	0xc01960d8 <.stabstr+0x20d8>
c0196070: 6e                           	outsb	(%esi), %dx
c0196071: 64 78 3a                     	js	0xc01960ae <.stabstr+0x20ae>
c0196074: 28 30                        	subb	%dh, (%eax)
c0196076: 2c 35                        	subb	$53, %al
c0196078: 29 2c 33                     	subl	%ebp, (%ebx,%esi)
c019607b: 32 30                        	xorb	(%eax), %dh
c019607d: 2c 33                        	subb	$51, %al
c019607f: 32 3b                        	xorb	(%ebx), %bh
c0196081: 6d                           	insl	%dx, %es:(%edi)
c0196082: 6d                           	insl	%dx, %es:(%edi)
c0196083: 61                           	popal
c0196084: 70 5f                        	jo	0xc01960e5 <.stabstr+0x20e5>
c0196086: 6c                           	insb	%dx, %es:(%edi)
c0196087: 65 6e                        	outsb	%gs:(%esi), %dx
c0196089: 67 74 68                     	je	0xc01960f4 <.stabstr+0x20f4>
c019608c: 3a 28                        	cmpb	(%eax), %ch
c019608e: 30 2c 35 29 2c 33 35         	xorb	%ch, 892546089(,%esi)
c0196095: 32 2c 33                     	xorb	(%ebx,%esi), %ch
c0196098: 32 3b                        	xorb	(%ebx), %bh
c019609a: 6d                           	insl	%dx, %es:(%edi)
c019609b: 6d                           	insl	%dx, %es:(%edi)
c019609c: 61                           	popal
c019609d: 70 5f                        	jo	0xc01960fe <.stabstr+0x20fe>
c019609f: 61                           	popal
c01960a0: 64 64 72 3a                  	jb	0xc01960de <.stabstr+0x20de>
c01960a4: 28 30                        	subb	%dh, (%eax)
c01960a6: 2c 35                        	subb	$53, %al
c01960a8: 29 2c 33                     	subl	%ebp, (%ebx,%esi)
c01960ab: 38 34 2c                     	cmpb	%dh, (%esp,%ebp)
c01960ae: 33 32                        	xorl	(%edx), %esi
c01960b0: 3b 64 72 69                  	cmpl	105(%edx,%esi,2), %esp
c01960b4: 76 65                        	jbe	0xc019611b <.stabstr+0x211b>
c01960b6: 73 5f                        	jae	0xc0196117 <.stabstr+0x2117>
c01960b8: 6c                           	insb	%dx, %es:(%edi)
c01960b9: 65 6e                        	outsb	%gs:(%esi), %dx
c01960bb: 67 74 68                     	je	0xc0196126 <.stabstr+0x2126>
c01960be: 3a 28                        	cmpb	(%eax), %ch
c01960c0: 30 2c 35 29 2c 34 31         	xorb	%ch, 825502761(,%esi)
c01960c7: 36 2c 33                     	subb	$51, %al
c01960ca: 32 3b                        	xorb	(%ebx), %bh
c01960cc: 64 72 69                     	jb	0xc0196138 <.stabstr+0x2138>
c01960cf: 76 65                        	jbe	0xc0196136 <.stabstr+0x2136>
c01960d1: 73 5f                        	jae	0xc0196132 <.stabstr+0x2132>
c01960d3: 61                           	popal
c01960d4: 64 64 72 3a                  	jb	0xc0196112 <.stabstr+0x2112>
c01960d8: 28 30                        	subb	%dh, (%eax)
c01960da: 2c 35                        	subb	$53, %al
c01960dc: 29 2c 34                     	subl	%ebp, (%esp,%esi)
c01960df: 34 38                        	xorb	$56, %al
c01960e1: 2c 33                        	subb	$51, %al
c01960e3: 32 3b                        	xorb	(%ebx), %bh
c01960e5: 63 6f 6e                     	arpl	%bp, 110(%edi)
c01960e8: 66 69 67 5f 74 61            	imulw	$24948, 95(%edi), %sp
c01960ee: 62 6c 65 3a                  	bound	%ebp, 58(%ebp,%eiz,2)
c01960f2: 28 30                        	subb	%dh, (%eax)
c01960f4: 2c 35                        	subb	$53, %al
c01960f6: 29 2c 34                     	subl	%ebp, (%esp,%esi)
c01960f9: 38 30                        	cmpb	%dh, (%eax)
c01960fb: 2c 33                        	subb	$51, %al
c01960fd: 32 3b                        	xorb	(%ebx), %bh
c01960ff: 62 6f 6f                     	bound	%ebp, 111(%edi)
c0196102: 74 5f                        	je	0xc0196163 <.stabstr+0x2163>
c0196104: 6c                           	insb	%dx, %es:(%edi)
c0196105: 6f                           	outsl	(%esi), %dx
c0196106: 61                           	popal
c0196107: 64 65 72 5f                  	jb	0xc019616a <.stabstr+0x216a>
c019610b: 6e                           	outsb	(%esi), %dx
c019610c: 61                           	popal
c019610d: 6d                           	insl	%dx, %es:(%edi)
c019610e: 65 3a 28                     	cmpb	%gs:(%eax), %ch
c0196111: 30 2c 35 29 2c 35 31         	xorb	%ch, 825568297(,%esi)
c0196118: 32 2c 33                     	xorb	(%ebx,%esi), %ch
c019611b: 32 3b                        	xorb	(%ebx), %bh
c019611d: 61                           	popal
c019611e: 70 6d                        	jo	0xc019618d <.stabstr+0x218d>
c0196120: 5f                           	popl	%edi
c0196121: 74 61                        	je	0xc0196184 <.stabstr+0x2184>
c0196123: 62 6c 65 3a                  	bound	%ebp, 58(%ebp,%eiz,2)
c0196127: 28 30                        	subb	%dh, (%eax)
c0196129: 2c 35                        	subb	$53, %al
c019612b: 29 2c 35 34 34 2c 33         	subl	%ebp, 858534964(,%esi)
c0196132: 32 3b                        	xorb	(%ebx), %bh
c0196134: 76 62                        	jbe	0xc0196198 <.stabstr+0x2198>
c0196136: 65 5f                        	popl	%edi
c0196138: 63 6f 6e                     	arpl	%bp, 110(%edi)
c019613b: 74 72                        	je	0xc01961af <.stabstr+0x21af>
c019613d: 6f                           	outsl	(%esi), %dx
c019613e: 6c                           	insb	%dx, %es:(%edi)
c019613f: 5f                           	popl	%edi
c0196140: 69 6e 66 6f 3a 28 30         	imull	$807942767, 102(%esi), %ebp
c0196147: 2c 35                        	subb	$53, %al
c0196149: 29 2c 35 37 36 2c 33         	subl	%ebp, 858535479(,%esi)
c0196150: 32 3b                        	xorb	(%ebx), %bh
c0196152: 76 62                        	jbe	0xc01961b6 <.stabstr+0x21b6>
c0196154: 65 5f                        	popl	%edi
c0196156: 6d                           	insl	%dx, %es:(%edi)
c0196157: 6f                           	outsl	(%esi), %dx
c0196158: 64 65 5f                     	popl	%edi
c019615b: 69 6e 66 6f 3a 28 30         	imull	$807942767, 102(%esi), %ebp
c0196162: 2c 35                        	subb	$53, %al
c0196164: 29 2c 36                     	subl	%ebp, (%esi,%esi)
c0196167: 30 38                        	xorb	%bh, (%eax)
c0196169: 2c 33                        	subb	$51, %al
c019616b: 32 3b                        	xorb	(%ebx), %bh
c019616d: 76 62                        	jbe	0xc01961d1 <.stabstr+0x21d1>
c019616f: 65 5f                        	popl	%edi
c0196171: 6d                           	insl	%dx, %es:(%edi)
c0196172: 6f                           	outsl	(%esi), %dx
c0196173: 64 65 3a 28                  	cmpb	%gs:(%eax), %ch
c0196177: 30 2c 35 29 2c 36 34         	xorb	%ch, 875965481(,%esi)
c019617e: 30 2c 33                     	xorb	%ch, (%ebx,%esi)
c0196181: 32 3b                        	xorb	(%ebx), %bh
c0196183: 76 62                        	jbe	0xc01961e7 <.stabstr+0x21e7>
c0196185: 65 5f                        	popl	%edi
c0196187: 69 6e 74 65 72 66 61         	imull	$1634103909, 116(%esi), %ebp
c019618e: 63 65 5f                     	arpl	%sp, 95(%ebp)
c0196191: 73 65                        	jae	0xc01961f8 <.stabstr+0x21f8>
c0196193: 67 3a 28                     	cmpb	(%bx,%si), %ch
c0196196: 30 2c 35 29 2c 36 37         	xorb	%ch, 926297129(,%esi)
c019619d: 32 2c 33                     	xorb	(%ebx,%esi), %ch
c01961a0: 32 3b                        	xorb	(%ebx), %bh
c01961a2: 76 62                        	jbe	0xc0196206 <.stabstr+0x2206>
c01961a4: 65 5f                        	popl	%edi
c01961a6: 69 6e 74 65 72 66 61         	imull	$1634103909, 116(%esi), %ebp
c01961ad: 63 65 5f                     	arpl	%sp, 95(%ebp)
c01961b0: 6f                           	outsl	(%esi), %dx
c01961b1: 66 66 3a 28                  	cmpb	(%eax), %ch
c01961b5: 30 2c 35 29 2c 37 30         	xorb	%ch, 808922153(,%esi)
c01961bc: 34 2c                        	xorb	$44, %al
c01961be: 33 32                        	xorl	(%edx), %esi
c01961c0: 3b 76 62                     	cmpl	98(%esi), %esi
c01961c3: 65 5f                        	popl	%edi
c01961c5: 69 6e 74 65 72 66 61         	imull	$1634103909, 116(%esi), %ebp
c01961cc: 63 65 5f                     	arpl	%sp, 95(%ebp)
c01961cf: 6c                           	insb	%dx, %es:(%edi)
c01961d0: 65 6e                        	outsb	%gs:(%esi), %dx
c01961d2: 3a 28                        	cmpb	(%eax), %ch
c01961d4: 30 2c 35 29 2c 37 33         	xorb	%ch, 859253801(,%esi)
c01961db: 36 2c 33                     	subb	$51, %al
c01961de: 32 3b                        	xorb	(%ebx), %bh
c01961e0: 3b 00                        	cmpl	(%eax), %eax
c01961e2: 65 6c                        	insb	%dx, %es:(%edi)
c01961e4: 66 3a 28                     	cmpb	(%eax), %ch
c01961e7: 30 2c 31                     	xorb	%ch, (%ecx,%esi)
c01961ea: 29 00                        	subl	%eax, (%eax)
c01961ec: 73 68                        	jae	0xc0196256 <.stabstr+0x2256>
c01961ee: 3a 28                        	cmpb	(%eax), %ch
c01961f0: 30 2c 31                     	xorb	%ch, (%ecx,%esi)
c01961f3: 39 29                        	cmpl	%ebp, (%ecx)
c01961f5: 3d 2a 28 30 2c               	cmpl	$741353514, %eax
c01961fa: 32 30                        	xorb	(%eax), %dh
c01961fc: 29 3d 28 30 2c 34            	subl	%edi, 875311144
c0196202: 29 00                        	subl	%eax, (%eax)
c0196204: 65 6c                        	insb	%dx, %es:(%edi)
c0196206: 66 5f                        	popw	%di
c0196208: 73 65                        	jae	0xc019626f <.stabstr+0x226f>
c019620a: 63 74 69 6f                  	arpl	%si, 111(%ecx,%ebp,2)
c019620e: 6e                           	outsb	(%esi), %dx
c019620f: 5f                           	popl	%edi
c0196210: 68 65 61 64 65               	pushl	$1701077349
c0196215: 72 5f                        	jb	0xc0196276 <.stabstr+0x2276>
c0196217: 74 3a                        	je	0xc0196253 <.stabstr+0x2253>
c0196219: 74 28                        	je	0xc0196243 <.stabstr+0x2243>
c019621b: 30 2c 32                     	xorb	%ch, (%edx,%esi)
c019621e: 30 29                        	xorb	%ch, (%ecx)
c0196220: 00 73 68                     	addb	%dh, 104(%ebx)
c0196223: 73 74                        	jae	0xc0196299 <.stabstr+0x2299>
c0196225: 72 74                        	jb	0xc019629b <.stabstr+0x229b>
c0196227: 61                           	popal
c0196228: 62 3a                        	bound	%edi, (%edx)
c019622a: 28 30                        	subb	%dh, (%eax)
c019622c: 2c 35                        	subb	$53, %al
c019622e: 29 00                        	subl	%eax, (%eax)
c0196230: 69 3a 28 30 2c 32            	imull	$841756712, (%edx), %edi
c0196236: 31 29                        	xorl	%ebp, (%ecx)
c0196238: 3d 72 28 30 2c               	cmpl	$741353586, %eax
c019623d: 32 31                        	xorb	(%ecx), %dh
c019623f: 29 3b                        	subl	%edi, (%ebx)
c0196241: 2d 32 31 34 37               	subl	$926167346, %eax
c0196246: 34 38                        	xorb	$56, %al
c0196248: 33 36                        	xorl	(%esi), %esi
c019624a: 34 38                        	xorb	$56, %al
c019624c: 3b 32                        	cmpl	(%edx), %esi
c019624e: 31 34 37                     	xorl	%esi, (%edi,%esi)
c0196251: 34 38                        	xorb	$56, %al
c0196253: 33 36                        	xorl	(%esi), %esi
c0196255: 34 37                        	xorb	$55, %al
c0196257: 3b 00                        	cmpl	(%eax), %eax
c0196259: 69 6e 74 3a 74 28 30         	imull	$807957562, 116(%esi), %ebp
c0196260: 2c 32                        	subb	$50, %al
c0196262: 31 29                        	xorl	%ebp, (%ecx)
c0196264: 00 6e 61                     	addb	%ch, 97(%esi)
c0196267: 6d                           	insl	%dx, %es:(%edi)
c0196268: 65 3a 28                     	cmpb	%gs:(%eax), %ch
c019626b: 30 2c 31                     	xorb	%ch, (%ecx,%esi)
c019626e: 34 29                        	xorb	$41, %al
c0196270: 00 65 6c                     	addb	%ah, 108(%ebp)
c0196273: 66 5f                        	popw	%di
c0196275: 6c                           	insb	%dx, %es:(%edi)
c0196276: 6f                           	outsl	(%esi), %dx
c0196277: 6f                           	outsl	(%esi), %dx
c0196278: 6b 75 70 5f                  	imull	$95, 112(%ebp), %esi
c019627c: 73 79                        	jae	0xc01962f7 <.stabstr+0x22f7>
c019627e: 6d                           	insl	%dx, %es:(%edi)
c019627f: 62 6f 6c                     	bound	%ebp, 108(%edi)
c0196282: 3a 46 28                     	cmpb	40(%esi), %al
c0196285: 30 2c 31                     	xorb	%ch, (%ecx,%esi)
c0196288: 34 29                        	xorb	$41, %al
c019628a: 00 61 64                     	addb	%ah, 100(%ecx)
c019628d: 64 72 3a                     	jb	0xc01962ca <.stabstr+0x22ca>
c0196290: 70 28                        	jo	0xc01962ba <.stabstr+0x22ba>
c0196292: 30 2c 35 29 00 65 6c         	xorb	%ch, 1818558505(,%esi)
c0196299: 66 3a 70 28                  	cmpb	40(%eax), %dh
c019629d: 30 2c 32                     	xorb	%ch, (%edx,%esi)
c01962a0: 32 29                        	xorb	(%ecx), %ch
c01962a2: 3d 2a 28 30 2c               	cmpl	$741353514, %eax
c01962a7: 31 29                        	xorl	%ebp, (%ecx)
c01962a9: 00 69 3a                     	addb	%ch, 58(%ecx)
c01962ac: 28 30                        	subb	%dh, (%eax)
c01962ae: 2c 32                        	subb	$50, %al
c01962b0: 31 29                        	xorl	%ebp, (%ecx)
		...
c0196ffe: 00 00                        	addb	%al, (%eax)

Disassembly of section .symtab:

00000000 <.symtab>:
		...
      10: 01 00                        	addl	%eax, (%eax)
		...
      1a: 00 00                        	addb	%al, (%eax)
      1c: 04 00                        	addb	$0, %al
      1e: f1                           	<unknown>
      1f: ff 0d 00 00 00 02            	decl	33554432
      25: b0 ad                        	movb	$-83, %al
      27: 1b 00                        	sbbl	(%eax), %eax
      29: 00 00                        	addb	%al, (%eax)
      2b: 00 00                        	addb	%al, (%eax)
      2d: 00 f1                        	addb	%dh, %cl
      2f: ff 20                        	jmpl	*(%eax)
      31: 00 00                        	addb	%al, (%eax)
      33: 00 01                        	addb	%al, (%ecx)
		...
      3d: 00 f1                        	addb	%dh, %cl
      3f: ff 31                        	pushl	(%ecx)
      41: 00 00                        	addb	%al, (%eax)
      43: 00 02                        	addb	%al, (%edx)
		...
      4d: 00 f1                        	addb	%dh, %cl
      4f: ff 40 00                     	incl	(%eax)
      52: 00 00                        	addb	%al, (%eax)
      54: 03 00                        	addl	(%eax), %eax
		...
      5e: f1                           	<unknown>
      5f: ff 53 00                     	calll	*(%ebx)
      62: 00 00                        	addb	%al, (%eax)
      64: fb                           	sti
      65: 4f                           	decl	%edi
      66: 52                           	pushl	%edx
      67: e4 00                        	inb	$0, %al
      69: 00 00                        	addb	%al, (%eax)
      6b: 00 00                        	addb	%al, (%eax)
      6d: 00 f1                        	addb	%dh, %cl
      6f: ff 62 00                     	jmpl	*(%edx)
		...
      7e: f1                           	<unknown>
      7f: ff 69 00                     	ljmpl	*(%ecx)
      82: 00 00                        	addb	%al, (%eax)
      84: 00 10                        	addb	%dl, (%eax)
		...
      8e: f1                           	<unknown>
      8f: ff 72 00                     	pushl	(%edx)
      92: 00 00                        	addb	%al, (%eax)
      94: 00 20                        	addb	%ah, (%eax)
      96: 00 00                        	addb	%al, (%eax)
      98: 04 00                        	addb	$0, %al
      9a: 00 00                        	addb	%al, (%eax)
      9c: 01 00                        	addl	%eax, (%eax)
      9e: f1                           	<unknown>
      9f: ff 18                        	lcalll	*(%eax)
      a1: 03 00                        	addl	(%eax), %eax
      a3: 00 0c 00                     	addb	%cl, (%eax,%eax)
      a6: 10 00                        	adcb	%al, (%eax)
      a8: 04 00                        	addb	$0, %al
      aa: 00 00                        	addb	%al, (%eax)
      ac: 01 00                        	addl	%eax, (%eax)
      ae: 01 00                        	addl	%eax, (%eax)
      b0: 7d 00                        	jge	0xb2 <.symtab+0xb2>
      b2: 00 00                        	addb	%al, (%eax)
      b4: 17                           	popl	%ss
      b5: 00 10                        	addb	%dl, (%eax)
      b7: 00 00                        	addb	%al, (%eax)
      b9: 00 00                        	addb	%al, (%eax)
      bb: 00 00                        	addb	%al, (%eax)
      bd: 00 01                        	addb	%al, (%ecx)
      bf: 00 87 00 00 00 36            	addb	%al, 905969664(%edi)
      c5: 00 10                        	addb	%dl, (%eax)
      c7: 00 00                        	addb	%al, (%eax)
      c9: 00 00                        	addb	%al, (%eax)
      cb: 00 00                        	addb	%al, (%eax)
      cd: 00 01                        	addb	%al, (%ecx)
      cf: 00 93 00 00 00 58            	addb	%dl, 1476395008(%ebx)
      d5: 00 10                        	addb	%dl, (%eax)
      d7: 00 00                        	addb	%al, (%eax)
      d9: 00 00                        	addb	%al, (%eax)
      db: 00 00                        	addb	%al, (%eax)
      dd: 00 01                        	addb	%al, (%ecx)
      df: 00 9d 00 00 00 6b            	addb	%bl, 1795162112(%ebp)
      e5: 00 10                        	addb	%dl, (%eax)
      e7: 00 00                        	addb	%al, (%eax)
      e9: 00 00                        	addb	%al, (%eax)
      eb: 00 00                        	addb	%al, (%eax)
      ed: 00 01                        	addb	%al, (%ecx)
      ef: 00 a5 00 00 00 89            	addb	%ah, -1996488704(%ebp)
      f5: 00 10                        	addb	%dl, (%eax)
      f7: 00 00                        	addb	%al, (%eax)
      f9: 00 00                        	addb	%al, (%eax)
      fb: 00 00                        	addb	%al, (%eax)
      fd: 00 01                        	addb	%al, (%ecx)
      ff: 00 99 01 00 00 00            	addb	%bl, 1(%ecx)
     105: 50                           	pushl	%eax
     106: 10 c0                        	adcb	%al, %al
     108: 01 00                        	addl	%eax, (%eax)
     10a: 00 00                        	addb	%al, (%eax)
     10c: 01 00                        	addl	%eax, (%eax)
     10e: 05 00 aa 00 00               	addl	$43520, %eax
     113: 00 03                        	addb	%al, (%ebx)
     115: 80 00 00                     	addb	$0, (%eax)
     118: 00 00                        	addb	%al, (%eax)
     11a: 00 00                        	addb	%al, (%eax)
     11c: 00 00                        	addb	%al, (%eax)
     11e: f1                           	<unknown>
     11f: ff b4 00 00 00 00 00         	pushl	(%eax,%eax)
     126: 00 00                        	addb	%al, (%eax)
     128: 00 00                        	addb	%al, (%eax)
     12a: 00 00                        	addb	%al, (%eax)
     12c: 04 00                        	addb	$0, %al
     12e: f1                           	<unknown>
     12f: ff c3                        	incl	%ebx
		...
     139: 00 00                        	addb	%al, (%eax)
     13b: 00 04 00                     	addb	%al, (%eax,%eax)
     13e: f1                           	<unknown>
     13f: ff d2                        	calll	*%edx
     141: 00 00                        	addb	%al, (%eax)
     143: 00 2c 10                     	addb	%ch, (%eax,%edx)
     146: 10 c0                        	adcb	%al, %al
     148: 00 00                        	addb	%al, (%eax)
     14a: 00 00                        	addb	%al, (%eax)
     14c: 00 00                        	addb	%al, (%eax)
     14e: 02 00                        	addb	(%eax), %al
     150: e2 00                        	loop	0x152 <.symtab+0x152>
		...
     15a: 00 00                        	addb	%al, (%eax)
     15c: 04 00                        	addb	$0, %al
     15e: f1                           	<unknown>
     15f: ff f3                        	pushl	%ebx
		...
     169: 00 00                        	addb	%al, (%eax)
     16b: 00 04 00                     	addb	%al, (%eax,%eax)
     16e: f1                           	<unknown>
     16f: ff f9                        	<unknown>
     171: 00 00                        	addb	%al, (%eax)
     173: 00 ee                        	addb	%ch, %dh
     175: 11 10                        	adcl	%edx, (%eax)
     177: c0 9e 00 00 00 02 00         	rcrb	$0, 33554432(%esi)
     17e: 02 00                        	addb	(%eax), %al
     180: 06                           	pushl	%es
     181: 01 00                        	addl	%eax, (%eax)
		...
     18b: 00 04 00                     	addb	%al, (%eax,%eax)
     18e: f1                           	<unknown>
     18f: ff 0c 01                     	decl	(%ecx,%eax)
     192: 00 00                        	addb	%al, (%eax)
     194: 2b 13                        	subl	(%ebx), %edx
     196: 10 c0                        	adcb	%al, %al
     198: 63 00                        	arpl	%ax, (%eax)
     19a: 00 00                        	addb	%al, (%eax)
     19c: 02 00                        	addb	(%eax), %al
     19e: 02 00                        	addb	(%eax), %al
     1a0: 19 01                        	sbbl	%eax, (%ecx)
		...
     1aa: 00 00                        	addb	%al, (%eax)
     1ac: 04 00                        	addb	$0, %al
     1ae: f1                           	<unknown>
     1af: ff 21                        	jmpl	*(%ecx)
     1b1: 01 00                        	addl	%eax, (%eax)
		...
     1bb: 00 04 00                     	addb	%al, (%eax,%eax)
     1be: f1                           	<unknown>
     1bf: ff 27                        	jmpl	*(%edi)
     1c1: 01 00                        	addl	%eax, (%eax)
		...
     1cb: 00 04 00                     	addb	%al, (%eax,%eax)
     1ce: f1                           	<unknown>
     1cf: ff 2f                        	ljmpl	*(%edi)
     1d1: 01 00                        	addl	%eax, (%eax)
     1d3: 00 68 d8                     	addb	%ch, -40(%eax)
     1d6: 10 c0                        	adcb	%al, %al
     1d8: 04 00                        	addb	$0, %al
     1da: 00 00                        	addb	%al, (%eax)
     1dc: 01 00                        	addl	%eax, (%eax)
     1de: 05 00 36 01 00               	addl	$79360, %eax
		...
     1eb: 00 04 00                     	addb	%al, (%eax,%eax)
     1ee: f1                           	<unknown>
     1ef: ff 40 01                     	incl	1(%eax)
     1f2: 00 00                        	addb	%al, (%eax)
     1f4: 00 40 10                     	addb	%al, 16(%eax)
     1f7: c0 04 00 00                  	rolb	$0, (%eax,%eax)
     1fb: 00 01                        	addb	%al, (%ecx)
     1fd: 00 04 00                     	addb	%al, (%eax,%eax)
     200: 4d                           	decl	%ebp
     201: 01 00                        	addl	%eax, (%eax)
     203: 00 6c d8 10                  	addb	%ch, 16(%eax,%ebx,8)
     207: c0 01 00                     	rolb	$0, (%ecx)
     20a: 00 00                        	addb	%al, (%eax)
     20c: 01 00                        	addl	%eax, (%eax)
     20e: 05 00 56 01 00               	addl	$87552, %eax
     213: 00 6d d8                     	addb	%ch, -40(%ebp)
     216: 10 c0                        	adcb	%al, %al
     218: 01 00                        	addl	%eax, (%eax)
     21a: 00 00                        	addb	%al, (%eax)
     21c: 01 00                        	addl	%eax, (%eax)
     21e: 05 00 5f 01 00               	addl	$89856, %eax
     223: 00 cb                        	addb	%cl, %bl
     225: 19 10                        	sbbl	%edx, (%eax)
     227: c0 87 00 00 00 02 00         	rolb	$0, 33554432(%edi)
     22e: 02 00                        	addb	(%eax), %al
     230: 6b 01 00                     	imull	$0, (%ecx), %eax
     233: 00 52 1a                     	addb	%dl, 26(%edx)
     236: 10 c0                        	adcb	%al, %al
     238: 89 00                        	movl	%eax, (%eax)
     23a: 00 00                        	addb	%al, (%eax)
     23c: 02 00                        	addb	(%eax), %al
     23e: 02 00                        	addb	(%eax), %al
     240: 72 01                        	jb	0x243 <.symtab+0x243>
		...
     24a: 00 00                        	addb	%al, (%eax)
     24c: 04 00                        	addb	$0, %al
     24e: f1                           	<unknown>
     24f: ff 7b 01                     	<unknown>
		...
     25a: 00 00                        	addb	%al, (%eax)
     25c: 04 00                        	addb	$0, %al
     25e: f1                           	<unknown>
     25f: ff 84 01 00 00 00 00         	incl	(%ecx,%eax)
     266: 00 00                        	addb	%al, (%eax)
     268: 00 00                        	addb	%al, (%eax)
     26a: 00 00                        	addb	%al, (%eax)
     26c: 04 00                        	addb	$0, %al
     26e: f1                           	<unknown>
     26f: ff 89 01 00 00 80            	decl	-2147483647(%ecx)
     275: d8 10                        	fcoms	(%eax)
     277: c0 04 00 00                  	rolb	$0, (%eax,%eax)
     27b: 00 01                        	addb	%al, (%ecx)
     27d: 00 05 00 93 01 00            	addb	%al, 103168
     283: 00 a0 d8 10 c0 04            	addb	%ah, 79696088(%eax)
     289: 00 08                        	addb	%cl, (%eax)
     28b: 00 01                        	addb	%al, (%ecx)
     28d: 00 05 00 9f 01 00            	addb	%al, 106240
     293: 00 04 40                     	addb	%al, (%eax,%eax,2)
     296: 10 c0                        	adcb	%al, %al
     298: 04 00                        	addb	$0, %al
     29a: 00 00                        	addb	%al, (%eax)
     29c: 01 00                        	addl	%eax, (%eax)
     29e: 04 00                        	addb	$0, %al
     2a0: af                           	scasl	%es:(%edi), %eax
     2a1: 01 00                        	addl	%eax, (%eax)
		...
     2ab: 00 04 00                     	addb	%al, (%eax,%eax)
     2ae: f1                           	<unknown>
     2af: ff b5 01 00 00 00            	pushl	1(%ebp)
     2b5: 00 00                        	addb	%al, (%eax)
     2b7: 00 00                        	addb	%al, (%eax)
     2b9: 00 00                        	addb	%al, (%eax)
     2bb: 00 04 00                     	addb	%al, (%eax,%eax)
     2be: f1                           	<unknown>
     2bf: ff be 01 00 00 c0            	<unknown>
     2c5: dc 18                        	fcompl	(%eax)
     2c7: c0 00 04                     	rolb	$4, (%eax)
     2ca: 00 00                        	addb	%al, (%eax)
     2cc: 01 00                        	addl	%eax, (%eax)
     2ce: 05 00 c4 01 00               	addl	$115712, %eax
     2d3: 00 c0                        	addb	%al, %al
     2d5: e0 18                        	loopne	0x2ef <.symtab+0x2ef>
     2d7: c0 00 04                     	rolb	$4, (%eax)
     2da: 00 00                        	addb	%al, (%eax)
     2dc: 01 00                        	addl	%eax, (%eax)
     2de: 05 00 ca 01 00               	addl	$117248, %eax
		...
     2eb: 00 04 00                     	addb	%al, (%eax,%eax)
     2ee: f1                           	<unknown>
     2ef: ff d5                        	calll	*%ebp
     2f1: 01 00                        	addl	%eax, (%eax)
     2f3: 00 b5 21 10 c0 59            	addb	%dh, 1505759265(%ebp)
     2f9: 00 00                        	addb	%al, (%eax)
     2fb: 00 02                        	addb	%al, (%edx)
     2fd: 00 02                        	addb	%al, (%edx)
     2ff: 00 df                        	addb	%bl, %bh
     301: 01 00                        	addl	%eax, (%eax)
     303: 00 0e                        	addb	%cl, (%esi)
     305: 22 10                        	andb	(%eax), %dl
     307: c0 27 02                     	shlb	$2, (%edi)
     30a: 00 00                        	addb	%al, (%eax)
     30c: 02 00                        	addb	(%eax), %al
     30e: 02 00                        	addb	(%eax), %al
     310: e6 01                        	outb	%al, $1
		...
     31a: 00 00                        	addb	%al, (%eax)
     31c: 04 00                        	addb	$0, %al
     31e: f1                           	<unknown>
     31f: ff ee                        	<unknown>
     321: 01 00                        	addl	%eax, (%eax)
     323: 00 c0                        	addb	%al, %al
     325: e4 18                        	inb	$24, %al
     327: c0 10 00                     	rclb	$0, (%eax)
     32a: 00 00                        	addb	%al, (%eax)
     32c: 01 00                        	addl	%eax, (%eax)
     32e: 05 00 f9 01 00               	addl	$129280, %eax
     333: 00 d0                        	addb	%dl, %al
     335: e4 18                        	inb	$24, %al
     337: c0 04 00 00                  	rolb	$0, (%eax,%eax)
     33b: 00 01                        	addb	%al, (%ecx)
     33d: 00 05 00 01 02 00            	addb	%al, 131328
		...
     34b: 00 04 00                     	addb	%al, (%eax,%eax)
     34e: f1                           	<unknown>
     34f: ff 07                        	incl	(%edi)
     351: 02 00                        	addb	(%eax), %al
     353: 00 41 1b                     	addb	%al, 27(%ecx)
     356: 10 c0                        	adcb	%al, %al
     358: 2c 01                        	subb	$1, %al
     35a: 00 00                        	addb	%al, (%eax)
     35c: 12 00                        	adcb	(%eax), %al
     35e: 02 00                        	addb	(%eax), %al
     360: 1a 02                        	sbbb	(%edx), %al
     362: 00 00                        	addb	%al, (%eax)
     364: 3e 1e                        	pushl	%ds
     366: 10 c0                        	adcb	%al, %al
     368: 26 00 00                     	addb	%al, %es:(%eax)
     36b: 00 12                        	addb	%dl, (%edx)
     36d: 00 02                        	addb	%al, (%edx)
     36f: 00 21                        	addb	%ah, (%ecx)
     371: 02 00                        	addb	(%eax), %al
     373: 00 a2 1c 10 c0 37            	addb	%ah, 935333916(%edx)
     379: 00 00                        	addb	%al, (%eax)
     37b: 00 12                        	addb	%dl, (%edx)
     37d: 00 02                        	addb	%al, (%edx)
     37f: 00 35 02 00 00 fa            	addb	%dh, -100663294
     385: 1c 10                        	sbbb	$16, %al
     387: c0 1d 00 00 00 12 00         	rcrb	$0, 301989888
     38e: 02 00                        	addb	(%eax), %al
     390: 39 02                        	cmpl	%eax, (%edx)
     392: 00 00                        	addb	%al, (%eax)
     394: 3a 18                        	cmpb	(%eax), %bl
     396: 10 c0                        	adcb	%al, %al
     398: 3c 00                        	cmpb	$0, %al
     39a: 00 00                        	addb	%al, (%eax)
     39c: 12 00                        	adcb	(%eax), %al
     39e: 02 00                        	addb	(%eax), %al
     3a0: 44                           	incl	%esp
     3a1: 02 00                        	addb	(%eax), %al
     3a3: 00 24 19                     	addb	%ah, (%ecx,%ebx)
     3a6: 10 c0                        	adcb	%al, %al
     3a8: 30 00                        	xorb	%al, (%eax)
     3aa: 00 00                        	addb	%al, (%eax)
     3ac: 12 00                        	adcb	(%eax), %al
     3ae: 02 00                        	addb	(%eax), %al
     3b0: 4e                           	decl	%esi
     3b1: 02 00                        	addb	(%eax), %al
     3b3: 00 48 d0                     	addb	%cl, -48(%eax)
     3b6: 10 c0                        	adcb	%al, %al
     3b8: 06                           	pushl	%es
     3b9: 00 00                        	addb	%al, (%eax)
     3bb: 00 11                        	addb	%dl, (%ecx)
     3bd: 00 05 00 53 02 00            	addb	%al, 152320
     3c3: 00 35 24 10 c0 ee            	addb	%dh, -289402844
     3c9: 03 00                        	addl	(%eax), %eax
     3cb: 00 12                        	addb	%dl, (%edx)
     3cd: 00 02                        	addb	%al, (%edx)
     3cf: 00 5c 02 00                  	addb	%bl, (%edx,%eax)
     3d3: 00 58 10                     	addb	%bl, 16(%eax)
     3d6: 10 c0                        	adcb	%al, %al
     3d8: 00 00                        	addb	%al, (%eax)
     3da: 00 00                        	addb	%al, (%eax)
     3dc: 10 00                        	adcb	%al, (%eax)
     3de: 02 00                        	addb	(%eax), %al
     3e0: 61                           	popal
     3e1: 02 00                        	addb	(%eax), %al
     3e3: 00 03                        	addb	%al, (%ebx)
     3e5: 11 10                        	adcl	%edx, (%eax)
     3e7: c0 00 00                     	rolb	$0, (%eax)
     3ea: 00 00                        	addb	%al, (%eax)
     3ec: 10 00                        	adcb	%al, (%eax)
     3ee: 02 00                        	addb	(%eax), %al
     3f0: 67 02 00                     	addb	(%bx,%si), %al
     3f3: 00 a7 10 10 c0 00            	addb	%ah, 12587024(%edi)
     3f9: 00 00                        	addb	%al, (%eax)
     3fb: 00 10                        	addb	%dl, (%eax)
     3fd: 00 02                        	addb	%al, (%edx)
     3ff: 00 6d 02                     	addb	%ch, 2(%ebp)
     402: 00 00                        	addb	%al, (%eax)
     404: a6                           	cmpsb	%es:(%edi), (%esi)
     405: 11 10                        	adcl	%edx, (%eax)
     407: c0 00 00                     	rolb	$0, (%eax)
     40a: 00 00                        	addb	%al, (%eax)
     40c: 10 00                        	adcb	%al, (%eax)
     40e: 02 00                        	addb	(%eax), %al
     410: 73 02                        	jae	0x414 <.symtab+0x414>
     412: 00 00                        	addb	%al, (%eax)
     414: e0 10                        	loopne	0x426 <.symtab+0x426>
     416: 10 c0                        	adcb	%al, %al
     418: 00 00                        	addb	%al, (%eax)
     41a: 00 00                        	addb	%al, (%eax)
     41c: 10 00                        	adcb	%al, (%eax)
     41e: 02 00                        	addb	(%eax), %al
     420: 79 02                        	jns	0x424 <.symtab+0x424>
     422: 00 00                        	addb	%al, (%eax)
     424: b1 10                        	movb	$16, %cl
     426: 10 c0                        	adcb	%al, %al
     428: 00 00                        	addb	%al, (%eax)
     42a: 00 00                        	addb	%al, (%eax)
     42c: 10 00                        	adcb	%al, (%eax)
     42e: 02 00                        	addb	(%eax), %al
     430: 7f 02                        	jg	0x434 <.symtab+0x434>
     432: 00 00                        	addb	%al, (%eax)
     434: 98                           	cwtl
     435: 11 10                        	adcl	%edx, (%eax)
     437: c0 00 00                     	rolb	$0, (%eax)
     43a: 00 00                        	addb	%al, (%eax)
     43c: 10 00                        	adcb	%al, (%eax)
     43e: 02 00                        	addb	(%eax), %al
     440: 85 02                        	testl	%eax, (%edx)
     442: 00 00                        	addb	%al, (%eax)
     444: b4 11                        	movb	$17, %ah
     446: 10 c0                        	adcb	%al, %al
     448: 00 00                        	addb	%al, (%eax)
     44a: 00 00                        	addb	%al, (%eax)
     44c: 10 00                        	adcb	%al, (%eax)
     44e: 02 00                        	addb	(%eax), %al
     450: 8b 02                        	movl	(%edx), %eax
     452: 00 00                        	addb	%al, (%eax)
     454: 88 10                        	movb	%dl, (%eax)
     456: 10 c0                        	adcb	%al, %al
     458: 00 00                        	addb	%al, (%eax)
     45a: 00 00                        	addb	%al, (%eax)
     45c: 10 00                        	adcb	%al, (%eax)
     45e: 02 00                        	addb	(%eax), %al
     460: 90                           	nop
     461: 02 00                        	addb	(%eax), %al
     463: 00 8a 11 10 c0 00            	addb	%cl, 12587025(%edx)
     469: 00 00                        	addb	%al, (%eax)
     46b: 00 10                        	addb	%dl, (%eax)
     46d: 00 02                        	addb	%al, (%edx)
     46f: 00 95 02 00 00 36            	addb	%dl, 905969666(%ebp)
     475: 1d 10 c0 79 00               	sbbl	$7979024, %eax
     47a: 00 00                        	addb	%al, (%eax)
     47c: 12 00                        	adcb	(%eax), %al
     47e: 02 00                        	addb	(%eax), %al
     480: 9c                           	pushfl
     481: 02 00                        	addb	(%eax), %al
     483: 00 e7                        	addb	%ah, %bh
     485: 10 10                        	adcb	%dl, (%eax)
     487: c0 00 00                     	rolb	$0, (%eax)
     48a: 00 00                        	addb	%al, (%eax)
     48c: 10 00                        	adcb	%al, (%eax)
     48e: 02 00                        	addb	(%eax), %al
     490: a2 02 00 00 11               	movb	%al, 285212674
     495: 11 10                        	adcl	%edx, (%eax)
     497: c0 00 00                     	rolb	$0, (%eax)
     49a: 00 00                        	addb	%al, (%eax)
     49c: 10 00                        	adcb	%al, (%eax)
     49e: 02 00                        	addb	(%eax), %al
     4a0: a8 02                        	testb	$2, %al
     4a2: 00 00                        	addb	%al, (%eax)
     4a4: 00 00                        	addb	%al, (%eax)
     4a6: 00 c0                        	addb	%al, %al
     4a8: 00 00                        	addb	%al, (%eax)
     4aa: 00 00                        	addb	%al, (%eax)
     4ac: 10 00                        	adcb	%al, (%eax)
     4ae: f1                           	<unknown>
     4af: ff 63 03                     	jmpl	*3(%ebx)
     4b2: 00 00                        	addb	%al, (%eax)
     4b4: 20 d0                        	andb	%dl, %al
     4b6: 10 c0                        	adcb	%al, %al
     4b8: 28 00                        	subb	%al, (%eax)
     4ba: 00 00                        	addb	%al, (%eax)
     4bc: 11 00                        	adcl	%eax, (%eax)
     4be: 05 00 b4 02 00               	addl	$177152, %eax
     4c3: 00 1f                        	addb	%bl, (%edi)
     4c5: 11 10                        	adcl	%edx, (%eax)
     4c7: c0 00 00                     	rolb	$0, (%eax)
     4ca: 00 00                        	addb	%al, (%eax)
     4cc: 10 00                        	adcb	%al, (%eax)
     4ce: 02 00                        	addb	(%eax), %al
     4d0: ba 02 00 00 d9               	movl	$3640655874, %edx
     4d5: 10 10                        	adcb	%dl, (%eax)
     4d7: c0 00 00                     	rolb	$0, (%eax)
     4da: 00 00                        	addb	%al, (%eax)
     4dc: 10 00                        	adcb	%al, (%eax)
     4de: 02 00                        	addb	(%eax), %al
     4e0: c0 02 00                     	rolb	$0, (%edx)
     4e3: 00 9f 11 10 c0 00            	addb	%bl, 12587025(%edi)
     4e9: 00 00                        	addb	%al, (%eax)
     4eb: 00 10                        	addb	%dl, (%eax)
     4ed: 00 02                        	addb	%al, (%edx)
     4ef: 00 c6                        	addb	%al, %dh
     4f1: 02 00                        	addb	(%eax), %al
     4f3: 00 0a                        	addb	%cl, (%edx)
     4f5: 11 10                        	adcl	%edx, (%eax)
     4f7: c0 00 00                     	rolb	$0, (%eax)
     4fa: 00 00                        	addb	%al, (%eax)
     4fc: 10 00                        	adcb	%al, (%eax)
     4fe: 02 00                        	addb	(%eax), %al
     500: cc                           	int3
     501: 02 00                        	addb	(%eax), %al
     503: 00 6e 20                     	addb	%ch, 32(%esi)
     506: 10 c0                        	adcb	%al, %al
     508: 1d 00 00 00 12               	sbbl	$301989888, %eax
     50d: 00 02                        	addb	%al, (%edx)
     50f: 00 e2                        	addb	%ah, %dl
     511: 02 00                        	addb	(%eax), %al
     513: 00 80 10 10 c0 00            	addb	%al, 12587024(%eax)
     519: 00 00                        	addb	%al, (%eax)
     51b: 00 10                        	addb	%dl, (%eax)
     51d: 00 02                        	addb	%al, (%edx)
     51f: 00 e7                        	addb	%ah, %bh
     521: 02 00                        	addb	(%eax), %al
     523: 00 67 19                     	addb	%ah, 25(%edi)
     526: 10 c0                        	adcb	%al, %al
     528: 64 00 00                     	addb	%al, %fs:(%eax)
     52b: 00 12                        	addb	%dl, (%edx)
     52d: 00 02                        	addb	%al, (%edx)
     52f: 00 f0                        	addb	%dh, %al
     531: 02 00                        	addb	(%eax), %al
     533: 00 75 11                     	addb	%dh, 17(%ebp)
     536: 10 c0                        	adcb	%al, %al
     538: 00 00                        	addb	%al, (%eax)
     53a: 00 00                        	addb	%al, (%eax)
     53c: 10 00                        	adcb	%al, (%eax)
     53e: 02 00                        	addb	(%eax), %al
     540: f5                           	cmc
     541: 02 00                        	addb	(%eax), %al
     543: 00 e3                        	addb	%ah, %bl
     545: 1d 10 c0 16 00               	sbbl	$1490960, %eax
     54a: 00 00                        	addb	%al, (%eax)
     54c: 12 00                        	adcb	(%eax), %al
     54e: 02 00                        	addb	(%eax), %al
     550: fb                           	sti
     551: 02 00                        	addb	(%eax), %al
     553: 00 d2                        	addb	%dl, %dl
     555: 10 10                        	adcb	%dl, (%eax)
     557: c0 00 00                     	rolb	$0, (%eax)
     55a: 00 00                        	addb	%al, (%eax)
     55c: 10 00                        	adcb	%al, (%eax)
     55e: 02 00                        	addb	(%eax), %al
     560: 01 03                        	addl	%eax, (%ebx)
     562: 00 00                        	addb	%al, (%eax)
     564: db 1a                        	fistpl	(%edx)
     566: 10 c0                        	adcb	%al, %al
     568: 0e                           	pushl	%cs
     569: 00 00                        	addb	%al, (%eax)
     56b: 00 12                        	addb	%dl, (%edx)
     56d: 00 02                        	addb	%al, (%edx)
     56f: 00 0e                        	addb	%cl, (%esi)
     571: 03 00                        	addl	(%eax), %eax
     573: 00 ac 10 10 c0 00 00         	addb	%ch, 49168(%eax,%edx)
     57a: 00 00                        	addb	%al, (%eax)
     57c: 10 00                        	adcb	%al, (%eax)
     57e: 02 00                        	addb	(%eax), %al
     580: 14 03                        	adcb	$3, %al
     582: 00 00                        	addb	%al, (%eax)
     584: 00 d0                        	addb	%dl, %al
     586: 10 c0                        	adcb	%al, %al
     588: 00 00                        	addb	%al, (%eax)
     58a: 00 00                        	addb	%al, (%eax)
     58c: 10 00                        	adcb	%al, (%eax)
     58e: 05 00 22 03 00               	addl	$205312, %eax
     593: 00 17                        	addb	%dl, (%edi)
     595: 1d 10 c0 1f 00               	sbbl	$2080784, %eax
     59a: 00 00                        	addb	%al, (%eax)
     59c: 12 00                        	adcb	(%eax), %al
     59e: 02 00                        	addb	(%eax), %al
     5a0: 26 03 00                     	addl	%es:(%eax), %eax
     5a3: 00 62 10                     	addb	%ah, 16(%edx)
     5a6: 10 c0                        	adcb	%al, %al
     5a8: 00 00                        	addb	%al, (%eax)
     5aa: 00 00                        	addb	%al, (%eax)
     5ac: 10 00                        	adcb	%al, (%eax)
     5ae: 02 00                        	addb	(%eax), %al
     5b0: 2b 03                        	subl	(%ebx), %eax
     5b2: 00 00                        	addb	%al, (%eax)
     5b4: 54                           	pushl	%esp
     5b5: 19 10                        	sbbl	%edx, (%eax)
     5b7: c0 13 00                     	rclb	$0, (%ebx)
     5ba: 00 00                        	addb	%al, (%eax)
     5bc: 12 00                        	adcb	(%eax), %al
     5be: 02 00                        	addb	(%eax), %al
     5c0: 34 03                        	xorb	$3, %al
     5c2: 00 00                        	addb	%al, (%eax)
     5c4: 64 1e                        	pushl	%ds
     5c6: 10 c0                        	adcb	%al, %al
     5c8: 36 00 00                     	addb	%al, %ss:(%eax)
     5cb: 00 12                        	addb	%dl, (%edx)
     5cd: 00 02                        	addb	%al, (%edx)
     5cf: 00 3b                        	addb	%bh, (%ebx)
     5d1: 03 00                        	addl	(%eax), %eax
     5d3: 00 7c 11 10                  	addb	%bh, 16(%ecx,%edx)
     5d7: c0 00 00                     	rolb	$0, (%eax)
     5da: 00 00                        	addb	%al, (%eax)
     5dc: 10 00                        	adcb	%al, (%eax)
     5de: 02 00                        	addb	(%eax), %al
     5e0: 40                           	incl	%eax
     5e1: 03 00                        	addl	(%eax), %eax
     5e3: 00 59 11                     	addb	%bl, 17(%ecx)
     5e6: 10 c0                        	adcb	%al, %al
     5e8: 00 00                        	addb	%al, (%eax)
     5ea: 00 00                        	addb	%al, (%eax)
     5ec: 10 00                        	adcb	%al, (%eax)
     5ee: 02 00                        	addb	(%eax), %al
     5f0: 45                           	incl	%ebp
     5f1: 03 00                        	addl	(%eax), %eax
     5f3: 00 e9                        	addb	%ch, %cl
     5f5: 1a 10                        	sbbb	(%eax), %dl
     5f7: c0 58 00 00                  	rcrb	$0, (%eax)
     5fb: 00 12                        	addb	%dl, (%edx)
     5fd: 00 02                        	addb	%al, (%edx)
     5ff: 00 53 03                     	addb	%dl, 3(%ebx)
     602: 00 00                        	addb	%al, (%eax)
     604: 8e 13                        	movw	(%ebx), %ss
     606: 10 c0                        	adcb	%al, %al
     608: ac                           	lodsb	(%esi), %al
     609: 04 00                        	addb	$0, %al
     60b: 00 12                        	addb	%dl, (%edx)
     60d: 00 02                        	addb	%al, (%edx)
     60f: 00 5d 03                     	addb	%bl, 3(%ebp)
     612: 00 00                        	addb	%al, (%eax)
     614: 8c 12                        	movw	%ss, (%edx)
     616: 10 c0                        	adcb	%al, %al
     618: 9f                           	lahf
     619: 00 00                        	addb	%al, (%eax)
     61b: 00 12                        	addb	%dl, (%edx)
     61d: 00 02                        	addb	%al, (%edx)
     61f: 00 67 03                     	addb	%ah, 3(%edi)
     622: 00 00                        	addb	%al, (%eax)
     624: 3a 10                        	cmpb	(%eax), %dl
     626: 10 c0                        	adcb	%al, %al
     628: 00 00                        	addb	%al, (%eax)
     62a: 00 00                        	addb	%al, (%eax)
     62c: 10 00                        	adcb	%al, (%eax)
     62e: 02 00                        	addb	(%eax), %al
     630: 6c                           	insb	%dx, %es:(%edi)
     631: 03 00                        	addl	(%eax), %eax
     633: 00 46 2b                     	addb	%al, 43(%esi)
     636: 10 c0                        	adcb	%al, %al
     638: a4                           	movsb	(%esi), %es:(%edi)
     639: 00 00                        	addb	%al, (%eax)
     63b: 00 12                        	addb	%dl, (%edx)
     63d: 00 02                        	addb	%al, (%edx)
     63f: 00 7e 03                     	addb	%bh, 3(%esi)
     642: 00 00                        	addb	%al, (%eax)
     644: 91                           	xchgl	%ecx, %eax
     645: 11 10                        	adcl	%edx, (%eax)
     647: c0 00 00                     	rolb	$0, (%eax)
     64a: 00 00                        	addb	%al, (%eax)
     64c: 10 00                        	adcb	%al, (%eax)
     64e: 02 00                        	addb	(%eax), %al
     650: 83 03 00                     	addl	$0, (%ebx)
     653: 00 fc                        	addb	%bh, %ah
     655: 10 10                        	adcb	%dl, (%eax)
     657: c0 00 00                     	rolb	$0, (%eax)
     65a: 00 00                        	addb	%al, (%eax)
     65c: 10 00                        	adcb	%al, (%eax)
     65e: 02 00                        	addb	(%eax), %al
     660: 89 03                        	movl	%eax, (%ebx)
     662: 00 00                        	addb	%al, (%eax)
     664: 9a 10 10 c0 00 00 00         	lcalll	$0, $12587024
     66b: 00 10                        	addb	%dl, (%eax)
     66d: 00 02                        	addb	%al, (%edx)
     66f: 00 8f 03 00 00 62            	addb	%cl, 1644167171(%edi)
     675: 28 10                        	subb	%dl, (%eax)
     677: c0 96 00 00 00 12 00         	rclb	$0, 301989888(%esi)
     67e: 02 00                        	addb	(%eax), %al
     680: 95                           	xchgl	%ebp, %eax
     681: 03 00                        	addl	(%eax), %eax
     683: 00 00                        	addb	%al, (%eax)
     685: 70 19                        	jo	0x6a0 <.symtab+0x6a0>
     687: c0 00 00                     	rolb	$0, (%eax)
     68a: 00 00                        	addb	%al, (%eax)
     68c: 10 00                        	adcb	%al, (%eax)
     68e: 07                           	popl	%es
     68f: 00 dc                        	addb	%bl, %ah
     691: 03 00                        	addl	(%eax), %eax
     693: 00 71 21                     	addb	%dh, 33(%ecx)
     696: 10 c0                        	adcb	%al, %al
     698: 44                           	incl	%esp
     699: 00 00                        	addb	%al, (%eax)
     69b: 00 12                        	addb	%dl, (%edx)
     69d: 00 02                        	addb	%al, (%edx)
     69f: 00 9e 03 00 00 1a            	addb	%bl, 436207619(%esi)
     6a5: 2a 10                        	subb	(%eax), %dl
     6a7: c0 2c 01 00                  	shrb	$0, (%ecx,%eax)
     6ab: 00 12                        	addb	%dl, (%edx)
     6ad: 00 02                        	addb	%al, (%edx)
     6af: 00 b1 03 00 00 c0            	addb	%dh, -1073741821(%ecx)
     6b5: 1e                           	pushl	%ds
     6b6: 10 c0                        	adcb	%al, %al
     6b8: 4a                           	decl	%edx
     6b9: 01 00                        	addl	%eax, (%eax)
     6bb: 00 12                        	addb	%dl, (%edx)
     6bd: 00 02                        	addb	%al, (%edx)
     6bf: 00 b9 03 00 00 d9            	addb	%bh, -654311421(%ecx)
     6c5: 1c 10                        	sbbb	$16, %al
     6c7: c0 21 00                     	shlb	$0, (%ecx)
     6ca: 00 00                        	addb	%al, (%eax)
     6cc: 12 00                        	adcb	(%eax), %al
     6ce: 02 00                        	addb	(%eax), %al
     6d0: be 03 00 00 ad               	movl	$2902458371, %esi
     6d5: 11 10                        	adcl	%edx, (%eax)
     6d7: c0 00 00                     	rolb	$0, (%eax)
     6da: 00 00                        	addb	%al, (%eax)
     6dc: 10 00                        	adcb	%al, (%eax)
     6de: 02 00                        	addb	(%eax), %al
     6e0: c4 03                        	lesl	(%ebx), %eax
     6e2: 00 00                        	addb	%al, (%eax)
     6e4: a2 10 10 c0 00               	movb	%al, 12587024
     6e9: 00 00                        	addb	%al, (%eax)
     6eb: 00 10                        	addb	%dl, (%eax)
     6ed: 00 02                        	addb	%al, (%edx)
     6ef: 00 ca                        	addb	%cl, %dl
     6f1: 03 00                        	addl	(%eax), %eax
     6f3: 00 af 1d 10 c0 34            	addb	%ch, 885002269(%edi)
     6f9: 00 00                        	addb	%al, (%eax)
     6fb: 00 12                        	addb	%dl, (%edx)
     6fd: 00 02                        	addb	%al, (%edx)
     6ff: 00 d1                        	addb	%dl, %cl
     701: 03 00                        	addl	(%eax), %eax
     703: 00 30                        	addb	%dh, (%eax)
     705: 10 10                        	adcb	%dl, (%eax)
     707: c0 00 00                     	rolb	$0, (%eax)
     70a: 00 00                        	addb	%al, (%eax)
     70c: 10 00                        	adcb	%al, (%eax)
     70e: 02 00                        	addb	(%eax), %al
     710: d6                           	salc
     711: 03 00                        	addl	(%eax), %eax
     713: 00 60 11                     	addb	%ah, 17(%eax)
     716: 10 c0                        	adcb	%al, %al
     718: 00 00                        	addb	%al, (%eax)
     71a: 00 00                        	addb	%al, (%eax)
     71c: 10 00                        	adcb	%al, (%eax)
     71e: 02 00                        	addb	(%eax), %al
     720: db 03                        	fildl	(%ebx)
     722: 00 00                        	addb	%al, (%eax)
     724: 2d 21 10 c0 44               	subl	$1153437729, %eax
     729: 00 00                        	addb	%al, (%eax)
     72b: 00 12                        	addb	%dl, (%edx)
     72d: 00 02                        	addb	%al, (%edx)
     72f: 00 e3                        	addb	%ah, %bl
     731: 03 00                        	addl	(%eax), %eax
     733: 00 8b 20 10 c0 4a            	addb	%cl, 1254101024(%ebx)
     739: 00 00                        	addb	%al, (%eax)
     73b: 00 12                        	addb	%dl, (%edx)
     73d: 00 02                        	addb	%al, (%edx)
     73f: 00 ef                        	addb	%ch, %bh
     741: 03 00                        	addl	(%eax), %eax
     743: 00 ee                        	addb	%ch, %dh
     745: 10 10                        	adcb	%dl, (%eax)
     747: c0 00 00                     	rolb	$0, (%eax)
     74a: 00 00                        	addb	%al, (%eax)
     74c: 10 00                        	adcb	%al, (%eax)
     74e: 02 00                        	addb	(%eax), %al
     750: f5                           	cmc
     751: 03 00                        	addl	(%eax), %eax
     753: 00 b8 10 10 c0 00            	addb	%bh, 12587024(%eax)
     759: 00 00                        	addb	%al, (%eax)
     75b: 00 10                        	addb	%dl, (%eax)
     75d: 00 02                        	addb	%al, (%edx)
     75f: 00 fb                        	addb	%bh, %bl
     761: 03 00                        	addl	(%eax), %eax
     763: 00 f9                        	addb	%bh, %cl
     765: 1d 10 c0 45 00               	sbbl	$4571152, %eax
     76a: 00 00                        	addb	%al, (%eax)
     76c: 12 00                        	adcb	(%eax), %al
     76e: 02 00                        	addb	(%eax), %al
     770: 02 04 00                     	addb	(%eax,%eax), %al
     773: 00 23                        	addb	%ah, (%ebx)
     775: 28 10                        	subb	%dl, (%eax)
     777: c0 3f 00                     	sarb	$0, (%edi)
     77a: 00 00                        	addb	%al, (%eax)
     77c: 12 00                        	adcb	(%eax), %al
     77e: 02 00                        	addb	(%eax), %al
     780: 0d 04 00 00 6d               	orl	$1828716548, %eax
     785: 1c 10                        	sbbb	$16, %al
     787: c0 35 00 00 00 12            	<unknown>
     78d: 00 02                        	addb	%al, (%edx)
     78f: 00 1b                        	addb	%bl, (%ebx)
     791: 04 00                        	addb	$0, %al
     793: 00 c0                        	addb	%al, %al
     795: d8 18                        	fcomps	(%eax)
     797: c0 00 04                     	rolb	$4, (%eax)
     79a: 00 00                        	addb	%al, (%eax)
     79c: 11 00                        	adcl	%eax, (%eax)
     79e: 05 00 59 03 00               	addl	$219392, %eax
     7a3: 00 60 d0                     	addb	%ah, -48(%eax)
     7a6: 10 c0                        	adcb	%al, %al
     7a8: 00 08                        	addb	%cl, (%eax)
     7aa: 00 00                        	addb	%al, (%eax)
     7ac: 11 00                        	adcl	%eax, (%eax)
     7ae: 05 00 2e 04 00               	addl	$273920, %eax
     7b3: 00 4e 10                     	addb	%cl, 16(%esi)
     7b6: 10 c0                        	adcb	%al, %al
     7b8: 00 00                        	addb	%al, (%eax)
     7ba: 00 00                        	addb	%al, (%eax)
     7bc: 10 00                        	adcb	%al, (%eax)
     7be: 02 00                        	addb	(%eax), %al
     7c0: 33 04 00                     	xorl	(%eax,%eax), %eax
     7c3: 00 76 18                     	addb	%dh, 24(%esi)
     7c6: 10 c0                        	adcb	%al, %al
     7c8: ae                           	scasb	%es:(%edi), %al
     7c9: 00 00                        	addb	%al, (%eax)
     7cb: 00 12                        	addb	%dl, (%edx)
     7cd: 00 02                        	addb	%al, (%edx)
     7cf: 00 3c 04                     	addb	%bh, (%esp,%eax)
     7d2: 00 00                        	addb	%al, (%eax)
     7d4: 2d 20 10 c0 41               	subl	$1103106080, %eax
     7d9: 00 00                        	addb	%al, (%eax)
     7db: 00 12                        	addb	%dl, (%edx)
     7dd: 00 02                        	addb	%al, (%edx)
     7df: 00 47 04                     	addb	%al, 4(%edi)
     7e2: 00 00                        	addb	%al, (%eax)
     7e4: 60                           	pushal
     7e5: d8 10                        	fcoms	(%eax)
     7e7: c0 06 00                     	rolb	$0, (%esi)
     7ea: 00 00                        	addb	%al, (%eax)
     7ec: 11 00                        	adcl	%eax, (%eax)
     7ee: 05 00 4c 04 00               	addl	$281600, %eax
     7f3: 00 6c 10 10                  	addb	%ch, 16(%eax,%edx)
     7f7: c0 00 00                     	rolb	$0, (%eax)
     7fa: 00 00                        	addb	%al, (%eax)
     7fc: 10 00                        	adcb	%al, (%eax)
     7fe: 02 00                        	addb	(%eax), %al
     800: 51                           	pushl	%ecx
     801: 04 00                        	addb	$0, %al
     803: 00 83 11 10 c0 00            	addb	%al, 12587025(%ebx)
     809: 00 00                        	addb	%al, (%eax)
     80b: 00 10                        	addb	%dl, (%eax)
     80d: 00 02                        	addb	%al, (%edx)
     80f: 00 56 04                     	addb	%dl, 4(%esi)
     812: 00 00                        	addb	%al, (%eax)
     814: d5 20                        	aad	$32
     816: 10 c0                        	adcb	%al, %al
     818: 58                           	popl	%eax
     819: 00 00                        	addb	%al, (%eax)
     81b: 00 12                        	addb	%dl, (%edx)
     81d: 00 02                        	addb	%al, (%edx)
     81f: 00 62 04                     	addb	%ah, 4(%edx)
     822: 00 00                        	addb	%al, (%eax)
     824: 0a 20                        	orb	(%eax), %ah
     826: 10 c0                        	adcb	%al, %al
     828: 23 00                        	andl	(%eax), %eax
     82a: 00 00                        	addb	%al, (%eax)
     82c: 12 00                        	adcb	(%eax), %al
     82e: 02 00                        	addb	(%eax), %al
     830: 6e                           	outsb	(%esi), %dx
     831: 04 00                        	addb	$0, %al
     833: 00 f8                        	addb	%bh, %al
     835: 28 10                        	subb	%dl, (%eax)
     837: c0 9a 00 00 00 12 00         	rcrb	$0, 301989888(%edx)
     83e: 02 00                        	addb	(%eax), %al
     840: 79 04                        	jns	0x846 <.symtab+0x846>
     842: 00 00                        	addb	%al, (%eax)
     844: c4 10                        	lesl	(%eax), %edx
     846: 10 c0                        	adcb	%al, %al
     848: 00 00                        	addb	%al, (%eax)
     84a: 00 00                        	addb	%al, (%eax)
     84c: 10 00                        	adcb	%al, (%eax)
     84e: 02 00                        	addb	(%eax), %al
     850: 7f 04                        	jg	0x856 <.symtab+0x856>
     852: 00 00                        	addb	%al, (%eax)
     854: 52                           	pushl	%edx
     855: 11 10                        	adcl	%edx, (%eax)
     857: c0 00 00                     	rolb	$0, (%eax)
     85a: 00 00                        	addb	%al, (%eax)
     85c: 10 00                        	adcb	%al, (%eax)
     85e: 02 00                        	addb	(%eax), %al
     860: 84 04 00                     	testb	%al, (%eax,%eax)
     863: 00 10                        	addb	%dl, (%eax)
     865: 10 10                        	adcb	%dl, (%eax)
     867: c0 00 00                     	rolb	$0, (%eax)
     86a: 00 00                        	addb	%al, (%eax)
     86c: 10 00                        	adcb	%al, (%eax)
     86e: 02 00                        	addb	(%eax), %al
     870: 8e 04 00                     	movw	(%eax,%eax), %es
     873: 00 92 10 10 c0 00            	addb	%dl, 12587024(%edx)
     879: 00 00                        	addb	%al, (%eax)
     87b: 00 10                        	addb	%dl, (%eax)
     87d: 00 02                        	addb	%al, (%edx)
     87f: 00 dc                        	addb	%bl, %ah
     881: 04 00                        	addb	$0, %al
     883: 00 10                        	addb	%dl, (%eax)
     885: 00 10                        	addb	%dl, (%eax)
     887: 00 00                        	addb	%al, (%eax)
     889: 00 00                        	addb	%al, (%eax)
     88b: 00 10                        	addb	%dl, (%eax)
     88d: 00 01                        	addb	%al, (%ecx)
     88f: 00 94 04 00 00 bf 10         	addb	%dl, 280952832(%esp,%eax)
     896: 10 c0                        	adcb	%al, %al
     898: 00 00                        	addb	%al, (%eax)
     89a: 00 00                        	addb	%al, (%eax)
     89c: 10 00                        	adcb	%al, (%eax)
     89e: 02 00                        	addb	(%eax), %al
     8a0: 9a 04 00 00 44 10 10         	lcalll	$4112, $1140850692
     8a7: c0 00 00                     	rolb	$0, (%eax)
     8aa: 00 00                        	addb	%al, (%eax)
     8ac: 10 00                        	adcb	%al, (%eax)
     8ae: 02 00                        	addb	(%eax), %al
     8b0: 9f                           	lahf
     8b1: 04 00                        	addb	$0, %al
     8b3: 00 cb                        	addb	%cl, %bl
     8b5: 10 10                        	adcb	%dl, (%eax)
     8b7: c0 00 00                     	rolb	$0, (%eax)
     8ba: 00 00                        	addb	%al, (%eax)
     8bc: 10 00                        	adcb	%al, (%eax)
     8be: 02 00                        	addb	(%eax), %al
     8c0: a5                           	movsl	(%esi), %es:(%edi)
     8c1: 04 00                        	addb	$0, %al
     8c3: 00 00                        	addb	%al, (%eax)
     8c5: 10 10                        	adcb	%dl, (%eax)
     8c7: c0 00 00                     	rolb	$0, (%eax)
     8ca: 00 00                        	addb	%al, (%eax)
     8cc: 10 00                        	adcb	%al, (%eax)
     8ce: 02 00                        	addb	(%eax), %al
     8d0: af                           	scasl	%es:(%edi), %eax
     8d1: 04 00                        	addb	$0, %al
     8d3: 00 18                        	addb	%bl, (%eax)
     8d5: 11 10                        	adcl	%edx, (%eax)
     8d7: c0 00 00                     	rolb	$0, (%eax)
     8da: 00 00                        	addb	%al, (%eax)
     8dc: 10 00                        	adcb	%al, (%eax)
     8de: 02 00                        	addb	(%eax), %al
     8e0: b5 04                        	movb	$4, %ch
     8e2: 00 00                        	addb	%al, (%eax)
     8e4: 9a 1e 10 c0 26 00 00         	lcalll	$0, $650121246
     8eb: 00 12                        	addb	%dl, (%edx)
     8ed: 00 02                        	addb	%al, (%edx)
     8ef: 00 bc 04 00 00 c2 11         	addb	%bh, 297926656(%esp,%eax)
     8f6: 10 c0                        	adcb	%al, %al
     8f8: 00 00                        	addb	%al, (%eax)
     8fa: 00 00                        	addb	%al, (%eax)
     8fc: 10 00                        	adcb	%al, (%eax)
     8fe: 02 00                        	addb	(%eax), %al
     900: cc                           	int3
     901: 04 00                        	addb	$0, %al
     903: 00 bb 11 10 c0 00            	addb	%bh, 12587025(%ebx)
     909: 00 00                        	addb	%al, (%eax)
     90b: 00 10                        	addb	%dl, (%eax)
     90d: 00 02                        	addb	%al, (%edx)
     90f: 00 d2                        	addb	%dl, %dl
     911: 04 00                        	addb	$0, %al
     913: 00 76 10                     	addb	%dh, 16(%esi)
     916: 10 c0                        	adcb	%al, %al
     918: 00 00                        	addb	%al, (%eax)
     91a: 00 00                        	addb	%al, (%eax)
     91c: 10 00                        	adcb	%al, (%eax)
     91e: 02 00                        	addb	(%eax), %al
     920: d7                           	xlatb
     921: 04 00                        	addb	$0, %al
     923: 00 00                        	addb	%al, (%eax)
     925: 00 10                        	addb	%dl, (%eax)
     927: c0 00 00                     	rolb	$0, (%eax)
     92a: 00 00                        	addb	%al, (%eax)
     92c: 10 00                        	adcb	%al, (%eax)
     92e: 01 00                        	addl	%eax, (%eax)
     930: e2 04                        	loop	0x936 <.symtab+0x936>
     932: 00 00                        	addb	%al, (%eax)
     934: f5                           	cmc
     935: 10 10                        	adcb	%dl, (%eax)
     937: c0 00 00                     	rolb	$0, (%eax)
     93a: 00 00                        	addb	%al, (%eax)
     93c: 10 00                        	adcb	%al, (%eax)
     93e: 02 00                        	addb	(%eax), %al
     940: e8 04 00 00 26               	calll	0x26000949 <stop+0x25f008c0>
     945: 11 10                        	adcl	%edx, (%eax)
     947: c0 00 00                     	rolb	$0, (%eax)
     94a: 00 00                        	addb	%al, (%eax)
     94c: 10 00                        	adcb	%al, (%eax)
     94e: 02 00                        	addb	(%eax), %al
     950: f8                           	clc
     951: 04 00                        	addb	$0, %al
     953: 00 92 29 10 c0 88            	addb	%dl, -2000678871(%edx)
     959: 00 00                        	addb	%al, (%eax)
     95b: 00 12                        	addb	%dl, (%edx)
     95d: 00 02                        	addb	%al, (%edx)
     95f: 00 05 05 00 00 6e            	addb	%al, 1845493765
     965: 11 10                        	adcl	%edx, (%eax)
     967: c0 00 00                     	rolb	$0, (%eax)
     96a: 00 00                        	addb	%al, (%eax)
     96c: 10 00                        	adcb	%al, (%eax)
     96e: 02 00                        	addb	(%eax), %al
     970: 0a 05 00 00 67 11            	orb	291962880, %al
     976: 10 c0                        	adcb	%al, %al
     978: 00 00                        	addb	%al, (%eax)
     97a: 00 00                        	addb	%al, (%eax)
     97c: 10 00                        	adcb	%al, (%eax)
     97e: 02 00                        	addb	(%eax), %al

Disassembly of section .strtab:

00000000 <.strtab>:
       0: 00 62 6f                     	addb	%ah, 111(%edx)
       3: 6f                           	outsl	(%esi), %dx
       4: 74 2f                        	je	0x35 <.symtab+0x35>
       6: 62 6f 6f                     	bound	%ebp, 111(%edi)
       9: 74 2e                        	je	0x39 <.symtab+0x39>
       b: 73 00                        	jae	0xd <.symtab+0xd>
       d: 4d                           	decl	%ebp
       e: 42                           	incl	%edx
       f: 4f                           	decl	%edi
      10: 4f                           	decl	%edi
      11: 54                           	pushl	%esp
      12: 5f                           	popl	%edi
      13: 48                           	decl	%eax
      14: 45                           	incl	%ebp
      15: 41                           	incl	%ecx
      16: 44                           	incl	%esp
      17: 45                           	incl	%ebp
      18: 52                           	pushl	%edx
      19: 5f                           	popl	%edi
      1a: 4d                           	decl	%ebp
      1b: 41                           	incl	%ecx
      1c: 47                           	incl	%edi
      1d: 49                           	decl	%ecx
      1e: 43                           	incl	%ebx
      1f: 00 4d 42                     	addb	%cl, 66(%ebp)
      22: 4f                           	decl	%edi
      23: 4f                           	decl	%edi
      24: 54                           	pushl	%esp
      25: 5f                           	popl	%edi
      26: 50                           	pushl	%eax
      27: 41                           	incl	%ecx
      28: 47                           	incl	%edi
      29: 45                           	incl	%ebp
      2a: 5f                           	popl	%edi
      2b: 41                           	incl	%ecx
      2c: 4c                           	decl	%esp
      2d: 49                           	decl	%ecx
      2e: 47                           	incl	%edi
      2f: 4e                           	decl	%esi
      30: 00 4d 42                     	addb	%cl, 66(%ebp)
      33: 4f                           	decl	%edi
      34: 4f                           	decl	%edi
      35: 54                           	pushl	%esp
      36: 5f                           	popl	%edi
      37: 4d                           	decl	%ebp
      38: 45                           	incl	%ebp
      39: 4d                           	decl	%ebp
      3a: 5f                           	popl	%edi
      3b: 49                           	decl	%ecx
      3c: 4e                           	decl	%esi
      3d: 46                           	incl	%esi
      3e: 4f                           	decl	%edi
      3f: 00 4d 42                     	addb	%cl, 66(%ebp)
      42: 4f                           	decl	%edi
      43: 4f                           	decl	%edi
      44: 54                           	pushl	%esp
      45: 5f                           	popl	%edi
      46: 48                           	decl	%eax
      47: 45                           	incl	%ebp
      48: 41                           	incl	%ecx
      49: 44                           	incl	%esp
      4a: 45                           	incl	%ebp
      4b: 52                           	pushl	%edx
      4c: 5f                           	popl	%edi
      4d: 46                           	incl	%esi
      4e: 4c                           	decl	%esp
      4f: 41                           	incl	%ecx
      50: 47                           	incl	%edi
      51: 53                           	pushl	%ebx
      52: 00 4d 42                     	addb	%cl, 66(%ebp)
      55: 4f                           	decl	%edi
      56: 4f                           	decl	%edi
      57: 54                           	pushl	%esp
      58: 5f                           	popl	%edi
      59: 43                           	incl	%ebx
      5a: 48                           	decl	%eax
      5b: 45                           	incl	%ebp
      5c: 43                           	incl	%ebx
      5d: 4b                           	decl	%ebx
      5e: 53                           	pushl	%ebx
      5f: 55                           	pushl	%ebp
      60: 4d                           	decl	%ebp
      61: 00 70 67                     	addb	%dh, 103(%eax)
      64: 5f                           	popl	%edi
      65: 64 69 72 00 70 67 5f 74      	imull	$1952409456, %fs:(%edx), %esi
      6d: 61                           	popal
      6e: 62 5f 30                     	bound	%ebx, 48(%edi)
      71: 00 70 67                     	addb	%dh, 103(%eax)
      74: 5f                           	popl	%edi
      75: 74 61                        	je	0xd8 <.symtab+0xd8>
      77: 62 5f 6f                     	bound	%ebx, 111(%edi)
      7a: 66 66 00 70 61               	addb	%dh, 97(%eax)
      7f: 67 65 5f                     	popl	%edi
      82: 69 6e 69 74 00 70 67         	imull	$1735393396, 105(%esi), %ebp
      89: 5f                           	popl	%edi
      8a: 74 61                        	je	0xed <.symtab+0xed>
      8c: 62 5f 6c                     	bound	%ebx, 108(%edi)
      8f: 6f                           	outsl	(%esi), %dx
      90: 6f                           	outsl	(%esi), %dx
      91: 70 00                        	jo	0x93 <.symtab+0x93>
      93: 70 67                        	jo	0xfc <.symtab+0xfc>
      95: 5f                           	popl	%edi
      96: 65 6e                        	outsb	%gs:(%esi), %dx
      98: 61                           	popal
      99: 62 6c 65 00                  	bound	%ebp, (%ebp,%eiz,2)
      9d: 63 5f 65                     	arpl	%bx, 101(%edi)
      a0: 6e                           	outsb	(%esi), %dx
      a1: 74 72                        	je	0x115 <.symtab+0x115>
      a3: 79 00                        	jns	0xa5 <.symtab+0xa5>
      a5: 73 74                        	jae	0x11b <.symtab+0x11b>
      a7: 6f                           	outsl	(%esi), %dx
      a8: 70 00                        	jo	0xaa <.symtab+0xaa>
      aa: 53                           	pushl	%ebx
      ab: 54                           	pushl	%esp
      ac: 41                           	incl	%ecx
      ad: 43                           	incl	%ebx
      ae: 4b                           	decl	%ebx
      af: 5f                           	popl	%edi
      b0: 54                           	pushl	%esp
      b1: 4f                           	decl	%edi
      b2: 50                           	pushl	%eax
      b3: 00 69 6e                     	addb	%ch, 110(%ecx)
      b6: 69 74 2f 61 73 6d 2f 69      	imull	$1764715891, 97(%edi,%ebp), %esi
      be: 64 74 2e                     	je	0xef <.symtab+0xef>
      c1: 73 00                        	jae	0xc3 <.symtab+0xc3>
      c3: 69 6e 69 74 2f 61 73         	imull	$1935748980, 105(%esi), %ebp
      ca: 6d                           	insl	%dx, %es:(%edi)
      cb: 2f                           	das
      cc: 67 64 74 2e                  	je	0xfe <.symtab+0xfe>
      d0: 73 00                        	jae	0xd2 <.symtab+0xd2>
      d2: 67 64 74 5f                  	je	0x135 <.symtab+0x135>
      d6: 66 6c                        	insb	%dx, %es:(%edi)
      d8: 75 73                        	jne	0x14d <.symtab+0x14d>
      da: 68 2e 66 6c 75               	pushl	$1970038318
      df: 73 68                        	jae	0x149 <.symtab+0x149>
      e1: 00 6b 65                     	addb	%ch, 101(%ebx)
      e4: 72 6e                        	jb	0x154 <.symtab+0x154>
      e6: 65 6c                        	insb	%dx, %es:(%edi)
      e8: 2f                           	das
      e9: 61                           	popal
      ea: 73 6d                        	jae	0x159 <.symtab+0x159>
      ec: 2f                           	das
      ed: 69 73 72 2e 73 00 67         	imull	$1728082734, 114(%ebx), %esi
      f4: 64 74 2e                     	je	0x125 <.symtab+0x125>
      f7: 63 00                        	arpl	%ax, (%eax)
      f9: 67 64 74 5f                  	je	0x15c <.symtab+0x15c>
      fd: 73 65                        	jae	0x164 <.symtab+0x164>
      ff: 74 5f                        	je	0x160 <.symtab+0x160>
     101: 67 61                        	popal
     103: 74 65                        	je	0x16a <.symtab+0x16a>
     105: 00 69 64                     	addb	%ch, 100(%ecx)
     108: 74 2e                        	je	0x138 <.symtab+0x138>
     10a: 63 00                        	arpl	%ax, (%eax)
     10c: 69 64 74 5f 73 65 74 5f      	imull	$1601463667, 95(%esp,%esi,2), %esp
     114: 67 61                        	popal
     116: 74 65                        	je	0x17d <.symtab+0x17d>
     118: 00 65 6e                     	addb	%ah, 110(%ebp)
     11b: 74 72                        	je	0x18f <.symtab+0x18f>
     11d: 79 2e                        	jns	0x14d <.symtab+0x14d>
     11f: 63 00                        	arpl	%ax, (%eax)
     121: 70 69                        	jo	0x18c <.symtab+0x18c>
     123: 63 2e                        	arpl	%bp, (%esi)
     125: 63 00                        	arpl	%ax, (%eax)
     127: 63 6c 6f 63                  	arpl	%bp, 99(%edi,%ebp,2)
     12b: 6b 2e 63                     	imull	$99, (%esi), %ebp
     12e: 00 74 69 63                  	addb	%dh, 99(%ecx,%ebp,2)
     132: 6b 2e 30                     	imull	$48, (%esi), %ebp
     135: 00 63 6f                     	addb	%ah, 111(%ebx)
     138: 6e                           	outsb	(%esi), %dx
     139: 73 6f                        	jae	0x1aa <.symtab+0x1aa>
     13b: 6c                           	insb	%dx, %es:(%edi)
     13c: 65 2e 63 00                  	arpl	%ax, %cs:(%eax)
     140: 76 69                        	jbe	0x1ab <.symtab+0x1ab>
     142: 64 65 6f                     	outsl	%gs:(%esi), %dx
     145: 5f                           	popl	%edi
     146: 6d                           	insl	%dx, %es:(%edi)
     147: 65 6d                        	insl	%dx, %es:(%edi)
     149: 6f                           	outsl	(%esi), %dx
     14a: 72 79                        	jb	0x1c5 <.symtab+0x1c5>
     14c: 00 63 75                     	addb	%ah, 117(%ebx)
     14f: 72 73                        	jb	0x1c4 <.symtab+0x1c4>
     151: 6f                           	outsl	(%esi), %dx
     152: 72 5f                        	jb	0x1b3 <.symtab+0x1b3>
     154: 78 00                        	js	0x156 <.symtab+0x156>
     156: 63 75 72                     	arpl	%si, 114(%ebp)
     159: 73 6f                        	jae	0x1ca <.symtab+0x1ca>
     15b: 72 5f                        	jb	0x1bc <.symtab+0x1bc>
     15d: 79 00                        	jns	0x15f <.symtab+0x15f>
     15f: 6d                           	insl	%dx, %es:(%edi)
     160: 6f                           	outsl	(%esi), %dx
     161: 76 65                        	jbe	0x1c8 <.symtab+0x1c8>
     163: 5f                           	popl	%edi
     164: 63 75 72                     	arpl	%si, 114(%ebp)
     167: 73 6f                        	jae	0x1d8 <.symtab+0x1d8>
     169: 72 00                        	jb	0x16b <.symtab+0x16b>
     16b: 73 63                        	jae	0x1d0 <.symtab+0x1d0>
     16d: 72 6f                        	jb	0x1de <.symtab+0x1de>
     16f: 6c                           	insb	%dx, %es:(%edi)
     170: 6c                           	insb	%dx, %es:(%edi)
     171: 00 63 6f                     	addb	%ah, 111(%ebx)
     174: 6d                           	insl	%dx, %es:(%edi)
     175: 6d                           	insl	%dx, %es:(%edi)
     176: 6f                           	outsl	(%esi), %dx
     177: 6e                           	outsb	(%esi), %dx
     178: 2e 63 00                     	arpl	%ax, %cs:(%eax)
     17b: 73 74                        	jae	0x1f1 <.symtab+0x1f1>
     17d: 72 69                        	jb	0x1e8 <.symtab+0x1e8>
     17f: 6e                           	outsb	(%esi), %dx
     180: 67 2e 63 00                  	arpl	%ax, %cs:(%bx,%si)
     184: 6d                           	insl	%dx, %es:(%edi)
     185: 6d                           	insl	%dx, %es:(%edi)
     186: 2e 63 00                     	arpl	%ax, %cs:(%eax)
     189: 66 72 61                     	jb	0x1ed <.symtab+0x1ed>
     18c: 6d                           	insl	%dx, %es:(%edi)
     18d: 65 5f                        	popl	%edi
     18f: 6e                           	outsb	(%esi), %dx
     190: 75 6d                        	jne	0x1ff <.symtab+0x1ff>
     192: 00 66 72                     	addb	%ah, 114(%esi)
     195: 61                           	popal
     196: 6d                           	insl	%dx, %es:(%edi)
     197: 65 5f                        	popl	%edi
     199: 73 74                        	jae	0x20f <.symtab+0x20f>
     19b: 61                           	popal
     19c: 63 6b 00                     	arpl	%bp, (%ebx)
     19f: 66 72 61                     	jb	0x203 <.symtab+0x203>
     1a2: 6d                           	insl	%dx, %es:(%edi)
     1a3: 65 5f                        	popl	%edi
     1a5: 73 74                        	jae	0x21b <.symtab+0x21b>
     1a7: 61                           	popal
     1a8: 63 6b 5f                     	arpl	%bp, 95(%ebx)
     1ab: 74 6f                        	je	0x21c <.symtab+0x21c>
     1ad: 70 00                        	jo	0x1af <.symtab+0x1af>
     1af: 69 73 72 2e 63 00 70         	imull	$1879073582, 114(%ebx), %esi
     1b6: 72 69                        	jb	0x221 <.symtab+0x221>
     1b8: 6e                           	outsb	(%esi), %dx
     1b9: 74 6b                        	je	0x226 <.symtab+0x226>
     1bb: 2e 63 00                     	arpl	%ax, %cs:(%eax)
     1be: 62 75 66                     	bound	%esi, 102(%ebp)
     1c1: 2e 31 00                     	xorl	%eax, %cs:(%eax)
     1c4: 62 75 66                     	bound	%esi, 102(%ebp)
     1c7: 2e 30 00                     	xorb	%al, %cs:(%eax)
     1ca: 76 73                        	jbe	0x23f <.symtab+0x23f>
     1cc: 70 72                        	jo	0x240 <.symtab+0x240>
     1ce: 69 6e 74 66 2e 63 00         	imull	$6499942, 116(%esi), %ebp
     1d5: 73 6b                        	jae	0x242 <.symtab+0x242>
     1d7: 69 70 5f 61 74 6f 69         	imull	$1768911969, 95(%eax), %esi
     1de: 00 6e 75                     	addb	%ch, 117(%esi)
     1e1: 6d                           	insl	%dx, %es:(%edi)
     1e2: 62 65 72                     	bound	%esp, 114(%ebp)
     1e5: 00 64 65 62                  	addb	%ah, 98(%ebp,%eiz,2)
     1e9: 75 67                        	jne	0x252 <.symtab+0x252>
     1eb: 2e 63 00                     	arpl	%ax, %cs:(%eax)
     1ee: 6b 65 72 6e                  	imull	$110, 114(%ebp), %esp
     1f2: 65 6c                        	insb	%dx, %es:(%edi)
     1f4: 5f                           	popl	%edi
     1f5: 65 6c                        	insb	%dx, %es:(%edi)
     1f7: 66 00 72 6f                  	addb	%dh, 111(%edx)
     1fb: 75 6e                        	jne	0x26b <.symtab+0x26b>
     1fd: 64 2e 30 00                  	xorb	%al, %cs:(%eax)
     201: 65 6c                        	insb	%dx, %es:(%edi)
     203: 66 2e 63 00                  	arpl	%ax, %cs:(%eax)
     207: 63 6f 6e                     	arpl	%bp, 110(%edi)
     20a: 73 6f                        	jae	0x27b <.symtab+0x27b>
     20c: 6c                           	insb	%dx, %es:(%edi)
     20d: 65 5f                        	popl	%edi
     20f: 70 75                        	jo	0x286 <.symtab+0x286>
     211: 74 63                        	je	0x276 <.symtab+0x276>
     213: 5f                           	popl	%edi
     214: 63 6f 6c                     	arpl	%bp, 108(%edi)
     217: 6f                           	outsl	(%esi), %dx
     218: 72 00                        	jb	0x21a <.symtab+0x21a>
     21a: 73 74                        	jae	0x290 <.symtab+0x290>
     21c: 72 63                        	jb	0x281 <.symtab+0x281>
     21e: 70 79                        	jo	0x299 <.symtab+0x299>
     220: 00 63 6f                     	addb	%ah, 111(%ebx)
     223: 6e                           	outsb	(%esi), %dx
     224: 73 6f                        	jae	0x295 <.symtab+0x295>
     226: 6c                           	insb	%dx, %es:(%edi)
     227: 65 5f                        	popl	%edi
     229: 77 72                        	ja	0x29d <.symtab+0x29d>
     22b: 69 74 65 5f 63 6f 6c 6f      	imull	$1869377379, 95(%ebp,%eiz,2), %esi
     233: 72 00                        	jb	0x235 <.symtab+0x235>
     235: 69 6e 62 00 6b 65 72         	imull	$1919249152, 98(%esi), %ebp
     23c: 6e                           	outsb	(%esi), %dx
     23d: 5f                           	popl	%edi
     23e: 65 6e                        	outsb	%gs:(%esi), %dx
     240: 74 72                        	je	0x2b4 <.symtab+0x2b4>
     242: 79 00                        	jns	0x244 <.symtab+0x244>
     244: 63 6c 65 61                  	arpl	%bp, 97(%ebp,%eiz,2)
     248: 72 5f                        	jb	0x2a9 <.symtab+0x2a9>
     24a: 69 72 71 00 67 64 74         	imull	$1952737024, 113(%edx), %esi
     251: 72 00                        	jb	0x253 <.symtab+0x253>
     253: 76 73                        	jbe	0x2c8 <.symtab+0x2c8>
     255: 70 72                        	jo	0x2c9 <.symtab+0x2c9>
     257: 69 6e 74 66 00 69 73         	imull	$1936261222, 116(%esi), %ebp
     25e: 72 34                        	jb	0x294 <.symtab+0x294>
     260: 00 69 73                     	addb	%ch, 115(%ecx)
     263: 72 32                        	jb	0x297 <.symtab+0x297>
     265: 37                           	aaa
     266: 00 69 73                     	addb	%ch, 115(%ecx)
     269: 72 31                        	jb	0x29c <.symtab+0x29c>
     26b: 33 00                        	xorl	(%eax), %eax
     26d: 69 72 71 31 32 00 69         	imull	$1761620529, 113(%edx), %esi
     274: 73 72                        	jae	0x2e8 <.symtab+0x2e8>
     276: 32 32                        	xorb	(%edx), %dh
     278: 00 69 73                     	addb	%ch, 115(%ecx)
     27b: 72 31                        	jb	0x2ae <.symtab+0x2ae>
     27d: 35 00 69 72 71               	xorl	$1903323392, %eax
     282: 31 30                        	xorl	%esi, (%eax)
     284: 00 69 72                     	addb	%ch, 114(%ecx)
     287: 71 31                        	jno	0x2ba <.symtab+0x2ba>
     289: 34 00                        	xorb	$0, %al
     28b: 69 73 72 39 00 69 72         	imull	$1919483961, 114(%ebx), %esi
     292: 71 38                        	jno	0x2cc <.symtab+0x2cc>
     294: 00 6d 65                     	addb	%ch, 101(%ebp)
     297: 6d                           	insl	%dx, %es:(%edi)
     298: 63 70 79                     	arpl	%si, 121(%eax)
     29b: 00 69 73                     	addb	%ch, 115(%ecx)
     29e: 72 32                        	jb	0x2d2 <.symtab+0x2d2>
     2a0: 33 00                        	xorl	(%eax), %eax
     2a2: 69 73 72 32 39 00 50         	imull	$1342191922, 114(%ebx), %esi
     2a9: 41                           	incl	%ecx
     2aa: 47                           	incl	%edi
     2ab: 45                           	incl	%ebp
     2ac: 5f                           	popl	%edi
     2ad: 4f                           	decl	%edi
     2ae: 46                           	incl	%esi
     2af: 46                           	incl	%esi
     2b0: 53                           	pushl	%ebx
     2b1: 45                           	incl	%ebp
     2b2: 54                           	pushl	%esp
     2b3: 00 69 73                     	addb	%ch, 115(%ecx)
     2b6: 72 33                        	jb	0x2eb <.symtab+0x2eb>
     2b8: 31 00                        	xorl	%eax, (%eax)
     2ba: 69 73 72 32 31 00 69         	imull	$1761620274, 114(%ebx), %esi
     2c1: 72 71                        	jb	0x334 <.symtab+0x334>
     2c3: 31 31                        	xorl	%esi, (%ecx)
     2c5: 00 69 73                     	addb	%ch, 115(%ecx)
     2c8: 72 32                        	jb	0x2fc <.symtab+0x2fc>
     2ca: 38 00                        	cmpb	%al, (%eax)
     2cc: 72 65                        	jb	0x333 <.symtab+0x333>
     2ce: 67 69 73 74 65 72 5f 69      	imull	$1767862885, 116(%bp,%di), %esi
     2d6: 6e                           	outsb	(%esi), %dx
     2d7: 74 72                        	je	0x34b <.symtab+0x34b>
     2d9: 5f                           	popl	%edi
     2da: 68 61 6e 64 6c               	pushl	$1818521185
     2df: 65 72 00                     	jb	0x2e2 <.symtab+0x2e2>
     2e2: 69 73 72 38 00 63 6c         	imull	$1818427448, 114(%ebx), %esi
     2e9: 6b 5f 69 6e                  	imull	$110, 105(%edi), %ebx
     2ed: 69 74 00 69 72 71 35 00      	imull	$3502450, 105(%eax,%eax), %esi
     2f5: 62 7a 65                     	bound	%edi, 101(%edx)
     2f8: 72 6f                        	jb	0x369 <.symtab+0x369>
     2fa: 00 69 73                     	addb	%ch, 115(%ecx)
     2fd: 72 32                        	jb	0x331 <.symtab+0x331>
     2ff: 30 00                        	xorb	%al, (%eax)
     301: 63 6f 6e                     	arpl	%bp, 110(%edi)
     304: 73 6f                        	jae	0x375 <.symtab+0x375>
     306: 6c                           	insb	%dx, %es:(%edi)
     307: 65 5f                        	popl	%edi
     309: 69 6e 69 74 00 69 73         	imull	$1936261236, 105(%esi), %ebp
     310: 72 31                        	jb	0x343 <.symtab+0x343>
     312: 34 00                        	xorb	$0, %al
     314: 67 6c                        	insb	%dx, %es:(%di)
     316: 62 5f 6d                     	bound	%ebx, 109(%edi)
     319: 62 6f 6f                     	bound	%ebp, 111(%edi)
     31c: 74 5f                        	je	0x37d <.symtab+0x37d>
     31e: 70 74                        	jo	0x394 <.symtab+0x394>
     320: 72 00                        	jb	0x322 <.symtab+0x322>
     322: 69 6e 77 00 69 73 72         	imull	$1920166144, 119(%esi), %ebp
     329: 35 00 63 6c 6b               	xorl	$1802265344, %eax
     32e: 5f                           	popl	%edi
     32f: 69 6e 74 72 00 73 74         	imull	$1953693810, 116(%esi), %ebp
     336: 72 63                        	jb	0x39b <.symtab+0x39b>
     338: 61                           	popal
     339: 74 00                        	je	0x33b <.symtab+0x33b>
     33b: 69 72 71 36 00 69 72         	imull	$1919483958, 113(%edx), %esi
     342: 71 31                        	jno	0x375 <.symtab+0x375>
     344: 00 63 6f                     	addb	%ah, 111(%ebx)
     347: 6e                           	outsb	(%esi), %dx
     348: 73 6f                        	jae	0x3b9 <.symtab+0x3b9>
     34a: 6c                           	insb	%dx, %es:(%edi)
     34b: 65 5f                        	popl	%edi
     34d: 63 6c 65 61                  	arpl	%bp, 97(%ebp,%eiz,2)
     351: 72 00                        	jb	0x353 <.symtab+0x353>
     353: 73 65                        	jae	0x3ba <.symtab+0x3ba>
     355: 74 75                        	je	0x3cc <.symtab+0x3cc>
     357: 70 5f                        	jo	0x3b8 <.symtab+0x3b8>
     359: 69 64 74 00 73 65 74 75      	imull	$1970562419, (%esp,%esi,2), %esp
     361: 70 5f                        	jo	0x3c2 <.symtab+0x3c2>
     363: 67 64 74 00                  	je	0x367 <.symtab+0x367>
     367: 69 73 72 31 00 65 6c         	imull	$1818558513, 114(%ebx), %esi
     36e: 66 5f                        	popw	%di
     370: 6c                           	insb	%dx, %es:(%edi)
     371: 6f                           	outsl	(%esi), %dx
     372: 6f                           	outsl	(%esi), %dx
     373: 6b 75 70 5f                  	imull	$95, 112(%ebp), %esi
     377: 73 79                        	jae	0x3f2 <.symtab+0x3f2>
     379: 6d                           	insl	%dx, %es:(%edi)
     37a: 62 6f 6c                     	bound	%ebp, 108(%edi)
     37d: 00 69 72                     	addb	%ch, 114(%ecx)
     380: 71 39                        	jno	0x3bb <.symtab+0x3bb>
     382: 00 69 73                     	addb	%ch, 115(%ecx)
     385: 72 32                        	jb	0x3b9 <.symtab+0x3b9>
     387: 36 00 69 73                  	addb	%ch, %ss:115(%ecx)
     38b: 72 31                        	jb	0x3be <.symtab+0x3be>
     38d: 31 00                        	xorl	%eax, (%eax)
     38f: 70 61                        	jo	0x3f2 <.symtab+0x3f2>
     391: 6e                           	outsb	(%esi), %dx
     392: 69 63 00 6b 65 72 6e         	imull	$1852990827, (%ebx), %esp
     399: 5f                           	popl	%edi
     39a: 65 6e                        	outsb	%gs:(%esi), %dx
     39c: 64 00 65 6c                  	addb	%ah, %fs:108(%ebp)
     3a0: 66 5f                        	popw	%di
     3a2: 66 72 6f                     	jb	0x414 <.symtab+0x414>
     3a5: 6d                           	insl	%dx, %es:(%edi)
     3a6: 5f                           	popl	%edi
     3a7: 6d                           	insl	%dx, %es:(%edi)
     3a8: 75 6c                        	jne	0x416 <.symtab+0x416>
     3aa: 74 69                        	je	0x415 <.symtab+0x415>
     3ac: 62 6f 6f                     	bound	%ebp, 111(%edi)
     3af: 74 00                        	je	0x3b1 <.symtab+0x3b1>
     3b1: 6d                           	insl	%dx, %es:(%edi)
     3b2: 6d                           	insl	%dx, %es:(%edi)
     3b3: 5f                           	popl	%edi
     3b4: 69 6e 69 74 00 6f 75         	imull	$1970208884, 105(%esi), %ebp
     3bb: 74 62                        	je	0x41f <.symtab+0x41f>
     3bd: 00 69 72                     	addb	%ch, 114(%ecx)
     3c0: 71 31                        	jno	0x3f3 <.symtab+0x3f3>
     3c2: 33 00                        	xorl	(%eax), %eax
     3c4: 69 73 72 31 32 00 6d         	imull	$1828729393, 114(%ebx), %esi
     3cb: 65 6d                        	insl	%dx, %es:(%edi)
     3cd: 73 65                        	jae	0x434 <.symtab+0x434>
     3cf: 74 00                        	je	0x3d1 <.symtab+0x3d1>
     3d1: 69 73 72 30 00 69 72         	imull	$1919483952, 114(%ebx), %esi
     3d8: 71 32                        	jno	0x40c <.symtab+0x40c>
     3da: 00 63 70                     	addb	%ah, 112(%ebx)
     3dd: 72 69                        	jb	0x448 <.symtab+0x448>
     3df: 6e                           	outsb	(%esi), %dx
     3e0: 74 6b                        	je	0x44d <.symtab+0x44d>
     3e2: 00 69 73                     	addb	%ch, 115(%ecx)
     3e5: 72 5f                        	jb	0x446 <.symtab+0x446>
     3e7: 68 61 6e 64 6c               	pushl	$1818521185
     3ec: 65 72 00                     	jb	0x3ef <.symtab+0x3ef>
     3ef: 69 73 72 32 34 00 69         	imull	$1761621042, 114(%ebx), %esi
     3f6: 73 72                        	jae	0x46a <.symtab+0x46a>
     3f8: 31 36                        	xorl	%esi, (%esi)
     3fa: 00 73 74                     	addb	%dh, 116(%ebx)
     3fd: 72 63                        	jb	0x462 <.symtab+0x462>
     3ff: 6d                           	insl	%dx, %es:(%edi)
     400: 70 00                        	jo	0x402 <.symtab+0x402>
     402: 64 65 62 75 67               	bound	%esi, %gs:103(%ebp)
     407: 5f                           	popl	%edi
     408: 69 6e 69 74 00 63 6f         	imull	$1868759156, 105(%esi), %ebp
     40f: 6e                           	outsb	(%esi), %dx
     410: 73 6f                        	jae	0x481 <.symtab+0x481>
     412: 6c                           	insb	%dx, %es:(%edi)
     413: 65 5f                        	popl	%edi
     415: 77 72                        	ja	0x489 <.symtab+0x489>
     417: 69 74 65 00 69 6e 74 72      	imull	$1920233065, (%ebp,%eiz,2), %esi
     41f: 5f                           	popl	%edi
     420: 68 61 6e 64 6c               	pushl	$1818521185
     425: 65 72 5f                     	jb	0x487 <.symtab+0x487>
     428: 74 61                        	je	0x48b <.symtab+0x48b>
     42a: 62 6c 65 00                  	bound	%ebp, (%ebp,%eiz,2)
     42e: 69 73 72 33 00 70 69         	imull	$1768947763, 114(%ebx), %esi
     435: 63 5f 69                     	arpl	%bx, 105(%edi)
     438: 6e                           	outsb	(%esi), %dx
     439: 69 74 00 66 72 65 65 5f      	imull	$1600480626, 102(%eax,%eax), %esi
     441: 66 72 61                     	jb	0x4a5 <.symtab+0x4a5>
     444: 6d                           	insl	%dx, %es:(%edi)
     445: 65 00 69 64                  	addb	%ch, %gs:100(%ecx)
     449: 74 72                        	je	0x4bd <.symtab+0x4bd>
     44b: 00 69 73                     	addb	%ch, 115(%ecx)
     44e: 72 36                        	jb	0x486 <.symtab+0x486>
     450: 00 69 72                     	addb	%ch, 114(%ecx)
     453: 71 37                        	jno	0x48c <.symtab+0x48c>
     455: 00 69 72                     	addb	%ch, 114(%ecx)
     458: 71 5f                        	jno	0x4b9 <.symtab+0x4b9>
     45a: 68 61 6e 64 6c               	pushl	$1818521185
     45f: 65 72 00                     	jb	0x462 <.symtab+0x462>
     462: 61                           	popal
     463: 6c                           	insb	%dx, %es:(%edi)
     464: 6c                           	insb	%dx, %es:(%edi)
     465: 6f                           	outsl	(%esi), %dx
     466: 63 5f 66                     	arpl	%bx, 102(%edi)
     469: 72 61                        	jb	0x4cc <.symtab+0x4cc>
     46b: 6d                           	insl	%dx, %es:(%edi)
     46c: 65 00 70 72                  	addb	%dh, %gs:114(%eax)
     470: 69 6e 74 5f 73 72 65         	imull	$1701999455, 116(%esi), %ebp
     477: 67 00 69 73                  	addb	%ch, 115(%bx,%di)
     47b: 72 31                        	jb	0x4ae <.symtab+0x4ae>
     47d: 38 00                        	cmpb	%al, (%eax)
     47f: 69 72 71 30 00 67 64         	imull	$1684471856, 113(%edx), %esi
     486: 74 5f                        	je	0x4e7 <.symtab+0x4e7>
     488: 66 6c                        	insb	%dx, %es:(%edi)
     48a: 75 73                        	jne	0x4ff <.symtab+0x4ff>
     48c: 68 00 69 73 72               	pushl	$1920166144
     491: 31 30                        	xorl	%esi, (%eax)
     493: 00 69 73                     	addb	%ch, 115(%ecx)
     496: 72 31                        	jb	0x4c9 <.symtab+0x4c9>
     498: 37                           	aaa
     499: 00 69 73                     	addb	%ch, 115(%ecx)
     49c: 72 32                        	jb	0x4d0 <.symtab+0x4d0>
     49e: 00 69 73                     	addb	%ch, 115(%ecx)
     4a1: 72 31                        	jb	0x4d4 <.symtab+0x4d4>
     4a3: 39 00                        	cmpl	%eax, (%eax)
     4a5: 69 64 74 5f 66 6c 75 73      	imull	$1937075302, 95(%esp,%esi,2), %esp
     4ad: 68 00 69 73 72               	pushl	$1920166144
     4b2: 33 30                        	xorl	(%eax), %esi
     4b4: 00 73 74                     	addb	%dh, 116(%ebx)
     4b7: 72 6c                        	jb	0x525 <.symtab+0x525>
     4b9: 65 6e                        	outsb	%gs:(%esi), %dx
     4bb: 00 69 72                     	addb	%ch, 114(%ecx)
     4be: 71 5f                        	jno	0x51f <.symtab+0x51f>
     4c0: 63 6f 6d                     	arpl	%bp, 109(%edi)
     4c3: 6d                           	insl	%dx, %es:(%edi)
     4c4: 6f                           	outsl	(%esi), %dx
     4c5: 6e                           	outsb	(%esi), %dx
     4c6: 5f                           	popl	%edi
     4c7: 73 74                        	jae	0x53d <.symtab+0x53d>
     4c9: 75 62                        	jne	0x52d <.symtab+0x52d>
     4cb: 00 69 72                     	addb	%ch, 114(%ecx)
     4ce: 71 31                        	jno	0x501 <.symtab+0x501>
     4d0: 35 00 69 73 72               	xorl	$1920166144, %eax
     4d5: 37                           	aaa
     4d6: 00 6b 65                     	addb	%ch, 101(%ebx)
     4d9: 72 6e                        	jb	0x549 <.symtab+0x549>
     4db: 5f                           	popl	%edi
     4dc: 73 74                        	jae	0x552 <.symtab+0x552>
     4de: 61                           	popal
     4df: 72 74                        	jb	0x555 <.symtab+0x555>
     4e1: 00 69 73                     	addb	%ch, 115(%ecx)
     4e4: 72 32                        	jb	0x518 <.symtab+0x518>
     4e6: 35 00 69 73 72               	xorl	$1920166144, %eax
     4eb: 5f                           	popl	%edi
     4ec: 63 6f 6d                     	arpl	%bp, 109(%edi)
     4ef: 6d                           	insl	%dx, %es:(%edi)
     4f0: 6f                           	outsl	(%esi), %dx
     4f1: 6e                           	outsb	(%esi), %dx
     4f2: 5f                           	popl	%edi
     4f3: 73 74                        	jae	0x569 <.symtab+0x569>
     4f5: 75 62                        	jne	0x559 <.symtab+0x559>
     4f7: 00 70 72                     	addb	%dh, 114(%eax)
     4fa: 69 6e 74 5f 6d 6d 5f         	imull	$1601006943, 116(%esi), %ebp
     501: 6d                           	insl	%dx, %es:(%edi)
     502: 61                           	popal
     503: 70 00                        	jo	0x505 <.symtab+0x505>
     505: 69 72 71 34 00 69 72         	imull	$1919483956, 113(%edx), %esi
     50c: 71 33                        	jno	0x541 <.symtab+0x541>
     50e: 00                           	<unknown>

Disassembly of section .shstrtab:

00000000 <.shstrtab>:
       0: 00 2e                        	addb	%ch, (%esi)
       2: 73 79                        	jae	0x7d <.symtab+0x7d>
       4: 6d                           	insl	%dx, %es:(%edi)
       5: 74 61                        	je	0x68 <.symtab+0x68>
       7: 62 00                        	bound	%eax, (%eax)
       9: 2e 73 74                     	jae	0x80 <.symtab+0x80>
       c: 72 74                        	jb	0x82 <.symtab+0x82>
       e: 61                           	popal
       f: 62 00                        	bound	%eax, (%eax)
      11: 2e 73 68                     	jae	0x7c <.symtab+0x7c>
      14: 73 74                        	jae	0x8a <.symtab+0x8a>
      16: 72 74                        	jb	0x8c <.symtab+0x8c>
      18: 61                           	popal
      19: 62 00                        	bound	%eax, (%eax)
      1b: 2e 69 6e 69 74 00 2e 74      	imull	$1949171828, %cs:105(%esi), %ebp
      23: 65 78 74                     	js	0x9a <.symtab+0x9a>
      26: 00 2e                        	addb	%ch, (%esi)
      28: 72 6f                        	jb	0x99 <.symtab+0x99>
      2a: 64 61                        	popal
      2c: 74 61                        	je	0x8f <.symtab+0x8f>
      2e: 00 2e                        	addb	%ch, (%esi)
      30: 64 61                        	popal
      32: 74 61                        	je	0x95 <.symtab+0x95>
      34: 00 2e                        	addb	%ch, (%esi)
      36: 62 73 73                     	bound	%esi, 115(%ebx)
      39: 00 2e                        	addb	%ch, (%esi)
      3b: 73 74                        	jae	0xb1 <.symtab+0xb1>
      3d: 61                           	popal
      3e: 62 00                        	bound	%eax, (%eax)
      40: 2e 73 74                     	jae	0xb7 <.symtab+0xb7>
      43: 61                           	popal
      44: 62 73 74                     	bound	%esi, 116(%ebx)
      47: 72 00                        	jb	0x49 <.symtab+0x49>
